---
triple:          'arm64-apple-darwin'
binary-path:     "/Users/jalell/Library/CloudStorage/OneDrive-Persönlich/SURFACE/TuDD/MASTER/MLCV-Project/mlcv-multicut/code/multicut"
relocations:
  - { offsetInCU: 0x1CAAF, offset: 0x1CAAF, size: 0x8, addend: 0x0, symName: __ZNSt3__1L19piecewise_constructE, symObjAddr: 0x3531C, symBinAddr: 0x10003DA48, symSize: 0x0 }
  - { offsetInCU: 0x1FF9C, offset: 0x1FF9C, size: 0x8, addend: 0x0, symName: __ZNSt3__124__put_character_sequenceB7v160006IcNS_11char_traitsIcEEEERNS_13basic_ostreamIT_T0_EES7_PKS4_m, symObjAddr: 0xE5B0, symBinAddr: 0x1000118C0, symSize: 0x1EC }
  - { offsetInCU: 0x20552, offset: 0x20552, size: 0x8, addend: 0x0, symName: __ZNSt3__17advanceB7v160006IPKimmvEEvRT_T0_, symObjAddr: 0x124CC, symBinAddr: 0x1000157DC, symSize: 0x50 }
  - { offsetInCU: 0x20EA6, offset: 0x20EA6, size: 0x8, addend: 0x0, symName: __ZNSt3__114__copy_alignedB7v160006INS_6vectorIbNS_9allocatorIbEEEELb0EEENS_14__bit_iteratorIT_Lb0EXLi0EEEENS5_IS6_XT0_EXLi0EEEES8_S7_, symObjAddr: 0x1932C, symBinAddr: 0x10001C63C, symSize: 0x278 }
  - { offsetInCU: 0x20FD4, offset: 0x20FD4, size: 0x8, addend: 0x0, symName: __ZNSt3__16copy_nB7v160006IPmmS1_EENS_9enable_ifIXsr33__is_cpp17_random_access_iteratorIT_EE5valueET1_E4typeES3_T0_S4_, symObjAddr: 0x19B10, symBinAddr: 0x10001CE20, symSize: 0x44 }
  - { offsetInCU: 0x2105B, offset: 0x2105B, size: 0x8, addend: 0x0, symName: __ZNSt3__116__copy_unalignedB7v160006INS_6vectorIbNS_9allocatorIbEEEELb0EEENS_14__bit_iteratorIT_Lb0EXLi0EEEENS5_IS6_XT0_EXLi0EEEES8_S7_, symObjAddr: 0x195A4, symBinAddr: 0x10001C8B4, symSize: 0x540 }
  - { offsetInCU: 0x211D9, offset: 0x211D9, size: 0x8, addend: 0x0, symName: __ZNSt3__114__copy_alignedB7v160006INS_6vectorIbNS_9allocatorIbEEEELb1EEENS_14__bit_iteratorIT_Lb0EXLi0EEEENS5_IS6_XT0_EXLi0EEEES8_S7_, symObjAddr: 0x1A158, symBinAddr: 0x10001D468, symSize: 0x268 }
  - { offsetInCU: 0x21305, offset: 0x21305, size: 0x8, addend: 0x0, symName: __ZNSt3__16copy_nB7v160006IPKmmPmEENS_9enable_ifIXsr33__is_cpp17_random_access_iteratorIT_EE5valueET1_E4typeES5_T0_S6_, symObjAddr: 0x1A928, symBinAddr: 0x10001DC38, symSize: 0x44 }
  - { offsetInCU: 0x213AC, offset: 0x213AC, size: 0x8, addend: 0x0, symName: __ZNSt3__116__copy_unalignedB7v160006INS_6vectorIbNS_9allocatorIbEEEELb1EEENS_14__bit_iteratorIT_Lb0EXLi0EEEENS5_IS6_XT0_EXLi0EEEES8_S7_, symObjAddr: 0x1A3C0, symBinAddr: 0x10001D6D0, symSize: 0x520 }
  - { offsetInCU: 0x2152C, offset: 0x2152C, size: 0x8, addend: 0x0, symName: __ZNSt3__113__fill_n_trueB7v160006INS_6vectorIbNS_9allocatorIbEEEEEEvNS_14__bit_iteratorIT_Lb0EXLi0EEEENS6_9size_typeE, symObjAddr: 0x1B070, symBinAddr: 0x10001E380, symSize: 0x160 }
  - { offsetInCU: 0x215F1, offset: 0x215F1, size: 0x8, addend: 0x0, symName: __ZNSt3__114__fill_n_falseB7v160006INS_6vectorIbNS_9allocatorIbEEEEEEvNS_14__bit_iteratorIT_Lb0EXLi0EEEENS6_9size_typeE, symObjAddr: 0x1B1D0, symBinAddr: 0x10001E4E0, symSize: 0x15C }
  - { offsetInCU: 0x27378, offset: 0x27378, size: 0x8, addend: 0x0, symName: __ZNSt3__115__equal_alignedB7v160006INS_6vectorIbNS_9allocatorIbEEEELb1ELb1EEEbNS_14__bit_iteratorIT_XT0_EXLi0EEEES7_NS5_IS6_XT1_EXLi0EEEE, symObjAddr: 0x3349C, symBinAddr: 0x1000367AC, symSize: 0x240 }
  - { offsetInCU: 0x2746F, offset: 0x2746F, size: 0x8, addend: 0x0, symName: __ZNSt3__117__equal_unalignedB7v160006INS_6vectorIbNS_9allocatorIbEEEELb1ELb1EEEbNS_14__bit_iteratorIT_XT0_EXLi0EEEES7_NS5_IS6_XT1_EXLi0EEEE, symObjAddr: 0x336DC, symBinAddr: 0x1000369EC, symSize: 0x56C }
  - { offsetInCU: 0x2C4A4, offset: 0x2C4A4, size: 0x8, addend: 0x0, symName: __ZNSt3__1lsB7v160006IcNS_11char_traitsIcEENS_9allocatorIcEEEERNS_13basic_ostreamIT_T0_EES9_RKNS_12basic_stringIS6_S7_T1_EE, symObjAddr: 0x640, symBinAddr: 0x100003950, symSize: 0x4C }
  - { offsetInCU: 0x2C4FC, offset: 0x2C4FC, size: 0x8, addend: 0x0, symName: __ZNSt3__1lsB7v160006INS_11char_traitsIcEEEERNS_13basic_ostreamIcT_EES6_PKc, symObjAddr: 0x68C, symBinAddr: 0x10000399C, symSize: 0x48 }
  - { offsetInCU: 0x2C542, offset: 0x2C542, size: 0x8, addend: 0x0, symName: __ZNSt3__14endlB7v160006IcNS_11char_traitsIcEEEERNS_13basic_ostreamIT_T0_EES7_, symObjAddr: 0x700, symBinAddr: 0x100003A10, symSize: 0x58 }
  - { offsetInCU: 0x2C582, offset: 0x2C582, size: 0x8, addend: 0x0, symName: __ZNSt3__1eqB7v160006IPiEEbRKNS_11__wrap_iterIT_EES6_, symObjAddr: 0xF7C, symBinAddr: 0x10000428C, symSize: 0x48 }
  - { offsetInCU: 0x2C5C5, offset: 0x2C5C5, size: 0x8, addend: 0x0, symName: __ZNSt3__14findB7v160006INS_11__wrap_iterIPiEEiEET_S4_S4_RKT0_, symObjAddr: 0xFC4, symBinAddr: 0x1000042D4, symSize: 0x80 }
  - { offsetInCU: 0x2C61F, offset: 0x2C61F, size: 0x8, addend: 0x0, symName: __ZNSt3__1neB7v160006IPiEEbRKNS_11__wrap_iterIT_EES6_, symObjAddr: 0x1448, symBinAddr: 0x100004758, symSize: 0x34 }
  - { offsetInCU: 0x2C662, offset: 0x2C662, size: 0x8, addend: 0x0, symName: __ZNSt3__1lsB7v160006IcNS_11char_traitsIcEELm1EEERNS_13basic_ostreamIT_T0_EES7_RKNS_6bitsetIXT1_EEE, symObjAddr: 0x182C, symBinAddr: 0x100004B3C, symSize: 0x158 }
  - { offsetInCU: 0x2C6BB, offset: 0x2C6BB, size: 0x8, addend: 0x0, symName: __ZNSt3__1neB7v160006IP3RGBEEbRKNS_11__wrap_iterIT_EES7_, symObjAddr: 0x1AD8, symBinAddr: 0x100004DE8, symSize: 0x34 }
  - { offsetInCU: 0x2C6FE, offset: 0x2C6FE, size: 0x8, addend: 0x0, symName: __ZNSt3__1lsB7v160006INS_11char_traitsIcEEEERNS_13basic_ostreamIcT_EES6_h, symObjAddr: 0x1B24, symBinAddr: 0x100004E34, symSize: 0x34 }
  - { offsetInCU: 0x2C744, offset: 0x2C744, size: 0x8, addend: 0x0, symName: __ZNSt3__1miB7v160006IPiS1_EEDTmicldtfp_4baseEcldtfp0_4baseEERKNS_11__wrap_iterIT_EERKNS3_IT0_EE, symObjAddr: 0x2040, symBinAddr: 0x100005350, symSize: 0x48 }
  - { offsetInCU: 0x2C790, offset: 0x2C790, size: 0x8, addend: 0x0, symName: __ZNSt3__1miB7v160006IPKiS2_EEDTmicldtfp_4baseEcldtfp0_4baseEERKNS_11__wrap_iterIT_EERKNS4_IT0_EE, symObjAddr: 0x2130, symBinAddr: 0x100005440, symSize: 0x48 }
  - { offsetInCU: 0x2C7DC, offset: 0x2C7DC, size: 0x8, addend: 0x0, symName: __ZNSt3__14findB7v160006INS_11__wrap_iterIPKiEEiEET_S5_S5_RKT0_, symObjAddr: 0x2178, symBinAddr: 0x100005488, symSize: 0x80 }
  - { offsetInCU: 0x2C836, offset: 0x2C836, size: 0x8, addend: 0x0, symName: __ZNSt3__13minB7v160006IiEERKT_S3_S3_, symObjAddr: 0x2400, symBinAddr: 0x100005710, symSize: 0x2C }
  - { offsetInCU: 0x2C879, offset: 0x2C879, size: 0x8, addend: 0x0, symName: __ZNSt3__13maxB7v160006IiEERKT_S3_S3_, symObjAddr: 0x2E4C, symBinAddr: 0x10000615C, symSize: 0x2C }
  - { offsetInCU: 0x2C8BC, offset: 0x2C8BC, size: 0x8, addend: 0x0, symName: __ZNSt3__113back_inserterB7v160006INS_6vectorIiNS_9allocatorIiEEEEEENS_20back_insert_iteratorIT_EERS6_, symObjAddr: 0x31EC, symBinAddr: 0x1000064FC, symSize: 0x2C }
  - { offsetInCU: 0x2C8F1, offset: 0x2C8F1, size: 0x8, addend: 0x0, symName: __ZNSt3__1neB7v160006ERKNS_14__bit_iteratorINS_6vectorIbNS_9allocatorIbEEEELb0ELm0EEES7_, symObjAddr: 0x32E4, symBinAddr: 0x1000065F4, symSize: 0x34 }
  - { offsetInCU: 0x2D7F0, offset: 0x2D7F0, size: 0x8, addend: 0x0, symName: __ZNSt3__1neB7v160006IPNS_6vectorIiNS_9allocatorIiEEEEEEbRKNS_11__wrap_iterIT_EESA_, symObjAddr: 0x49E4, symBinAddr: 0x100007CF4, symSize: 0x34 }
  - { offsetInCU: 0x2D833, offset: 0x2D833, size: 0x8, addend: 0x0, symName: __ZNSt3__1neB7v160006IPKiEEbRKNS_11__wrap_iterIT_EES7_, symObjAddr: 0x4A30, symBinAddr: 0x100007D40, symSize: 0x34 }
  - { offsetInCU: 0x2D877, offset: 0x2D877, size: 0x8, addend: 0x0, symName: '__ZNSt3__17find_ifB7v160006INS_11__wrap_iterIPKNS_6vectorIiNS_9allocatorIiEEEEEEZN5Graph15findVectorIndexERKNS2_IS5_NS3_IS5_EEEEiE3$_0EET_SF_SF_T0_', symObjAddr: 0x5020, symBinAddr: 0x100008330, symSize: 0x7C }
  - { offsetInCU: 0x2D8D0, offset: 0x2D8D0, size: 0x8, addend: 0x0, symName: __ZNSt3__1neB7v160006IPKNS_6vectorIiNS_9allocatorIiEEEEEEbRKNS_11__wrap_iterIT_EESB_, symObjAddr: 0x50FC, symBinAddr: 0x10000840C, symSize: 0x34 }
  - { offsetInCU: 0x2D913, offset: 0x2D913, size: 0x8, addend: 0x0, symName: __ZNSt3__18distanceB7v160006INS_11__wrap_iterIPKNS_6vectorIiNS_9allocatorIiEEEEEEEENS_15iterator_traitsIT_E15difference_typeESA_SA_, symObjAddr: 0x5130, symBinAddr: 0x100008440, symSize: 0x3C }
  - { offsetInCU: 0x2D956, offset: 0x2D956, size: 0x8, addend: 0x0, symName: __ZNSt3__1lsB7v160006IcNS_11char_traitsIcEEEERNS_13basic_ostreamIT_T0_EES7_RKNS_8__iom_t5E, symObjAddr: 0x578C, symBinAddr: 0x100008A9C, symSize: 0x40 }
  - { offsetInCU: 0x2D9A2, offset: 0x2D9A2, size: 0x8, addend: 0x0, symName: __ZNSt3__112setprecisionB7v160006Ei, symObjAddr: 0x57CC, symBinAddr: 0x100008ADC, symSize: 0x2C }
  - { offsetInCU: 0x2DBDE, offset: 0x2DBDE, size: 0x8, addend: 0x0, symName: __ZNSt3__1neB7v160006ERKNS_25__hash_map_const_iteratorINS_21__hash_const_iteratorIPNS_11__hash_nodeINS_17__hash_value_typeI9DirectionNS_12basic_stringIcNS_11char_traitsIcEENS_9allocatorIcEEEEEEPvEEEEEESI_, symObjAddr: 0x770C, symBinAddr: 0x10000AA1C, symSize: 0x30 }
  - { offsetInCU: 0x2E419, offset: 0x2E419, size: 0x8, addend: 0x0, symName: __ZNSt3__19make_pairB7v160006IRiR9DirectionEENS_4pairINS_18__unwrap_ref_decayIT_E4typeENS5_IT0_E4typeEEEOS6_OS9_, symObjAddr: 0x88A4, symBinAddr: 0x10000BBB4, symSize: 0x34 }
  - { offsetInCU: 0x2E468, offset: 0x2E468, size: 0x8, addend: 0x0, symName: __ZNSt3__13tieB7v160006IJi9DirectionEEENS_5tupleIJDpRT_EEES5_, symObjAddr: 0x88FC, symBinAddr: 0x10000BC0C, symSize: 0x38 }
  - { offsetInCU: 0x2E8DD, offset: 0x2E8DD, size: 0x8, addend: 0x0, symName: __ZNSt3__19make_pairB7v160006Ii9DirectionEENS_4pairINS_18__unwrap_ref_decayIT_E4typeENS3_IT0_E4typeEEEOS4_OS7_, symObjAddr: 0x899C, symBinAddr: 0x10000BCAC, symSize: 0x34 }
  - { offsetInCU: 0x2E92C, offset: 0x2E92C, size: 0x8, addend: 0x0, symName: __ZNSt3__19make_pairB7v160006IiR9DirectionEENS_4pairINS_18__unwrap_ref_decayIT_E4typeENS4_IT0_E4typeEEEOS5_OS8_, symObjAddr: 0x89FC, symBinAddr: 0x10000BD0C, symSize: 0x34 }
  - { offsetInCU: 0x2E97B, offset: 0x2E97B, size: 0x8, addend: 0x0, symName: __ZNSt3__1neB7v160006IPKNS_5tupleIJi9DirectionNS_6vectorIbNS_9allocatorIbEEEEEEEEEbRKNS_11__wrap_iterIT_EESE_, symObjAddr: 0x8D9C, symBinAddr: 0x10000C0AC, symSize: 0x34 }
  - { offsetInCU: 0x2E9BE, offset: 0x2E9BE, size: 0x8, addend: 0x0, symName: __ZNSt3__13getB7v160006ILm0EJi9DirectionNS_6vectorIbNS_9allocatorIbEEEEEEERKNS_13tuple_elementIXT_ENS_5tupleIJDpT0_EEEE4typeERKSA_, symObjAddr: 0x8DE8, symBinAddr: 0x10000C0F8, symSize: 0x24 }
  - { offsetInCU: 0x2EA0B, offset: 0x2EA0B, size: 0x8, addend: 0x0, symName: __ZNSt3__13getB7v160006ILm1EJi9DirectionNS_6vectorIbNS_9allocatorIbEEEEEEERKNS_13tuple_elementIXT_ENS_5tupleIJDpT0_EEEE4typeERKSA_, symObjAddr: 0x8E0C, symBinAddr: 0x10000C11C, symSize: 0x28 }
  - { offsetInCU: 0x2EA58, offset: 0x2EA58, size: 0x8, addend: 0x0, symName: __ZNSt3__13getB7v160006ILm2EJi9DirectionNS_6vectorIbNS_9allocatorIbEEEEEEERKNS_13tuple_elementIXT_ENS_5tupleIJDpT0_EEEE4typeERKSA_, symObjAddr: 0x8E34, symBinAddr: 0x10000C144, symSize: 0x28 }
  - { offsetInCU: 0x2EAA5, offset: 0x2EAA5, size: 0x8, addend: 0x0, symName: __ZNSt3__1neB7v160006ERKNS_14__bit_iteratorINS_6vectorIbNS_9allocatorIbEEEELb1ELm0EEES7_, symObjAddr: 0x8ECC, symBinAddr: 0x10000C1DC, symSize: 0x34 }
  - { offsetInCU: 0x2ECED, offset: 0x2ECED, size: 0x8, addend: 0x0, symName: __ZNSt3__1neB7v160006IPNS_5tupleIJi9DirectionNS_6vectorIbNS_9allocatorIbEEEEEEEEEbRKNS_11__wrap_iterIT_EESD_, symObjAddr: 0xA5C8, symBinAddr: 0x10000D8D8, symSize: 0x34 }
  - { offsetInCU: 0x2ED30, offset: 0x2ED30, size: 0x8, addend: 0x0, symName: __ZNSt3__13getB7v160006ILm0EJi9DirectionNS_6vectorIbNS_9allocatorIbEEEEEEERNS_13tuple_elementIXT_ENS_5tupleIJDpT0_EEEE4typeERSA_, symObjAddr: 0xA7CC, symBinAddr: 0x10000DADC, symSize: 0x24 }
  - { offsetInCU: 0x2ED7D, offset: 0x2ED7D, size: 0x8, addend: 0x0, symName: __ZNSt3__13getB7v160006ILm1EJi9DirectionNS_6vectorIbNS_9allocatorIbEEEEEEERNS_13tuple_elementIXT_ENS_5tupleIJDpT0_EEEE4typeERSA_, symObjAddr: 0xA7F0, symBinAddr: 0x10000DB00, symSize: 0x28 }
  - { offsetInCU: 0x2EDCA, offset: 0x2EDCA, size: 0x8, addend: 0x0, symName: __ZNSt3__13getB7v160006ILm2EJi9DirectionNS_6vectorIbNS_9allocatorIbEEEEEEERNS_13tuple_elementIXT_ENS_5tupleIJDpT0_EEEE4typeERSA_, symObjAddr: 0xA818, symBinAddr: 0x10000DB28, symSize: 0x28 }
  - { offsetInCU: 0x2EE17, offset: 0x2EE17, size: 0x8, addend: 0x0, symName: __ZNSt3__1eqB7v160006IbNS_9allocatorIbEEEEbRKNS_6vectorIT_T0_EES8_, symObjAddr: 0xA968, symBinAddr: 0x10000DC78, symSize: 0xB4 }
  - { offsetInCU: 0x2EE76, offset: 0x2EE76, size: 0x8, addend: 0x0, symName: '__ZNSt3__19transformB7v160006INS_14__bit_iteratorINS_6vectorIbNS_9allocatorIbEEEELb1ELm0EEES6_NS1_IS5_Lb0ELm0EEEZN5Graph18logical_or_vectorsERKS5_SA_E3$_1EET1_T_SD_T0_SC_T2_', symObjAddr: 0xAAB0, symBinAddr: 0x10000DDC0, symSize: 0x104 }
  - { offsetInCU: 0x2EEFF, offset: 0x2EEFF, size: 0x8, addend: 0x0, symName: __ZNSt3__1eqB7v160006IP3RGBEEbRKNS_11__wrap_iterIT_EES7_, symObjAddr: 0xAC24, symBinAddr: 0x10000DF34, symSize: 0x48 }
  - { offsetInCU: 0x2EF42, offset: 0x2EF42, size: 0x8, addend: 0x0, symName: __ZNSt3__13minB7v160006IiNS_6__lessIiiEEEERKT_S5_S5_T0_, symObjAddr: 0xAD44, symBinAddr: 0x10000E054, symSize: 0x54 }
  - { offsetInCU: 0x2EFD7, offset: 0x2EFD7, size: 0x8, addend: 0x0, symName: __ZNSt3__13maxB7v160006IiNS_6__lessIiiEEEERKT_S5_S5_T0_, symObjAddr: 0xADCC, symBinAddr: 0x10000E0DC, symSize: 0x54 }
  - { offsetInCU: 0x2F031, offset: 0x2F031, size: 0x8, addend: 0x0, symName: __ZNSt3__1neB7v160006ERKNS_16__deque_iteratorIiPiRiPS1_lLl1024EEES6_, symObjAddr: 0xB2F8, symBinAddr: 0x10000E608, symSize: 0x34 }
  - { offsetInCU: 0x2F06F, offset: 0x2F06F, size: 0x8, addend: 0x0, symName: __ZNSt3__1eqB7v160006ERKNS_16__deque_iteratorIiPiRiPS1_lLl1024EEES6_, symObjAddr: 0xB598, symBinAddr: 0x10000E8A8, symSize: 0x30 }
  - { offsetInCU: 0x2F0AB, offset: 0x2F0AB, size: 0x8, addend: 0x0, symName: __ZNSt3__119__libcpp_deallocateB7v160006EPvmm, symObjAddr: 0xB6A0, symBinAddr: 0x10000E9B0, symSize: 0x60 }
  - { offsetInCU: 0x2F111, offset: 0x2F111, size: 0x8, addend: 0x0, symName: __ZNSt3__124__is_overaligned_for_newB7v160006Em, symObjAddr: 0xB700, symBinAddr: 0x10000EA10, symSize: 0x20 }
  - { offsetInCU: 0x2F13E, offset: 0x2F13E, size: 0x8, addend: 0x0, symName: __ZNSt3__127__do_deallocate_handle_sizeB7v160006IJSt11align_val_tEEEvPvmDpT_, symObjAddr: 0xB720, symBinAddr: 0x10000EA30, symSize: 0x30 }
  - { offsetInCU: 0x2F191, offset: 0x2F191, size: 0x8, addend: 0x0, symName: __ZNSt3__127__do_deallocate_handle_sizeB7v160006IJEEEvPvmDpT_, symObjAddr: 0xB750, symBinAddr: 0x10000EA60, symSize: 0x28 }
  - { offsetInCU: 0x2F1CF, offset: 0x2F1CF, size: 0x8, addend: 0x0, symName: __ZNSt3__124__libcpp_operator_deleteB7v160006IJPvSt11align_val_tEEEvDpT_, symObjAddr: 0xB778, symBinAddr: 0x10000EA88, symSize: 0x2C }
  - { offsetInCU: 0x2F218, offset: 0x2F218, size: 0x8, addend: 0x0, symName: __ZNSt3__124__libcpp_operator_deleteB7v160006IJPvEEEvDpT_, symObjAddr: 0xB7A4, symBinAddr: 0x10000EAB4, symSize: 0x24 }
  - { offsetInCU: 0x2F24E, offset: 0x2F24E, size: 0x8, addend: 0x0, symName: __ZNSt3__112__to_addressB7v160006IPiEEPT_S3_, symObjAddr: 0xBA28, symBinAddr: 0x10000ED38, symSize: 0x14 }
  - { offsetInCU: 0x2F282, offset: 0x2F282, size: 0x8, addend: 0x0, symName: __ZNSt3__1eqB7v160006IPNS_6vectorIiNS_9allocatorIiEEEEEEbRKNS_11__wrap_iterIT_EESA_, symObjAddr: 0xBB28, symBinAddr: 0x10000EE38, symSize: 0x48 }
  - { offsetInCU: 0x2F2C5, offset: 0x2F2C5, size: 0x8, addend: 0x0, symName: __ZNSt3__1eqB7v160006IPKiEEbRKNS_11__wrap_iterIT_EES7_, symObjAddr: 0xBB88, symBinAddr: 0x10000EE98, symSize: 0x48 }
  - { offsetInCU: 0x2F308, offset: 0x2F308, size: 0x8, addend: 0x0, symName: __ZNSt3__1eqB7v160006IPKNS_6vectorIiNS_9allocatorIiEEEEEEbRKNS_11__wrap_iterIT_EESB_, symObjAddr: 0xBBD0, symBinAddr: 0x10000EEE0, symSize: 0x48 }
  - { offsetInCU: 0x2F34B, offset: 0x2F34B, size: 0x8, addend: 0x0, symName: __ZNSt3__110__distanceB7v160006INS_11__wrap_iterIPKNS_6vectorIiNS_9allocatorIiEEEEEEEENS_15iterator_traitsIT_E15difference_typeESA_SA_NS_26random_access_iterator_tagE, symObjAddr: 0xBC30, symBinAddr: 0x10000EF40, symSize: 0x30 }
  - { offsetInCU: 0x2F398, offset: 0x2F398, size: 0x8, addend: 0x0, symName: __ZNSt3__1miB7v160006IPKNS_6vectorIiNS_9allocatorIiEEEES6_EEDTmicldtfp_4baseEcldtfp0_4baseEERKNS_11__wrap_iterIT_EERKNS8_IT0_EE, symObjAddr: 0xBC60, symBinAddr: 0x10000EF70, symSize: 0x48 }
  - { offsetInCU: 0x2F3E5, offset: 0x2F3E5, size: 0x8, addend: 0x0, symName: __ZNSt3__118__debug_db_erase_cB7v160006INS_6vectorImNS_9allocatorImEEEEEEvPT_, symObjAddr: 0xC174, symBinAddr: 0x10000F484, symSize: 0x10 }
  - { offsetInCU: 0x2F417, offset: 0x2F417, size: 0x8, addend: 0x0, symName: __ZNSt3__112__to_addressB7v160006ImEEPT_S2_, symObjAddr: 0xC2B8, symBinAddr: 0x10000F5C8, symSize: 0x14 }
  - { offsetInCU: 0x2F480, offset: 0x2F480, size: 0x8, addend: 0x0, symName: __ZNSt3__1neB7v160006ERKNS_16__deque_iteratorINS_4pairIi9DirectionEEPS3_RS3_PS4_lLl512EEES9_, symObjAddr: 0xCD58, symBinAddr: 0x100010068, symSize: 0x34 }
  - { offsetInCU: 0x2F4BE, offset: 0x2F4BE, size: 0x8, addend: 0x0, symName: __ZNSt3__1eqB7v160006ERKNS_16__deque_iteratorINS_4pairIi9DirectionEEPS3_RS3_PS4_lLl512EEES9_, symObjAddr: 0xCFD8, symBinAddr: 0x1000102E8, symSize: 0x30 }
  - { offsetInCU: 0x2F4FB, offset: 0x2F4FB, size: 0x8, addend: 0x0, symName: __ZNSt3__112__to_addressB7v160006IPNS_4pairIi9DirectionEEEEPT_S6_, symObjAddr: 0xD32C, symBinAddr: 0x10001063C, symSize: 0x14 }
  - { offsetInCU: 0x2F52F, offset: 0x2F52F, size: 0x8, addend: 0x0, symName: __ZNSt3__1eqB7v160006IPKNS_5tupleIJi9DirectionNS_6vectorIbNS_9allocatorIbEEEEEEEEEbRKNS_11__wrap_iterIT_EESE_, symObjAddr: 0xD42C, symBinAddr: 0x10001073C, symSize: 0x48 }
  - { offsetInCU: 0x2F572, offset: 0x2F572, size: 0x8, addend: 0x0, symName: __ZNSt3__1neB7v160006ERKNS_16__deque_iteratorIbPbRbPS1_lLl4096EEES6_, symObjAddr: 0xD968, symBinAddr: 0x100010C78, symSize: 0x34 }
  - { offsetInCU: 0x2F5B0, offset: 0x2F5B0, size: 0x8, addend: 0x0, symName: __ZNSt3__1eqB7v160006ERKNS_16__deque_iteratorIbPbRbPS1_lLl4096EEES6_, symObjAddr: 0xDBE0, symBinAddr: 0x100010EF0, symSize: 0x30 }
  - { offsetInCU: 0x2F5ED, offset: 0x2F5ED, size: 0x8, addend: 0x0, symName: __ZNSt3__112__to_addressB7v160006IPbEEPT_S3_, symObjAddr: 0xDF34, symBinAddr: 0x100011244, symSize: 0x14 }
  - { offsetInCU: 0x2F621, offset: 0x2F621, size: 0x8, addend: 0x0, symName: __ZNSt3__1eqB7v160006IPNS_5tupleIJi9DirectionNS_6vectorIbNS_9allocatorIbEEEEEEEEEbRKNS_11__wrap_iterIT_EESD_, symObjAddr: 0xE09C, symBinAddr: 0x1000113AC, symSize: 0x48 }
  - { offsetInCU: 0x2F665, offset: 0x2F665, size: 0x8, addend: 0x0, symName: __ZNSt3__119__debug_db_insert_cB7v160006INS_12basic_stringIcNS_11char_traitsIcEENS_9allocatorIcEEEEEEvPT_, symObjAddr: 0xE3F8, symBinAddr: 0x100011708, symSize: 0x10 }
  - { offsetInCU: 0x2F696, offset: 0x2F696, size: 0x8, addend: 0x0, symName: __ZNSt3__118__constexpr_strlenB7v160006EPKc, symObjAddr: 0xE4C4, symBinAddr: 0x1000117D4, symSize: 0x24 }
  - { offsetInCU: 0x2F6C2, offset: 0x2F6C2, size: 0x8, addend: 0x0, symName: __ZNSt3__116__pad_and_outputB7v160006IcNS_11char_traitsIcEEEENS_19ostreambuf_iteratorIT_T0_EES6_PKS4_S8_S8_RNS_8ios_baseES4_, symObjAddr: 0xE7B8, symBinAddr: 0x100011AC8, symSize: 0x240 }
  - { offsetInCU: 0x2F792, offset: 0x2F792, size: 0x8, addend: 0x0, symName: __ZNSt3__112__to_addressB7v160006IcEEPT_S2_, symObjAddr: 0xEC30, symBinAddr: 0x100011F40, symSize: 0x14 }
  - { offsetInCU: 0x2F7F9, offset: 0x2F7F9, size: 0x8, addend: 0x0, symName: __ZNSt3__19use_facetB7v160006INS_5ctypeIcEEEERKT_RKNS_6localeE, symObjAddr: 0xEEB0, symBinAddr: 0x1000121C0, symSize: 0x2C }
  - { offsetInCU: 0x2FCC9, offset: 0x2FCC9, size: 0x8, addend: 0x0, symName: __ZNSt3__112__to_addressB7v160006IKcEEPT_S3_, symObjAddr: 0xEFC4, symBinAddr: 0x1000122D4, symSize: 0x14 }
  - { offsetInCU: 0x2FD31, offset: 0x2FD31, size: 0x8, addend: 0x0, symName: __ZNSt3__119__debug_db_insert_cB7v160006INS_6vectorIiNS_9allocatorIiEEEEEEvPT_, symObjAddr: 0xF180, symBinAddr: 0x100012490, symSize: 0x10 }
  - { offsetInCU: 0x2FD63, offset: 0x2FD63, size: 0x8, addend: 0x0, symName: __ZNSt3__118__debug_db_erase_cB7v160006INS_6vectorIiNS_9allocatorIiEEEEEEvPT_, symObjAddr: 0xF444, symBinAddr: 0x100012754, symSize: 0x10 }
  - { offsetInCU: 0x2FD95, offset: 0x2FD95, size: 0x8, addend: 0x0, symName: __ZNSt3__112__to_addressB7v160006IiEEPT_S2_, symObjAddr: 0xF52C, symBinAddr: 0x10001283C, symSize: 0x14 }
  - { offsetInCU: 0x2FDC9, offset: 0x2FDC9, size: 0x8, addend: 0x0, symName: __ZNSt3__122__make_exception_guardB7v160006INS_6vectorIiNS_9allocatorIiEEE16__destroy_vectorEEENS_28__exception_guard_exceptionsIT_EES7_, symObjAddr: 0xF868, symBinAddr: 0x100012B78, symSize: 0x40 }
  - { offsetInCU: 0x2FDFE, offset: 0x2FDFE, size: 0x8, addend: 0x0, symName: __ZNSt3__119__allocate_at_leastB7v160006INS_9allocatorIiEEEENS_19__allocation_resultINS_16allocator_traitsIT_E7pointerEEERS5_m, symObjAddr: 0xFB90, symBinAddr: 0x100012EA0, symSize: 0x40 }
  - { offsetInCU: 0x2FE41, offset: 0x2FE41, size: 0x8, addend: 0x0, symName: __ZNSt3__13minB7v160006ImEERKT_S3_S3_, symObjAddr: 0xFCA4, symBinAddr: 0x100012FB4, symSize: 0x2C }
  - { offsetInCU: 0x3006E, offset: 0x3006E, size: 0x8, addend: 0x0, symName: __ZNSt3__13minB7v160006ImNS_6__lessImmEEEERKT_S5_S5_T0_, symObjAddr: 0xFD08, symBinAddr: 0x100013018, symSize: 0x54 }
  - { offsetInCU: 0x30104, offset: 0x30104, size: 0x8, addend: 0x0, symName: __ZNSt3__120__throw_length_errorB7v160006EPKc, symObjAddr: 0xFDAC, symBinAddr: 0x1000130BC, symSize: 0x64 }
  - { offsetInCU: 0x3012C, offset: 0x3012C, size: 0x8, addend: 0x0, symName: __ZNSt3__117__libcpp_allocateB7v160006Emm, symObjAddr: 0xFF1C, symBinAddr: 0x10001322C, symSize: 0x60 }
  - { offsetInCU: 0x30186, offset: 0x30186, size: 0x8, addend: 0x0, symName: __ZNSt3__121__libcpp_operator_newB7v160006IJmSt11align_val_tEEEPvDpT_, symObjAddr: 0xFF7C, symBinAddr: 0x10001328C, symSize: 0x2C }
  - { offsetInCU: 0x301D3, offset: 0x301D3, size: 0x8, addend: 0x0, symName: __ZNSt3__121__libcpp_operator_newB7v160006IJmEEEPvDpT_, symObjAddr: 0xFFA8, symBinAddr: 0x1000132B8, symSize: 0x24 }
  - { offsetInCU: 0x3020C, offset: 0x3020C, size: 0x8, addend: 0x0, symName: __ZNSt3__130__uninitialized_allocator_copyB7v160006INS_9allocatorIiEEPiS3_S3_EET2_RT_T0_T1_S4_, symObjAddr: 0x10040, symBinAddr: 0x100013350, symSize: 0xF4 }
  - { offsetInCU: 0x302AA, offset: 0x302AA, size: 0x8, addend: 0x0, symName: __ZNSt3__122__make_exception_guardB7v160006INS_29_AllocatorDestroyRangeReverseINS_9allocatorIiEEPiEEEENS_28__exception_guard_exceptionsIT_EES7_, symObjAddr: 0x101A4, symBinAddr: 0x1000134B4, symSize: 0x4C }
  - { offsetInCU: 0x302E0, offset: 0x302E0, size: 0x8, addend: 0x0, symName: __ZNSt3__119__allocator_destroyB7v160006INS_9allocatorIiEENS_16reverse_iteratorIPiEES5_EEvRT_T0_T1_, symObjAddr: 0x1042C, symBinAddr: 0x10001373C, symSize: 0x70 }
  - { offsetInCU: 0x30343, offset: 0x30343, size: 0x8, addend: 0x0, symName: __ZNSt3__1neB7v160006IPiS1_EEbRKNS_16reverse_iteratorIT_EERKNS2_IT0_EE, symObjAddr: 0x104D0, symBinAddr: 0x1000137E0, symSize: 0x48 }
  - { offsetInCU: 0x3038F, offset: 0x3038F, size: 0x8, addend: 0x0, symName: __ZNSt3__112__to_addressB7v160006INS_16reverse_iteratorIPiEEvEENS_5decayIDTclsr19__to_address_helperIT_EE6__callclsr3stdE7declvalIRKS5_EEEEE4typeES7_, symObjAddr: 0x10518, symBinAddr: 0x100013828, symSize: 0x24 }
  - { offsetInCU: 0x303F0, offset: 0x303F0, size: 0x8, addend: 0x0, symName: __ZNSt3__119__debug_db_insert_cB7v160006INS_6vectorINS1_IiNS_9allocatorIiEEEENS2_IS4_EEEEEEvPT_, symObjAddr: 0x10724, symBinAddr: 0x100013A34, symSize: 0x10 }
  - { offsetInCU: 0x30422, offset: 0x30422, size: 0x8, addend: 0x0, symName: __ZNSt3__119__debug_db_insert_cB7v160006INS_6vectorI3RGBNS_9allocatorIS2_EEEEEEvPT_, symObjAddr: 0x10890, symBinAddr: 0x100013BA0, symSize: 0x10 }
  - { offsetInCU: 0x30454, offset: 0x30454, size: 0x8, addend: 0x0, symName: __ZNSt3__119__debug_db_insert_cB7v160006INS_6vectorINS_6bitsetILm1EEENS_9allocatorIS3_EEEEEEvPT_, symObjAddr: 0x109FC, symBinAddr: 0x100013D0C, symSize: 0x10 }
  - { offsetInCU: 0x30486, offset: 0x30486, size: 0x8, addend: 0x0, symName: __ZNSt3__119__debug_db_insert_cB7v160006INS_6vectorINS_5tupleIJi9DirectionNS1_IbNS_9allocatorIbEEEEEEENS4_IS7_EEEEEEvPT_, symObjAddr: 0x10CC0, symBinAddr: 0x100013FD0, symSize: 0x10 }
  - { offsetInCU: 0x304B8, offset: 0x304B8, size: 0x8, addend: 0x0, symName: __ZNSt3__118__debug_db_erase_cB7v160006INS_6vectorINS1_IiNS_9allocatorIiEEEENS2_IS4_EEEEEEvPT_, symObjAddr: 0x10FA0, symBinAddr: 0x1000142B0, symSize: 0x10 }
  - { offsetInCU: 0x304EA, offset: 0x304EA, size: 0x8, addend: 0x0, symName: __ZNSt3__112__to_addressB7v160006INS_6vectorIiNS_9allocatorIiEEEEEEPT_S6_, symObjAddr: 0x110BC, symBinAddr: 0x1000143CC, symSize: 0x14 }
  - { offsetInCU: 0x3051F, offset: 0x3051F, size: 0x8, addend: 0x0, symName: __ZNSt3__118__debug_db_erase_cB7v160006INS_6vectorI3RGBNS_9allocatorIS2_EEEEEEvPT_, symObjAddr: 0x11494, symBinAddr: 0x1000147A4, symSize: 0x10 }
  - { offsetInCU: 0x30551, offset: 0x30551, size: 0x8, addend: 0x0, symName: __ZNSt3__112__to_addressB7v160006I3RGBEEPT_S3_, symObjAddr: 0x115B0, symBinAddr: 0x1000148C0, symSize: 0x14 }
  - { offsetInCU: 0x30586, offset: 0x30586, size: 0x8, addend: 0x0, symName: __ZNSt3__118__debug_db_erase_cB7v160006INS_6vectorINS_6bitsetILm1EEENS_9allocatorIS3_EEEEEEvPT_, symObjAddr: 0x11958, symBinAddr: 0x100014C68, symSize: 0x10 }
  - { offsetInCU: 0x305B8, offset: 0x305B8, size: 0x8, addend: 0x0, symName: __ZNSt3__112__to_addressB7v160006INS_6bitsetILm1EEEEEPT_S4_, symObjAddr: 0x11A74, symBinAddr: 0x100014D84, symSize: 0x14 }
  - { offsetInCU: 0x305ED, offset: 0x305ED, size: 0x8, addend: 0x0, symName: __ZNSt3__125__debug_db_invalidate_allB7v160006INS_6vectorIbNS_9allocatorIbEEE16__destroy_vectorEEEvPT_, symObjAddr: 0x11D98, symBinAddr: 0x1000150A8, symSize: 0x10 }
  - { offsetInCU: 0x3061F, offset: 0x3061F, size: 0x8, addend: 0x0, symName: __ZNSt3__118__debug_db_erase_cB7v160006INS_6vectorINS_5tupleIJi9DirectionNS1_IbNS_9allocatorIbEEEEEEENS4_IS7_EEEEEEvPT_, symObjAddr: 0x11FDC, symBinAddr: 0x1000152EC, symSize: 0x10 }
  - { offsetInCU: 0x30651, offset: 0x30651, size: 0x8, addend: 0x0, symName: __ZNSt3__112__to_addressB7v160006INS_5tupleIJi9DirectionNS_6vectorIbNS_9allocatorIbEEEEEEEEEPT_S9_, symObjAddr: 0x12120, symBinAddr: 0x100015430, symSize: 0x14 }
  - { offsetInCU: 0x30685, offset: 0x30685, size: 0x8, addend: 0x0, symName: __ZNSt3__18distanceB7v160006IPKiEENS_15iterator_traitsIT_E15difference_typeES4_S4_, symObjAddr: 0x124A0, symBinAddr: 0x1000157B0, symSize: 0x2C }
  - { offsetInCU: 0x306C8, offset: 0x306C8, size: 0x8, addend: 0x0, symName: __ZNSt3__14copyB7v160006IPKiPiEET0_T_S5_S4_, symObjAddr: 0x1251C, symBinAddr: 0x10001582C, symSize: 0x40 }
  - { offsetInCU: 0x30723, offset: 0x30723, size: 0x8, addend: 0x0, symName: __ZNSt3__125__debug_db_invalidate_allB7v160006INS_6vectorIiNS_9allocatorIiEEEEEEvPT_, symObjAddr: 0x12788, symBinAddr: 0x100015A98, symSize: 0x10 }
  - { offsetInCU: 0x30755, offset: 0x30755, size: 0x8, addend: 0x0, symName: __ZNSt3__110__distanceB7v160006IPKiEENS_15iterator_traitsIT_E15difference_typeES4_S4_NS_26random_access_iterator_tagE, symObjAddr: 0x12798, symBinAddr: 0x100015AA8, symSize: 0x28 }
  - { offsetInCU: 0x307A2, offset: 0x307A2, size: 0x8, addend: 0x0, symName: __ZNSt3__121__convert_to_integralB7v160006Em, symObjAddr: 0x127C0, symBinAddr: 0x100015AD0, symSize: 0x14 }
  - { offsetInCU: 0x307CE, offset: 0x307CE, size: 0x8, addend: 0x0, symName: __ZNSt3__19__advanceB7v160006IPKiEEvRT_NS_15iterator_traitsIS3_E15difference_typeENS_26random_access_iterator_tagE, symObjAddr: 0x127D4, symBinAddr: 0x100015AE4, symSize: 0x28 }
  - { offsetInCU: 0x30817, offset: 0x30817, size: 0x8, addend: 0x0, symName: __ZNSt3__16__copyB7v160006INS_17_ClassicAlgPolicyEPKiS3_PiEENS_4pairIT0_T2_EES6_T1_S7_, symObjAddr: 0x127FC, symBinAddr: 0x100015B0C, symSize: 0x44 }
  - { offsetInCU: 0x30883, offset: 0x30883, size: 0x8, addend: 0x0, symName: __ZNSt3__123__dispatch_copy_or_moveB7v160006INS_17_ClassicAlgPolicyENS_11__copy_loopIS1_EENS_14__copy_trivialEPKiS6_PiEENS_4pairIT2_T4_EES9_T3_SA_, symObjAddr: 0x12840, symBinAddr: 0x100015B50, symSize: 0x44 }
  - { offsetInCU: 0x30901, offset: 0x30901, size: 0x8, addend: 0x0, symName: __ZNSt3__121__unwrap_and_dispatchB7v160006INS_10__overloadINS_11__copy_loopINS_17_ClassicAlgPolicyEEENS_14__copy_trivialEEEPKiS8_PiLi0EEENS_4pairIT0_T2_EESB_T1_SC_, symObjAddr: 0x12884, symBinAddr: 0x100015B94, symSize: 0xB4 }
  - { offsetInCU: 0x3098F, offset: 0x3098F, size: 0x8, addend: 0x0, symName: __ZNSt3__114__unwrap_rangeB7v160006IPKiS2_EENS_4pairIT0_S4_EET_S6_, symObjAddr: 0x12938, symBinAddr: 0x100015C48, symSize: 0x60 }
  - { offsetInCU: 0x30B9C, offset: 0x30B9C, size: 0x8, addend: 0x0, symName: __ZNSt3__113__unwrap_iterB7v160006IPiNS_18__unwrap_iter_implIS1_Lb1EEELi0EEEDTclsrT0_8__unwrapclsr3stdE7declvalIT_EEEES5_, symObjAddr: 0x129E0, symBinAddr: 0x100015CF0, symSize: 0x24 }
  - { offsetInCU: 0x30BE0, offset: 0x30BE0, size: 0x8, addend: 0x0, symName: __ZNSt3__19make_pairB7v160006IPKiPiEENS_4pairINS_18__unwrap_ref_decayIT_E4typeENS5_IT0_E4typeEEEOS6_OS9_, symObjAddr: 0x12A04, symBinAddr: 0x100015D14, symSize: 0x38 }
  - { offsetInCU: 0x30C2F, offset: 0x30C2F, size: 0x8, addend: 0x0, symName: __ZNSt3__114__rewrap_rangeB7v160006IPKiS2_EET_S3_T0_, symObjAddr: 0x12A3C, symBinAddr: 0x100015D4C, symSize: 0x2C }
  - { offsetInCU: 0x30C7B, offset: 0x30C7B, size: 0x8, addend: 0x0, symName: __ZNSt3__113__rewrap_iterB7v160006IPiS1_NS_18__unwrap_iter_implIS1_Lb1EEEEET_S4_T0_, symObjAddr: 0x12A68, symBinAddr: 0x100015D78, symSize: 0x3C }
  - { offsetInCU: 0x30CD0, offset: 0x30CD0, size: 0x8, addend: 0x0, symName: __ZNSt3__19make_pairB7v160006IPKiS2_EENS_4pairINS_18__unwrap_ref_decayIT_E4typeENS4_IT0_E4typeEEEOS5_OS8_, symObjAddr: 0x12AA4, symBinAddr: 0x100015DB4, symSize: 0x38 }
  - { offsetInCU: 0x30D1F, offset: 0x30D1F, size: 0x8, addend: 0x0, symName: __ZNSt3__113__unwrap_iterB7v160006IPKiNS_18__unwrap_iter_implIS2_Lb1EEELi0EEEDTclsrT0_8__unwrapclsr3stdE7declvalIT_EEEES6_, symObjAddr: 0x12ADC, symBinAddr: 0x100015DEC, symSize: 0x24 }
  - { offsetInCU: 0x30E8B, offset: 0x30E8B, size: 0x8, addend: 0x0, symName: __ZNSt3__112__to_addressB7v160006IKiEEPT_S3_, symObjAddr: 0x12B94, symBinAddr: 0x100015EA4, symSize: 0x14 }
  - { offsetInCU: 0x30EBF, offset: 0x30EBF, size: 0x8, addend: 0x0, symName: __ZNSt3__119__copy_trivial_implB7v160006IKiiEENS_4pairIPT_PT0_EES4_S4_S6_, symObjAddr: 0x12BA8, symBinAddr: 0x100015EB8, symSize: 0x84 }
  - { offsetInCU: 0x30F27, offset: 0x30F27, size: 0x8, addend: 0x0, symName: __ZNSt3__19make_pairB7v160006IRPKiPiEENS_4pairINS_18__unwrap_ref_decayIT_E4typeENS6_IT0_E4typeEEEOS7_OSA_, symObjAddr: 0x12C2C, symBinAddr: 0x100015F3C, symSize: 0x38 }
  - { offsetInCU: 0x30FC9, offset: 0x30FC9, size: 0x8, addend: 0x0, symName: __ZNSt3__113__rewrap_iterB7v160006IPKiS2_NS_18__unwrap_iter_implIS2_Lb1EEEEET_S5_T0_, symObjAddr: 0x12D68, symBinAddr: 0x100016078, symSize: 0x3C }
  - { offsetInCU: 0x3101E, offset: 0x3101E, size: 0x8, addend: 0x0, symName: __ZNSt3__130__uninitialized_allocator_copyB7v160006INS_9allocatorIiEEiiLPv0EEEPT0_RT_PKS4_S9_S5_, symObjAddr: 0x12E44, symBinAddr: 0x100016154, symSize: 0x38 }
  - { offsetInCU: 0x31097, offset: 0x31097, size: 0x8, addend: 0x0, symName: __ZNSt3__13maxB7v160006ImEERKT_S3_S3_, symObjAddr: 0x12F98, symBinAddr: 0x1000162A8, symSize: 0x2C }
  - { offsetInCU: 0x310DA, offset: 0x310DA, size: 0x8, addend: 0x0, symName: __ZNSt3__13maxB7v160006ImNS_6__lessImmEEEERKT_S5_S5_T0_, symObjAddr: 0x12FC4, symBinAddr: 0x1000162D4, symSize: 0x54 }
  - { offsetInCU: 0x31134, offset: 0x31134, size: 0x8, addend: 0x0, symName: __ZNSt3__119__allocate_at_leastB7v160006INS_9allocatorINS_6vectorIiNS1_IiEEEEEEEENS_19__allocation_resultINS_16allocator_traitsIT_E7pointerEEERS8_m, symObjAddr: 0x138F4, symBinAddr: 0x100016C04, symSize: 0x40 }
  - { offsetInCU: 0x31177, offset: 0x31177, size: 0x8, addend: 0x0, symName: __ZNSt3__142__uninitialized_allocator_move_if_noexceptB7v160006INS_9allocatorINS_6vectorIiNS1_IiEEEEEENS_16reverse_iteratorIPS4_EES8_S8_EET2_RT_T0_T1_S9_, symObjAddr: 0x13B80, symBinAddr: 0x100016E90, symSize: 0x12C }
  - { offsetInCU: 0x31218, offset: 0x31218, size: 0x8, addend: 0x0, symName: __ZNSt3__14swapB7v160006IPNS_6vectorIiNS_9allocatorIiEEEEEENS_9enable_ifIXaasr21is_move_constructibleIT_EE5valuesr18is_move_assignableIS7_EE5valueEvE4typeERS7_SA_, symObjAddr: 0x13CF8, symBinAddr: 0x100017008, symSize: 0x3C }
  - { offsetInCU: 0x31269, offset: 0x31269, size: 0x8, addend: 0x0, symName: __ZNSt3__125__debug_db_invalidate_allB7v160006INS_6vectorINS1_IiNS_9allocatorIiEEEENS2_IS4_EEEEEEvPT_, symObjAddr: 0x13DFC, symBinAddr: 0x10001710C, symSize: 0x10 }
  - { offsetInCU: 0x3129A, offset: 0x3129A, size: 0x8, addend: 0x0, symName: __ZNSt3__122__make_exception_guardB7v160006INS_29_AllocatorDestroyRangeReverseINS_9allocatorINS_6vectorIiNS2_IiEEEEEENS_16reverse_iteratorIPS5_EEEEEENS_28__exception_guard_exceptionsIT_EESC_, symObjAddr: 0x13E0C, symBinAddr: 0x10001711C, symSize: 0x4C }
  - { offsetInCU: 0x312D0, offset: 0x312D0, size: 0x8, addend: 0x0, symName: __ZNSt3__1neB7v160006IPNS_6vectorIiNS_9allocatorIiEEEES5_EEbRKNS_16reverse_iteratorIT_EERKNS6_IT0_EE, symObjAddr: 0x13E9C, symBinAddr: 0x1000171AC, symSize: 0x48 }
  - { offsetInCU: 0x3131C, offset: 0x3131C, size: 0x8, addend: 0x0, symName: __ZNSt3__112__to_addressB7v160006INS_16reverse_iteratorIPNS_6vectorIiNS_9allocatorIiEEEEEEvEENS_5decayIDTclsr19__to_address_helperIT_EE6__callclsr3stdE7declvalIRKS9_EEEEE4typeESB_, symObjAddr: 0x13F18, symBinAddr: 0x100017228, symSize: 0x24 }
  - { offsetInCU: 0x31353, offset: 0x31353, size: 0x8, addend: 0x0, symName: __ZNSt3__115__debug_db_swapB7v160006INS_6vectorIiNS_9allocatorIiEEEEEEvPT_S6_, symObjAddr: 0x141A8, symBinAddr: 0x1000174B8, symSize: 0x14 }
  - { offsetInCU: 0x313BC, offset: 0x313BC, size: 0x8, addend: 0x0, symName: __ZNSt3__119__allocator_destroyB7v160006INS_9allocatorINS_6vectorIiNS1_IiEEEEEENS_16reverse_iteratorINS6_IPS4_EEEES9_EEvRT_T0_T1_, symObjAddr: 0x1431C, symBinAddr: 0x10001762C, symSize: 0x70 }
  - { offsetInCU: 0x31421, offset: 0x31421, size: 0x8, addend: 0x0, symName: __ZNSt3__1neB7v160006INS_16reverse_iteratorIPNS_6vectorIiNS_9allocatorIiEEEEEES7_EEbRKNS1_IT_EERKNS1_IT0_EE, symObjAddr: 0x143C8, symBinAddr: 0x1000176D8, symSize: 0x60 }
  - { offsetInCU: 0x3146D, offset: 0x3146D, size: 0x8, addend: 0x0, symName: __ZNSt3__112__to_addressB7v160006INS_16reverse_iteratorINS1_IPNS_6vectorIiNS_9allocatorIiEEEEEEEEvEENS_5decayIDTclsr19__to_address_helperIT_EE6__callclsr3stdE7declvalIRKSA_EEEEE4typeESC_, symObjAddr: 0x14428, symBinAddr: 0x100017738, symSize: 0x24 }
  - { offsetInCU: 0x314CD, offset: 0x314CD, size: 0x8, addend: 0x0, symName: __ZNSt3__142__uninitialized_allocator_move_if_noexceptB7v160006INS_9allocatorIiEENS_16reverse_iteratorIPiEES5_ivEET1_RT_T0_S9_S6_, symObjAddr: 0x14FF0, symBinAddr: 0x100018300, symSize: 0x78 }
  - { offsetInCU: 0x3154C, offset: 0x3154C, size: 0x8, addend: 0x0, symName: __ZNSt3__14swapB7v160006IPiEENS_9enable_ifIXaasr21is_move_constructibleIT_EE5valuesr18is_move_assignableIS3_EE5valueEvE4typeERS3_S6_, symObjAddr: 0x15068, symBinAddr: 0x100018378, symSize: 0x3C }
  - { offsetInCU: 0x3159C, offset: 0x3159C, size: 0x8, addend: 0x0, symName: __ZNSt3__14moveB7v160006INS_16reverse_iteratorIPiEES3_EET0_T_S5_S4_, symObjAddr: 0x150A4, symBinAddr: 0x1000183B4, symSize: 0x78 }
  - { offsetInCU: 0x315F6, offset: 0x315F6, size: 0x8, addend: 0x0, symName: __ZNSt3__16__moveB7v160006INS_17_ClassicAlgPolicyENS_16reverse_iteratorIPiEES4_S4_EENS_4pairIT0_T2_EES6_T1_S7_, symObjAddr: 0x1511C, symBinAddr: 0x10001842C, symSize: 0x64 }
  - { offsetInCU: 0x31662, offset: 0x31662, size: 0x8, addend: 0x0, symName: __ZNSt3__123__dispatch_copy_or_moveB7v160006INS_17_ClassicAlgPolicyENS_11__move_loopIS1_EENS_14__move_trivialENS_16reverse_iteratorIPiEES7_S7_EENS_4pairIT2_T4_EES9_T3_SA_, symObjAddr: 0x15180, symBinAddr: 0x100018490, symSize: 0x64 }
  - { offsetInCU: 0x316E0, offset: 0x316E0, size: 0x8, addend: 0x0, symName: __ZNSt3__121__unwrap_and_dispatchB7v160006INS_10__overloadINS_11__move_loopINS_17_ClassicAlgPolicyEEENS_14__move_trivialEEENS_16reverse_iteratorIPiEES9_S9_Li0EEENS_4pairIT0_T2_EESB_T1_SC_, symObjAddr: 0x151E4, symBinAddr: 0x1000184F4, symSize: 0x12C }
  - { offsetInCU: 0x31770, offset: 0x31770, size: 0x8, addend: 0x0, symName: __ZNSt3__114__unwrap_rangeB7v160006INS_16reverse_iteratorIPiEES3_EENS_4pairIT0_S5_EET_S7_, symObjAddr: 0x15310, symBinAddr: 0x100018620, symSize: 0x84 }
  - { offsetInCU: 0x31969, offset: 0x31969, size: 0x8, addend: 0x0, symName: __ZNSt3__113__unwrap_iterB7v160006INS_16reverse_iteratorIPiEENS_18__unwrap_iter_implIS3_Lb0EEELi0EEEDTclsrT0_8__unwrapclsr3stdE7declvalIT_EEEES7_, symObjAddr: 0x15434, symBinAddr: 0x100018744, symSize: 0x44 }
  - { offsetInCU: 0x319AD, offset: 0x319AD, size: 0x8, addend: 0x0, symName: __ZNSt3__19make_pairB7v160006INS_16reverse_iteratorIPiEES3_EENS_4pairINS_18__unwrap_ref_decayIT_E4typeENS5_IT0_E4typeEEEOS6_OS9_, symObjAddr: 0x15478, symBinAddr: 0x100018788, symSize: 0x38 }
  - { offsetInCU: 0x319FC, offset: 0x319FC, size: 0x8, addend: 0x0, symName: __ZNSt3__114__rewrap_rangeB7v160006INS_16reverse_iteratorIPiEES3_EET_S4_T0_, symObjAddr: 0x154B0, symBinAddr: 0x1000187C0, symSize: 0x5C }
  - { offsetInCU: 0x31A48, offset: 0x31A48, size: 0x8, addend: 0x0, symName: __ZNSt3__113__rewrap_iterB7v160006INS_16reverse_iteratorIPiEES3_NS_18__unwrap_iter_implIS3_Lb0EEEEET_S6_T0_, symObjAddr: 0x1550C, symBinAddr: 0x10001881C, symSize: 0x74 }
  - { offsetInCU: 0x31BB5, offset: 0x31BB5, size: 0x8, addend: 0x0, symName: __ZNSt3__119__allocate_at_leastB7v160006INS_9allocatorI3RGBEEEENS_19__allocation_resultINS_16allocator_traitsIT_E7pointerEEERS6_m, symObjAddr: 0x16128, symBinAddr: 0x100019438, symSize: 0x40 }
  - { offsetInCU: 0x31BF8, offset: 0x31BF8, size: 0x8, addend: 0x0, symName: __ZNSt3__142__uninitialized_allocator_move_if_noexceptB7v160006INS_9allocatorI3RGBEENS_16reverse_iteratorIPS2_EES6_S2_vEET1_RT_T0_SA_S7_, symObjAddr: 0x163B4, symBinAddr: 0x1000196C4, symSize: 0x78 }
  - { offsetInCU: 0x31C77, offset: 0x31C77, size: 0x8, addend: 0x0, symName: __ZNSt3__14swapB7v160006IP3RGBEENS_9enable_ifIXaasr21is_move_constructibleIT_EE5valuesr18is_move_assignableIS4_EE5valueEvE4typeERS4_S7_, symObjAddr: 0x16478, symBinAddr: 0x100019788, symSize: 0x3C }
  - { offsetInCU: 0x31CC8, offset: 0x31CC8, size: 0x8, addend: 0x0, symName: __ZNSt3__125__debug_db_invalidate_allB7v160006INS_6vectorI3RGBNS_9allocatorIS2_EEEEEEvPT_, symObjAddr: 0x1657C, symBinAddr: 0x10001988C, symSize: 0x10 }
  - { offsetInCU: 0x31CF9, offset: 0x31CF9, size: 0x8, addend: 0x0, symName: __ZNSt3__14moveB7v160006INS_16reverse_iteratorIP3RGBEES4_EET0_T_S6_S5_, symObjAddr: 0x1658C, symBinAddr: 0x10001989C, symSize: 0x78 }
  - { offsetInCU: 0x31D53, offset: 0x31D53, size: 0x8, addend: 0x0, symName: __ZNSt3__16__moveB7v160006INS_17_ClassicAlgPolicyENS_16reverse_iteratorIP3RGBEES5_S5_EENS_4pairIT0_T2_EES7_T1_S8_, symObjAddr: 0x16604, symBinAddr: 0x100019914, symSize: 0x64 }
  - { offsetInCU: 0x31DBF, offset: 0x31DBF, size: 0x8, addend: 0x0, symName: __ZNSt3__123__dispatch_copy_or_moveB7v160006INS_17_ClassicAlgPolicyENS_11__move_loopIS1_EENS_14__move_trivialENS_16reverse_iteratorIP3RGBEES8_S8_EENS_4pairIT2_T4_EESA_T3_SB_, symObjAddr: 0x16668, symBinAddr: 0x100019978, symSize: 0x64 }
  - { offsetInCU: 0x31E3D, offset: 0x31E3D, size: 0x8, addend: 0x0, symName: __ZNSt3__121__unwrap_and_dispatchB7v160006INS_10__overloadINS_11__move_loopINS_17_ClassicAlgPolicyEEENS_14__move_trivialEEENS_16reverse_iteratorIP3RGBEESA_SA_Li0EEENS_4pairIT0_T2_EESC_T1_SD_, symObjAddr: 0x166CC, symBinAddr: 0x1000199DC, symSize: 0x12C }
  - { offsetInCU: 0x31ECD, offset: 0x31ECD, size: 0x8, addend: 0x0, symName: __ZNSt3__114__unwrap_rangeB7v160006INS_16reverse_iteratorIP3RGBEES4_EENS_4pairIT0_S6_EET_S8_, symObjAddr: 0x167F8, symBinAddr: 0x100019B08, symSize: 0x84 }
  - { offsetInCU: 0x31FED, offset: 0x31FED, size: 0x8, addend: 0x0, symName: __ZNSt3__113__unwrap_iterB7v160006INS_16reverse_iteratorIP3RGBEENS_18__unwrap_iter_implIS4_Lb0EEELi0EEEDTclsrT0_8__unwrapclsr3stdE7declvalIT_EEEES8_, symObjAddr: 0x16924, symBinAddr: 0x100019C34, symSize: 0x44 }
  - { offsetInCU: 0x32031, offset: 0x32031, size: 0x8, addend: 0x0, symName: __ZNSt3__19make_pairB7v160006INS_16reverse_iteratorIP3RGBEES4_EENS_4pairINS_18__unwrap_ref_decayIT_E4typeENS6_IT0_E4typeEEEOS7_OSA_, symObjAddr: 0x16968, symBinAddr: 0x100019C78, symSize: 0x38 }
  - { offsetInCU: 0x32080, offset: 0x32080, size: 0x8, addend: 0x0, symName: __ZNSt3__114__rewrap_rangeB7v160006INS_16reverse_iteratorIP3RGBEES4_EET_S5_T0_, symObjAddr: 0x169A0, symBinAddr: 0x100019CB0, symSize: 0x5C }
  - { offsetInCU: 0x320CC, offset: 0x320CC, size: 0x8, addend: 0x0, symName: __ZNSt3__113__rewrap_iterB7v160006INS_16reverse_iteratorIP3RGBEES4_NS_18__unwrap_iter_implIS4_Lb0EEEEET_S7_T0_, symObjAddr: 0x169FC, symBinAddr: 0x100019D0C, symSize: 0x74 }
  - { offsetInCU: 0x32121, offset: 0x32121, size: 0x8, addend: 0x0, symName: __ZNSt3__1neB7v160006IP3RGBS2_EEbRKNS_16reverse_iteratorIT_EERKNS3_IT0_EE, symObjAddr: 0x16A70, symBinAddr: 0x100019D80, symSize: 0x48 }
  - { offsetInCU: 0x321D9, offset: 0x321D9, size: 0x8, addend: 0x0, symName: __ZNSt3__119__allocate_at_leastB7v160006INS_9allocatorINS_6bitsetILm1EEEEEEENS_19__allocation_resultINS_16allocator_traitsIT_E7pointerEEERS7_m, symObjAddr: 0x177CC, symBinAddr: 0x10001AADC, symSize: 0x40 }
  - { offsetInCU: 0x3221C, offset: 0x3221C, size: 0x8, addend: 0x0, symName: __ZNSt3__142__uninitialized_allocator_move_if_noexceptB7v160006INS_9allocatorINS_6bitsetILm1EEEEENS_16reverse_iteratorIPS3_EES7_S3_vEET1_RT_T0_SB_S8_, symObjAddr: 0x17A4C, symBinAddr: 0x10001AD5C, symSize: 0x78 }
  - { offsetInCU: 0x3229B, offset: 0x3229B, size: 0x8, addend: 0x0, symName: __ZNSt3__14swapB7v160006IPNS_6bitsetILm1EEEEENS_9enable_ifIXaasr21is_move_constructibleIT_EE5valuesr18is_move_assignableIS5_EE5valueEvE4typeERS5_S8_, symObjAddr: 0x17B10, symBinAddr: 0x10001AE20, symSize: 0x3C }
  - { offsetInCU: 0x322EC, offset: 0x322EC, size: 0x8, addend: 0x0, symName: __ZNSt3__125__debug_db_invalidate_allB7v160006INS_6vectorINS_6bitsetILm1EEENS_9allocatorIS3_EEEEEEvPT_, symObjAddr: 0x17BF8, symBinAddr: 0x10001AF08, symSize: 0x10 }
  - { offsetInCU: 0x3231D, offset: 0x3231D, size: 0x8, addend: 0x0, symName: __ZNSt3__14moveB7v160006INS_16reverse_iteratorIPNS_6bitsetILm1EEEEES5_EET0_T_S7_S6_, symObjAddr: 0x17C08, symBinAddr: 0x10001AF18, symSize: 0x78 }
  - { offsetInCU: 0x32377, offset: 0x32377, size: 0x8, addend: 0x0, symName: __ZNSt3__16__moveB7v160006INS_17_ClassicAlgPolicyENS_16reverse_iteratorIPNS_6bitsetILm1EEEEES6_S6_EENS_4pairIT0_T2_EES8_T1_S9_, symObjAddr: 0x17C80, symBinAddr: 0x10001AF90, symSize: 0x64 }
  - { offsetInCU: 0x323E3, offset: 0x323E3, size: 0x8, addend: 0x0, symName: __ZNSt3__123__dispatch_copy_or_moveB7v160006INS_17_ClassicAlgPolicyENS_11__move_loopIS1_EENS_14__move_trivialENS_16reverse_iteratorIPNS_6bitsetILm1EEEEES9_S9_EENS_4pairIT2_T4_EESB_T3_SC_, symObjAddr: 0x17CE4, symBinAddr: 0x10001AFF4, symSize: 0x64 }
  - { offsetInCU: 0x32461, offset: 0x32461, size: 0x8, addend: 0x0, symName: __ZNSt3__121__unwrap_and_dispatchB7v160006INS_10__overloadINS_11__move_loopINS_17_ClassicAlgPolicyEEENS_14__move_trivialEEENS_16reverse_iteratorIPNS_6bitsetILm1EEEEESB_SB_Li0EEENS_4pairIT0_T2_EESD_T1_SE_, symObjAddr: 0x17D48, symBinAddr: 0x10001B058, symSize: 0x12C }
  - { offsetInCU: 0x324F1, offset: 0x324F1, size: 0x8, addend: 0x0, symName: __ZNSt3__114__unwrap_rangeB7v160006INS_16reverse_iteratorIPNS_6bitsetILm1EEEEES5_EENS_4pairIT0_S7_EET_S9_, symObjAddr: 0x17E74, symBinAddr: 0x10001B184, symSize: 0x84 }
  - { offsetInCU: 0x32611, offset: 0x32611, size: 0x8, addend: 0x0, symName: __ZNSt3__113__unwrap_iterB7v160006INS_16reverse_iteratorIPNS_6bitsetILm1EEEEENS_18__unwrap_iter_implIS5_Lb0EEELi0EEEDTclsrT0_8__unwrapclsr3stdE7declvalIT_EEEES9_, symObjAddr: 0x17F98, symBinAddr: 0x10001B2A8, symSize: 0x44 }
  - { offsetInCU: 0x32655, offset: 0x32655, size: 0x8, addend: 0x0, symName: __ZNSt3__19make_pairB7v160006INS_16reverse_iteratorIPNS_6bitsetILm1EEEEES5_EENS_4pairINS_18__unwrap_ref_decayIT_E4typeENS7_IT0_E4typeEEEOS8_OSB_, symObjAddr: 0x17FDC, symBinAddr: 0x10001B2EC, symSize: 0x38 }
  - { offsetInCU: 0x326A4, offset: 0x326A4, size: 0x8, addend: 0x0, symName: __ZNSt3__114__rewrap_rangeB7v160006INS_16reverse_iteratorIPNS_6bitsetILm1EEEEES5_EET_S6_T0_, symObjAddr: 0x18014, symBinAddr: 0x10001B324, symSize: 0x5C }
  - { offsetInCU: 0x326F0, offset: 0x326F0, size: 0x8, addend: 0x0, symName: __ZNSt3__113__rewrap_iterB7v160006INS_16reverse_iteratorIPNS_6bitsetILm1EEEEES5_NS_18__unwrap_iter_implIS5_Lb0EEEEET_S8_T0_, symObjAddr: 0x18070, symBinAddr: 0x10001B380, symSize: 0x74 }
  - { offsetInCU: 0x32745, offset: 0x32745, size: 0x8, addend: 0x0, symName: __ZNSt3__1neB7v160006IPNS_6bitsetILm1EEES3_EEbRKNS_16reverse_iteratorIT_EERKNS4_IT0_EE, symObjAddr: 0x180E4, symBinAddr: 0x10001B3F4, symSize: 0x48 }
  - { offsetInCU: 0x327FD, offset: 0x327FD, size: 0x8, addend: 0x0, symName: __ZNSt3__14copyB7v160006INS_6vectorIbNS_9allocatorIbEEEELb1EEENS_14__bit_iteratorIT_Lb0EXLi0EEEENS5_IS6_XT0_EXLi0EEEES8_S7_, symObjAddr: 0x18808, symBinAddr: 0x10001BB18, symSize: 0xD4 }
  - { offsetInCU: 0x3285D, offset: 0x3285D, size: 0x8, addend: 0x0, symName: __ZNSt3__16fill_nB7v160006INS_6vectorIbNS_9allocatorIbEEEEEEvNS_14__bit_iteratorIT_Lb0EXLi0EEEENS6_9size_typeEb, symObjAddr: 0x189D0, symBinAddr: 0x10001BCE0, symSize: 0x94 }
  - { offsetInCU: 0x328CD, offset: 0x328CD, size: 0x8, addend: 0x0, symName: __ZNSt3__125__debug_db_invalidate_allB7v160006INS_6vectorIbNS_9allocatorIbEEEEEEvPT_, symObjAddr: 0x18FE4, symBinAddr: 0x10001C2F4, symSize: 0x10 }
  - { offsetInCU: 0x328FE, offset: 0x328FE, size: 0x8, addend: 0x0, symName: __ZNSt3__119__allocate_at_leastB7v160006INS_9allocatorImEEEENS_19__allocation_resultINS_16allocator_traitsIT_E7pointerEEERS5_m, symObjAddr: 0x19048, symBinAddr: 0x10001C358, symSize: 0x40 }
  - { offsetInCU: 0x32941, offset: 0x32941, size: 0x8, addend: 0x0, symName: __ZNSt3__18distanceB7v160006INS_14__bit_iteratorINS_6vectorIbNS_9allocatorIbEEEELb0ELm0EEEEENS_15iterator_traitsIT_E15difference_typeES8_S8_, symObjAddr: 0x19104, symBinAddr: 0x10001C414, symSize: 0x5C }
  - { offsetInCU: 0x32986, offset: 0x32986, size: 0x8, addend: 0x0, symName: __ZNSt3__14copyB7v160006INS_6vectorIbNS_9allocatorIbEEEELb0EEENS_14__bit_iteratorIT_Lb0EXLi0EEEENS5_IS6_XT0_EXLi0EEEES8_S7_, symObjAddr: 0x19160, symBinAddr: 0x10001C470, symSize: 0xE8 }
  - { offsetInCU: 0x329E8, offset: 0x329E8, size: 0x8, addend: 0x0, symName: __ZNSt3__110__distanceB7v160006INS_14__bit_iteratorINS_6vectorIbNS_9allocatorIbEEEELb0ELm0EEEEENS_15iterator_traitsIT_E15difference_typeES8_S8_NS_26random_access_iterator_tagE, symObjAddr: 0x192AC, symBinAddr: 0x10001C5BC, symSize: 0x38 }
  - { offsetInCU: 0x32A38, offset: 0x32A38, size: 0x8, addend: 0x0, symName: __ZNSt3__1miB7v160006ERKNS_14__bit_iteratorINS_6vectorIbNS_9allocatorIbEEEELb0ELm0EEES7_, symObjAddr: 0x192E4, symBinAddr: 0x10001C5F4, symSize: 0x48 }
  - { offsetInCU: 0x32A74, offset: 0x32A74, size: 0x8, addend: 0x0, symName: __ZNSt3__13minB7v160006IlEERKT_S3_S3_, symObjAddr: 0x19AE4, symBinAddr: 0x10001CDF4, symSize: 0x2C }
  - { offsetInCU: 0x32AB7, offset: 0x32AB7, size: 0x8, addend: 0x0, symName: __ZNSt3__13minB7v160006IlNS_6__lessIllEEEERKT_S5_S5_T0_, symObjAddr: 0x19B54, symBinAddr: 0x10001CE64, symSize: 0x54 }
  - { offsetInCU: 0x32B4C, offset: 0x32B4C, size: 0x8, addend: 0x0, symName: __ZNSt3__14copyB7v160006IPmS1_EET0_T_S3_S2_, symObjAddr: 0x19BDC, symBinAddr: 0x10001CEEC, symSize: 0x40 }
  - { offsetInCU: 0x32BA6, offset: 0x32BA6, size: 0x8, addend: 0x0, symName: __ZNSt3__16__copyB7v160006INS_17_ClassicAlgPolicyEPmS2_S2_EENS_4pairIT0_T2_EES4_T1_S5_, symObjAddr: 0x19C1C, symBinAddr: 0x10001CF2C, symSize: 0x44 }
  - { offsetInCU: 0x32C12, offset: 0x32C12, size: 0x8, addend: 0x0, symName: __ZNSt3__123__dispatch_copy_or_moveB7v160006INS_17_ClassicAlgPolicyENS_11__copy_loopIS1_EENS_14__copy_trivialEPmS5_S5_EENS_4pairIT2_T4_EES7_T3_S8_, symObjAddr: 0x19C60, symBinAddr: 0x10001CF70, symSize: 0x44 }
  - { offsetInCU: 0x32C90, offset: 0x32C90, size: 0x8, addend: 0x0, symName: __ZNSt3__121__unwrap_and_dispatchB7v160006INS_10__overloadINS_11__copy_loopINS_17_ClassicAlgPolicyEEENS_14__copy_trivialEEEPmS7_S7_Li0EEENS_4pairIT0_T2_EES9_T1_SA_, symObjAddr: 0x19CA4, symBinAddr: 0x10001CFB4, symSize: 0xB4 }
  - { offsetInCU: 0x32D1E, offset: 0x32D1E, size: 0x8, addend: 0x0, symName: __ZNSt3__114__unwrap_rangeB7v160006IPmS1_EENS_4pairIT0_S3_EET_S5_, symObjAddr: 0x19D58, symBinAddr: 0x10001D068, symSize: 0x60 }
  - { offsetInCU: 0x32E6D, offset: 0x32E6D, size: 0x8, addend: 0x0, symName: __ZNSt3__113__unwrap_iterB7v160006IPmNS_18__unwrap_iter_implIS1_Lb1EEELi0EEEDTclsrT0_8__unwrapclsr3stdE7declvalIT_EEEES5_, symObjAddr: 0x19E00, symBinAddr: 0x10001D110, symSize: 0x24 }
  - { offsetInCU: 0x32EB1, offset: 0x32EB1, size: 0x8, addend: 0x0, symName: __ZNSt3__19make_pairB7v160006IPmS1_EENS_4pairINS_18__unwrap_ref_decayIT_E4typeENS3_IT0_E4typeEEEOS4_OS7_, symObjAddr: 0x19E24, symBinAddr: 0x10001D134, symSize: 0x38 }
  - { offsetInCU: 0x32F00, offset: 0x32F00, size: 0x8, addend: 0x0, symName: __ZNSt3__114__rewrap_rangeB7v160006IPmS1_EET_S2_T0_, symObjAddr: 0x19E5C, symBinAddr: 0x10001D16C, symSize: 0x2C }
  - { offsetInCU: 0x32F4C, offset: 0x32F4C, size: 0x8, addend: 0x0, symName: __ZNSt3__113__rewrap_iterB7v160006IPmS1_NS_18__unwrap_iter_implIS1_Lb1EEEEET_S4_T0_, symObjAddr: 0x19E88, symBinAddr: 0x10001D198, symSize: 0x3C }
  - { offsetInCU: 0x32FA1, offset: 0x32FA1, size: 0x8, addend: 0x0, symName: __ZNSt3__119__copy_trivial_implB7v160006ImmEENS_4pairIPT_PT0_EES3_S3_S5_, symObjAddr: 0x19EC4, symBinAddr: 0x10001D1D4, symSize: 0x84 }
  - { offsetInCU: 0x33009, offset: 0x33009, size: 0x8, addend: 0x0, symName: __ZNSt3__19make_pairB7v160006IRPmS1_EENS_4pairINS_18__unwrap_ref_decayIT_E4typeENS4_IT0_E4typeEEEOS5_OS8_, symObjAddr: 0x19F48, symBinAddr: 0x10001D258, symSize: 0x38 }
  - { offsetInCU: 0x330AC, offset: 0x330AC, size: 0x8, addend: 0x0, symName: __ZNSt3__1miB7v160006ERKNS_14__bit_iteratorINS_6vectorIbNS_9allocatorIbEEEELb1ELm0EEES7_, symObjAddr: 0x1A8E0, symBinAddr: 0x10001DBF0, symSize: 0x48 }
  - { offsetInCU: 0x330E9, offset: 0x330E9, size: 0x8, addend: 0x0, symName: __ZNSt3__112__to_addressB7v160006IKmEEPT_S3_, symObjAddr: 0x1A96C, symBinAddr: 0x10001DC7C, symSize: 0x14 }
  - { offsetInCU: 0x3311D, offset: 0x3311D, size: 0x8, addend: 0x0, symName: __ZNSt3__14copyB7v160006IPKmPmEET0_T_S5_S4_, symObjAddr: 0x1A980, symBinAddr: 0x10001DC90, symSize: 0x40 }
  - { offsetInCU: 0x33177, offset: 0x33177, size: 0x8, addend: 0x0, symName: __ZNSt3__16__copyB7v160006INS_17_ClassicAlgPolicyEPKmS3_PmEENS_4pairIT0_T2_EES6_T1_S7_, symObjAddr: 0x1A9C0, symBinAddr: 0x10001DCD0, symSize: 0x44 }
  - { offsetInCU: 0x331E3, offset: 0x331E3, size: 0x8, addend: 0x0, symName: __ZNSt3__123__dispatch_copy_or_moveB7v160006INS_17_ClassicAlgPolicyENS_11__copy_loopIS1_EENS_14__copy_trivialEPKmS6_PmEENS_4pairIT2_T4_EES9_T3_SA_, symObjAddr: 0x1AA04, symBinAddr: 0x10001DD14, symSize: 0x44 }
  - { offsetInCU: 0x33261, offset: 0x33261, size: 0x8, addend: 0x0, symName: __ZNSt3__121__unwrap_and_dispatchB7v160006INS_10__overloadINS_11__copy_loopINS_17_ClassicAlgPolicyEEENS_14__copy_trivialEEEPKmS8_PmLi0EEENS_4pairIT0_T2_EESB_T1_SC_, symObjAddr: 0x1AA48, symBinAddr: 0x10001DD58, symSize: 0xB4 }
  - { offsetInCU: 0x332EF, offset: 0x332EF, size: 0x8, addend: 0x0, symName: __ZNSt3__114__unwrap_rangeB7v160006IPKmS2_EENS_4pairIT0_S4_EET_S6_, symObjAddr: 0x1AAFC, symBinAddr: 0x10001DE0C, symSize: 0x60 }
  - { offsetInCU: 0x3343E, offset: 0x3343E, size: 0x8, addend: 0x0, symName: __ZNSt3__19make_pairB7v160006IPKmPmEENS_4pairINS_18__unwrap_ref_decayIT_E4typeENS5_IT0_E4typeEEEOS6_OS9_, symObjAddr: 0x1ABA4, symBinAddr: 0x10001DEB4, symSize: 0x38 }
  - { offsetInCU: 0x3348D, offset: 0x3348D, size: 0x8, addend: 0x0, symName: __ZNSt3__114__rewrap_rangeB7v160006IPKmS2_EET_S3_T0_, symObjAddr: 0x1ABDC, symBinAddr: 0x10001DEEC, symSize: 0x2C }
  - { offsetInCU: 0x334D9, offset: 0x334D9, size: 0x8, addend: 0x0, symName: __ZNSt3__19make_pairB7v160006IPKmS2_EENS_4pairINS_18__unwrap_ref_decayIT_E4typeENS4_IT0_E4typeEEEOS5_OS8_, symObjAddr: 0x1AC08, symBinAddr: 0x10001DF18, symSize: 0x38 }
  - { offsetInCU: 0x33528, offset: 0x33528, size: 0x8, addend: 0x0, symName: __ZNSt3__113__unwrap_iterB7v160006IPKmNS_18__unwrap_iter_implIS2_Lb1EEELi0EEEDTclsrT0_8__unwrapclsr3stdE7declvalIT_EEEES6_, symObjAddr: 0x1AC40, symBinAddr: 0x10001DF50, symSize: 0x24 }
  - { offsetInCU: 0x33693, offset: 0x33693, size: 0x8, addend: 0x0, symName: __ZNSt3__119__copy_trivial_implB7v160006IKmmEENS_4pairIPT_PT0_EES4_S4_S6_, symObjAddr: 0x1ACF8, symBinAddr: 0x10001E008, symSize: 0x84 }
  - { offsetInCU: 0x336FB, offset: 0x336FB, size: 0x8, addend: 0x0, symName: __ZNSt3__19make_pairB7v160006IRPKmPmEENS_4pairINS_18__unwrap_ref_decayIT_E4typeENS6_IT0_E4typeEEEOS7_OSA_, symObjAddr: 0x1AD7C, symBinAddr: 0x10001E08C, symSize: 0x38 }
  - { offsetInCU: 0x3374A, offset: 0x3374A, size: 0x8, addend: 0x0, symName: __ZNSt3__113__rewrap_iterB7v160006IPKmS2_NS_18__unwrap_iter_implIS2_Lb1EEEEET_S5_T0_, symObjAddr: 0x1AE94, symBinAddr: 0x10001E1A4, symSize: 0x3C }
  - { offsetInCU: 0x337A0, offset: 0x337A0, size: 0x8, addend: 0x0, symName: __ZNSt3__14swapB7v160006IPmEENS_9enable_ifIXaasr21is_move_constructibleIT_EE5valuesr18is_move_assignableIS3_EE5valueEvE4typeERS3_S6_, symObjAddr: 0x1AFE4, symBinAddr: 0x10001E2F4, symSize: 0x3C }
  - { offsetInCU: 0x337F1, offset: 0x337F1, size: 0x8, addend: 0x0, symName: __ZNSt3__14swapB7v160006ImEENS_9enable_ifIXaasr21is_move_constructibleIT_EE5valuesr18is_move_assignableIS2_EE5valueEvE4typeERS2_S5_, symObjAddr: 0x1B020, symBinAddr: 0x10001E330, symSize: 0x3C }
  - { offsetInCU: 0x33842, offset: 0x33842, size: 0x8, addend: 0x0, symName: __ZNSt3__116__swap_allocatorB7v160006INS_9allocatorImEEEEvRT_S4_NS_17integral_constantIbLb0EEE, symObjAddr: 0x1B05C, symBinAddr: 0x10001E36C, symSize: 0x14 }
  - { offsetInCU: 0x33883, offset: 0x33883, size: 0x8, addend: 0x0, symName: __ZNSt3__16fill_nB7v160006IPmmmEET_S2_T0_RKT1_, symObjAddr: 0x1B32C, symBinAddr: 0x10001E63C, symSize: 0x44 }
  - { offsetInCU: 0x338E7, offset: 0x338E7, size: 0x8, addend: 0x0, symName: __ZNSt3__18__fill_nB7v160006IPmmmEET_S2_T0_RKT1_, symObjAddr: 0x1B370, symBinAddr: 0x10001E680, symSize: 0x64 }
  - { offsetInCU: 0x33949, offset: 0x33949, size: 0x8, addend: 0x0, symName: __ZNSt3__16fill_nB7v160006IPmmiEET_S2_T0_RKT1_, symObjAddr: 0x1B3D4, symBinAddr: 0x10001E6E4, symSize: 0x44 }
  - { offsetInCU: 0x339AD, offset: 0x339AD, size: 0x8, addend: 0x0, symName: __ZNSt3__18__fill_nB7v160006IPmmiEET_S2_T0_RKT1_, symObjAddr: 0x1B418, symBinAddr: 0x10001E728, symSize: 0x64 }
  - { offsetInCU: 0x33A10, offset: 0x33A10, size: 0x8, addend: 0x0, symName: __ZNSt3__1eqB7v160006ERKNS_14__bit_iteratorINS_6vectorIbNS_9allocatorIbEEEELb0ELm0EEES7_, symObjAddr: 0x1BFF4, symBinAddr: 0x10001F304, symSize: 0x64 }
  - { offsetInCU: 0x33A6B, offset: 0x33A6B, size: 0x8, addend: 0x0, symName: __ZNSt3__119__allocate_at_leastB7v160006INS_9allocatorINS_5tupleIJi9DirectionNS_6vectorIbNS1_IbEEEEEEEEEEENS_19__allocation_resultINS_16allocator_traitsIT_E7pointerEEERSB_m, symObjAddr: 0x1CB38, symBinAddr: 0x10001FE48, symSize: 0x40 }
  - { offsetInCU: 0x33AAE, offset: 0x33AAE, size: 0x8, addend: 0x0, symName: __ZNSt3__142__uninitialized_allocator_move_if_noexceptB7v160006INS_9allocatorINS_5tupleIJi9DirectionNS_6vectorIbNS1_IbEEEEEEEEENS_16reverse_iteratorIPS7_EESB_SB_EET2_RT_T0_T1_SC_, symObjAddr: 0x1CCEC, symBinAddr: 0x10001FFFC, symSize: 0x12C }
  - { offsetInCU: 0x33B4F, offset: 0x33B4F, size: 0x8, addend: 0x0, symName: __ZNSt3__14swapB7v160006IPNS_5tupleIJi9DirectionNS_6vectorIbNS_9allocatorIbEEEEEEEEENS_9enable_ifIXaasr21is_move_constructibleIT_EE5valuesr18is_move_assignableISA_EE5valueEvE4typeERSA_SD_, symObjAddr: 0x1CE64, symBinAddr: 0x100020174, symSize: 0x3C }
  - { offsetInCU: 0x33BA0, offset: 0x33BA0, size: 0x8, addend: 0x0, symName: __ZNSt3__125__debug_db_invalidate_allB7v160006INS_6vectorINS_5tupleIJi9DirectionNS1_IbNS_9allocatorIbEEEEEEENS4_IS7_EEEEEEvPT_, symObjAddr: 0x1CF4C, symBinAddr: 0x10002025C, symSize: 0x10 }
  - { offsetInCU: 0x33BD1, offset: 0x33BD1, size: 0x8, addend: 0x0, symName: __ZNSt3__122__make_exception_guardB7v160006INS_29_AllocatorDestroyRangeReverseINS_9allocatorINS_5tupleIJi9DirectionNS_6vectorIbNS2_IbEEEEEEEEENS_16reverse_iteratorIPS8_EEEEEENS_28__exception_guard_exceptionsIT_EESF_, symObjAddr: 0x1CF5C, symBinAddr: 0x10002026C, symSize: 0x4C }
  - { offsetInCU: 0x33C07, offset: 0x33C07, size: 0x8, addend: 0x0, symName: __ZNSt3__1neB7v160006IPNS_5tupleIJi9DirectionNS_6vectorIbNS_9allocatorIbEEEEEEES8_EEbRKNS_16reverse_iteratorIT_EERKNS9_IT0_EE, symObjAddr: 0x1CFEC, symBinAddr: 0x1000202FC, symSize: 0x48 }
  - { offsetInCU: 0x33C53, offset: 0x33C53, size: 0x8, addend: 0x0, symName: __ZNSt3__112__to_addressB7v160006INS_16reverse_iteratorIPNS_5tupleIJi9DirectionNS_6vectorIbNS_9allocatorIbEEEEEEEEEvEENS_5decayIDTclsr19__to_address_helperIT_EE6__callclsr3stdE7declvalIRKSC_EEEEE4typeESE_, symObjAddr: 0x1D068, symBinAddr: 0x100020378, symSize: 0x24 }
  - { offsetInCU: 0x33CB3, offset: 0x33CB3, size: 0x8, addend: 0x0, symName: __ZNSt3__119__allocator_destroyB7v160006INS_9allocatorINS_5tupleIJi9DirectionNS_6vectorIbNS1_IbEEEEEEEEENS_16reverse_iteratorINS9_IPS7_EEEESC_EEvRT_T0_T1_, symObjAddr: 0x1D510, symBinAddr: 0x100020820, symSize: 0x70 }
  - { offsetInCU: 0x33D18, offset: 0x33D18, size: 0x8, addend: 0x0, symName: __ZNSt3__1neB7v160006INS_16reverse_iteratorIPNS_5tupleIJi9DirectionNS_6vectorIbNS_9allocatorIbEEEEEEEEESA_EEbRKNS1_IT_EERKNS1_IT0_EE, symObjAddr: 0x1D5BC, symBinAddr: 0x1000208CC, symSize: 0x60 }
  - { offsetInCU: 0x33D64, offset: 0x33D64, size: 0x8, addend: 0x0, symName: __ZNSt3__112__to_addressB7v160006INS_16reverse_iteratorINS1_IPNS_5tupleIJi9DirectionNS_6vectorIbNS_9allocatorIbEEEEEEEEEEEvEENS_5decayIDTclsr19__to_address_helperIT_EE6__callclsr3stdE7declvalIRKSD_EEEEE4typeESF_, symObjAddr: 0x1D61C, symBinAddr: 0x10002092C, symSize: 0x24 }
  - { offsetInCU: 0x3419D, offset: 0x3419D, size: 0x8, addend: 0x0, symName: __ZNSt3__14swapB7v160006IPPiEENS_9enable_ifIXaasr21is_move_constructibleIT_EE5valuesr18is_move_assignableIS4_EE5valueEvE4typeERS4_S7_, symObjAddr: 0x1F418, symBinAddr: 0x100022728, symSize: 0x3C }
  - { offsetInCU: 0x341ED, offset: 0x341ED, size: 0x8, addend: 0x0, symName: __ZNSt3__14moveB7v160006IPPiS2_EET0_T_S4_S3_, symObjAddr: 0x1F4FC, symBinAddr: 0x10002280C, symSize: 0x40 }
  - { offsetInCU: 0x34247, offset: 0x34247, size: 0x8, addend: 0x0, symName: __ZNSt3__16__moveB7v160006INS_17_ClassicAlgPolicyEPPiS3_S3_EENS_4pairIT0_T2_EES5_T1_S6_, symObjAddr: 0x1F6A0, symBinAddr: 0x1000229B0, symSize: 0x44 }
  - { offsetInCU: 0x342B3, offset: 0x342B3, size: 0x8, addend: 0x0, symName: __ZNSt3__123__dispatch_copy_or_moveB7v160006INS_17_ClassicAlgPolicyENS_11__move_loopIS1_EENS_14__move_trivialEPPiS6_S6_EENS_4pairIT2_T4_EES8_T3_S9_, symObjAddr: 0x1F6E4, symBinAddr: 0x1000229F4, symSize: 0x44 }
  - { offsetInCU: 0x34331, offset: 0x34331, size: 0x8, addend: 0x0, symName: __ZNSt3__121__unwrap_and_dispatchB7v160006INS_10__overloadINS_11__move_loopINS_17_ClassicAlgPolicyEEENS_14__move_trivialEEEPPiS8_S8_Li0EEENS_4pairIT0_T2_EESA_T1_SB_, symObjAddr: 0x1F728, symBinAddr: 0x100022A38, symSize: 0xB4 }
  - { offsetInCU: 0x343BF, offset: 0x343BF, size: 0x8, addend: 0x0, symName: __ZNSt3__114__unwrap_rangeB7v160006IPPiS2_EENS_4pairIT0_S4_EET_S6_, symObjAddr: 0x1F7DC, symBinAddr: 0x100022AEC, symSize: 0x60 }
  - { offsetInCU: 0x345FB, offset: 0x345FB, size: 0x8, addend: 0x0, symName: __ZNSt3__113__unwrap_iterB7v160006IPPiNS_18__unwrap_iter_implIS2_Lb1EEELi0EEEDTclsrT0_8__unwrapclsr3stdE7declvalIT_EEEES6_, symObjAddr: 0x1F884, symBinAddr: 0x100022B94, symSize: 0x24 }
  - { offsetInCU: 0x3463F, offset: 0x3463F, size: 0x8, addend: 0x0, symName: __ZNSt3__19make_pairB7v160006IPPiS2_EENS_4pairINS_18__unwrap_ref_decayIT_E4typeENS4_IT0_E4typeEEEOS5_OS8_, symObjAddr: 0x1F8A8, symBinAddr: 0x100022BB8, symSize: 0x38 }
  - { offsetInCU: 0x3468E, offset: 0x3468E, size: 0x8, addend: 0x0, symName: __ZNSt3__114__rewrap_rangeB7v160006IPPiS2_EET_S3_T0_, symObjAddr: 0x1F8E0, symBinAddr: 0x100022BF0, symSize: 0x2C }
  - { offsetInCU: 0x346DA, offset: 0x346DA, size: 0x8, addend: 0x0, symName: __ZNSt3__113__rewrap_iterB7v160006IPPiS2_NS_18__unwrap_iter_implIS2_Lb1EEEEET_S5_T0_, symObjAddr: 0x1F90C, symBinAddr: 0x100022C1C, symSize: 0x3C }
  - { offsetInCU: 0x3472F, offset: 0x3472F, size: 0x8, addend: 0x0, symName: __ZNSt3__119__copy_trivial_implB7v160006IPiS1_EENS_4pairIPT_PT0_EES4_S4_S6_, symObjAddr: 0x1F948, symBinAddr: 0x100022C58, symSize: 0x84 }
  - { offsetInCU: 0x34797, offset: 0x34797, size: 0x8, addend: 0x0, symName: __ZNSt3__19make_pairB7v160006IRPPiS2_EENS_4pairINS_18__unwrap_ref_decayIT_E4typeENS5_IT0_E4typeEEEOS6_OS9_, symObjAddr: 0x1F9CC, symBinAddr: 0x100022CDC, symSize: 0x38 }
  - { offsetInCU: 0x34839, offset: 0x34839, size: 0x8, addend: 0x0, symName: __ZNSt3__18distanceB7v160006INS_13move_iteratorIPPiEEEENS_15iterator_traitsIT_E15difference_typeES6_S6_, symObjAddr: 0x1FB58, symBinAddr: 0x100022E68, symSize: 0x3C }
  - { offsetInCU: 0x3487C, offset: 0x3487C, size: 0x8, addend: 0x0, symName: __ZNSt3__110__distanceB7v160006INS_13move_iteratorIPPiEEEENS_15iterator_traitsIT_E15difference_typeES6_S6_NS_26random_access_iterator_tagE, symObjAddr: 0x1FC90, symBinAddr: 0x100022FA0, symSize: 0x30 }
  - { offsetInCU: 0x348C9, offset: 0x348C9, size: 0x8, addend: 0x0, symName: __ZNSt3__1miB7v160006IPPiS2_EEDTmicldtfp_4baseEcldtfp0_4baseEERKNS_13move_iteratorIT_EERKNS4_IT0_EE, symObjAddr: 0x1FCC0, symBinAddr: 0x100022FD0, symSize: 0x48 }
  - { offsetInCU: 0x34918, offset: 0x34918, size: 0x8, addend: 0x0, symName: __ZNSt3__113move_backwardB7v160006IPPiS2_EET0_T_S4_S3_, symObjAddr: 0x1FE34, symBinAddr: 0x100023144, symSize: 0x40 }
  - { offsetInCU: 0x34972, offset: 0x34972, size: 0x8, addend: 0x0, symName: __ZNSt3__115__move_backwardB7v160006INS_17_ClassicAlgPolicyEPPiS3_S3_EENS_4pairIT0_T2_EES5_T1_S6_, symObjAddr: 0x1FE74, symBinAddr: 0x100023184, symSize: 0x44 }
  - { offsetInCU: 0x349DE, offset: 0x349DE, size: 0x8, addend: 0x0, symName: __ZNSt3__123__dispatch_copy_or_moveB7v160006INS_17_ClassicAlgPolicyENS_20__move_backward_loopIS1_EENS_23__move_backward_trivialEPPiS6_S6_EENS_4pairIT2_T4_EES8_T3_S9_, symObjAddr: 0x1FEB8, symBinAddr: 0x1000231C8, symSize: 0x44 }
  - { offsetInCU: 0x34A5C, offset: 0x34A5C, size: 0x8, addend: 0x0, symName: __ZNSt3__121__unwrap_and_dispatchB7v160006INS_10__overloadINS_20__move_backward_loopINS_17_ClassicAlgPolicyEEENS_23__move_backward_trivialEEEPPiS8_S8_Li0EEENS_4pairIT0_T2_EESA_T1_SB_, symObjAddr: 0x1FEFC, symBinAddr: 0x10002320C, symSize: 0xB4 }
  - { offsetInCU: 0x34BA8, offset: 0x34BA8, size: 0x8, addend: 0x0, symName: __ZNSt3__128__copy_backward_trivial_implB7v160006IPiS1_EENS_4pairIPT_PT0_EES4_S4_S6_, symObjAddr: 0x1FFF8, symBinAddr: 0x100023308, symSize: 0x94 }
  - { offsetInCU: 0x34C10, offset: 0x34C10, size: 0x8, addend: 0x0, symName: __ZNSt3__19make_pairB7v160006IRPPiS3_EENS_4pairINS_18__unwrap_ref_decayIT_E4typeENS5_IT0_E4typeEEEOS6_OS9_, symObjAddr: 0x2008C, symBinAddr: 0x10002339C, symSize: 0x38 }
  - { offsetInCU: 0x34C5F, offset: 0x34C5F, size: 0x8, addend: 0x0, symName: __ZNSt3__119__allocate_at_leastB7v160006INS_9allocatorIPiEEEENS_19__allocation_resultINS_16allocator_traitsIT_E7pointerEEERS6_m, symObjAddr: 0x20244, symBinAddr: 0x100023554, symSize: 0x40 }
  - { offsetInCU: 0x34CC0, offset: 0x34CC0, size: 0x8, addend: 0x0, symName: __ZNSt3__127__tree_balance_after_insertB7v160006IPNS_16__tree_node_baseIPvEEEEvT_S5_, symObjAddr: 0x21664, symBinAddr: 0x100024974, symSize: 0x32C }
  - { offsetInCU: 0x34D3D, offset: 0x34D3D, size: 0x8, addend: 0x0, symName: __ZNSt3__120__tree_is_left_childB7v160006IPNS_16__tree_node_baseIPvEEEEbT_, symObjAddr: 0x219D0, symBinAddr: 0x100024CE0, symSize: 0x2C }
  - { offsetInCU: 0x34D71, offset: 0x34D71, size: 0x8, addend: 0x0, symName: __ZNSt3__118__tree_left_rotateB7v160006IPNS_16__tree_node_baseIPvEEEEvT_, symObjAddr: 0x219FC, symBinAddr: 0x100024D0C, symSize: 0xD8 }
  - { offsetInCU: 0x34DB3, offset: 0x34DB3, size: 0x8, addend: 0x0, symName: __ZNSt3__119__tree_right_rotateB7v160006IPNS_16__tree_node_baseIPvEEEEvT_, symObjAddr: 0x21AD4, symBinAddr: 0x100024DE4, symSize: 0xCC }
  - { offsetInCU: 0x34DF5, offset: 0x34DF5, size: 0x8, addend: 0x0, symName: __ZNSt3__122__make_exception_guardB7v160006INS_6vectorImNS_9allocatorImEEE16__destroy_vectorEEENS_28__exception_guard_exceptionsIT_EES7_, symObjAddr: 0x22844, symBinAddr: 0x100025B54, symSize: 0x40 }
  - { offsetInCU: 0x34E2B, offset: 0x34E2B, size: 0x8, addend: 0x0, symName: __ZNSt3__119__debug_db_insert_cB7v160006INS_6vectorImNS_9allocatorImEEEEEEvPT_, symObjAddr: 0x22884, symBinAddr: 0x100025B94, symSize: 0x10 }
  - { offsetInCU: 0x34E5D, offset: 0x34E5D, size: 0x8, addend: 0x0, symName: __ZNSt3__112__to_addressB7v160006INS_4pairIihEEEEPT_S4_, symObjAddr: 0x236D8, symBinAddr: 0x1000269E8, symSize: 0x14 }
  - { offsetInCU: 0x34E91, offset: 0x34E91, size: 0x8, addend: 0x0, symName: __ZNSt3__119__allocate_at_leastB7v160006INS_9allocatorINS_4pairIihEEEEEENS_19__allocation_resultINS_16allocator_traitsIT_E7pointerEEERS7_m, symObjAddr: 0x23D84, symBinAddr: 0x100027094, symSize: 0x40 }
  - { offsetInCU: 0x34ED4, offset: 0x34ED4, size: 0x8, addend: 0x0, symName: __ZNSt3__142__uninitialized_allocator_move_if_noexceptB7v160006INS_9allocatorINS_4pairIihEEEENS_16reverse_iteratorIPS3_EES7_S7_EET2_RT_T0_T1_S8_, symObjAddr: 0x2400C, symBinAddr: 0x10002731C, symSize: 0x12C }
  - { offsetInCU: 0x34F75, offset: 0x34F75, size: 0x8, addend: 0x0, symName: __ZNSt3__14swapB7v160006IPNS_4pairIihEEEENS_9enable_ifIXaasr21is_move_constructibleIT_EE5valuesr18is_move_assignableIS5_EE5valueEvE4typeERS5_S8_, symObjAddr: 0x24184, symBinAddr: 0x100027494, symSize: 0x3C }
  - { offsetInCU: 0x34FC6, offset: 0x34FC6, size: 0x8, addend: 0x0, symName: __ZNSt3__125__debug_db_invalidate_allB7v160006INS_6vectorINS_4pairIihEENS_9allocatorIS3_EEEEEEvPT_, symObjAddr: 0x2426C, symBinAddr: 0x10002757C, symSize: 0x10 }
  - { offsetInCU: 0x34FF7, offset: 0x34FF7, size: 0x8, addend: 0x0, symName: __ZNSt3__122__make_exception_guardB7v160006INS_29_AllocatorDestroyRangeReverseINS_9allocatorINS_4pairIihEEEENS_16reverse_iteratorIPS4_EEEEEENS_28__exception_guard_exceptionsIT_EESB_, symObjAddr: 0x242C4, symBinAddr: 0x1000275D4, symSize: 0x4C }
  - { offsetInCU: 0x3502D, offset: 0x3502D, size: 0x8, addend: 0x0, symName: __ZNSt3__1neB7v160006IPNS_4pairIihEES3_EEbRKNS_16reverse_iteratorIT_EERKNS4_IT0_EE, symObjAddr: 0x24354, symBinAddr: 0x100027664, symSize: 0x48 }
  - { offsetInCU: 0x35079, offset: 0x35079, size: 0x8, addend: 0x0, symName: __ZNSt3__112__to_addressB7v160006INS_16reverse_iteratorIPNS_4pairIihEEEEvEENS_5decayIDTclsr19__to_address_helperIT_EE6__callclsr3stdE7declvalIRKS7_EEEEE4typeES9_, symObjAddr: 0x243D0, symBinAddr: 0x1000276E0, symSize: 0x24 }
  - { offsetInCU: 0x350D9, offset: 0x350D9, size: 0x8, addend: 0x0, symName: __ZNSt3__119__allocator_destroyB7v160006INS_9allocatorINS_4pairIihEEEENS_16reverse_iteratorINS5_IPS3_EEEES8_EEvRT_T0_T1_, symObjAddr: 0x246A8, symBinAddr: 0x1000279B8, symSize: 0x70 }
  - { offsetInCU: 0x3513E, offset: 0x3513E, size: 0x8, addend: 0x0, symName: __ZNSt3__1neB7v160006INS_16reverse_iteratorIPNS_4pairIihEEEES5_EEbRKNS1_IT_EERKNS1_IT0_EE, symObjAddr: 0x24754, symBinAddr: 0x100027A64, symSize: 0x60 }
  - { offsetInCU: 0x3518A, offset: 0x3518A, size: 0x8, addend: 0x0, symName: __ZNSt3__112__to_addressB7v160006INS_16reverse_iteratorINS1_IPNS_4pairIihEEEEEEvEENS_5decayIDTclsr19__to_address_helperIT_EE6__callclsr3stdE7declvalIRKS8_EEEEE4typeESA_, symObjAddr: 0x247E0, symBinAddr: 0x100027AF0, symSize: 0x24 }
  - { offsetInCU: 0x351EB, offset: 0x351EB, size: 0x8, addend: 0x0, symName: __ZNSt3__119__debug_db_insert_cB7v160006INS_6vectorINS1_INS_4pairIihEENS_9allocatorIS3_EEEENS4_IS6_EEEEEEvPT_, symObjAddr: 0x24DFC, symBinAddr: 0x10002810C, symSize: 0x10 }
  - { offsetInCU: 0x3521D, offset: 0x3521D, size: 0x8, addend: 0x0, symName: __ZNSt3__118__debug_db_erase_cB7v160006INS_6vectorINS1_INS_4pairIihEENS_9allocatorIS3_EEEENS4_IS6_EEEEEEvPT_, symObjAddr: 0x250DC, symBinAddr: 0x1000283EC, symSize: 0x10 }
  - { offsetInCU: 0x3524F, offset: 0x3524F, size: 0x8, addend: 0x0, symName: __ZNSt3__112__to_addressB7v160006INS_6vectorINS_4pairIihEENS_9allocatorIS3_EEEEEEPT_S8_, symObjAddr: 0x25220, symBinAddr: 0x100028530, symSize: 0x14 }
  - { offsetInCU: 0x35284, offset: 0x35284, size: 0x8, addend: 0x0, symName: __ZNSt3__119__debug_db_insert_cB7v160006INS_6vectorINS_4pairIihEENS_9allocatorIS3_EEEEEEvPT_, symObjAddr: 0x25484, symBinAddr: 0x100028794, symSize: 0x10 }
  - { offsetInCU: 0x352B6, offset: 0x352B6, size: 0x8, addend: 0x0, symName: __ZNSt3__118__debug_db_erase_cB7v160006INS_6vectorINS_4pairIihEENS_9allocatorIS3_EEEEEEvPT_, symObjAddr: 0x25674, symBinAddr: 0x100028984, symSize: 0x10 }
  - { offsetInCU: 0x352E7, offset: 0x352E7, size: 0x8, addend: 0x0, symName: __ZNSt3__122__make_exception_guardB7v160006INS_6vectorINS_4pairIihEENS_9allocatorIS3_EEE16__destroy_vectorEEENS_28__exception_guard_exceptionsIT_EES9_, symObjAddr: 0x25BA8, symBinAddr: 0x100028EB8, symSize: 0x40 }
  - { offsetInCU: 0x3531C, offset: 0x3531C, size: 0x8, addend: 0x0, symName: __ZNSt3__130__uninitialized_allocator_copyB7v160006INS_9allocatorINS_4pairIihEEEEPS3_S5_S5_EET2_RT_T0_T1_S6_, symObjAddr: 0x25E1C, symBinAddr: 0x10002912C, symSize: 0xF4 }
  - { offsetInCU: 0x353BA, offset: 0x353BA, size: 0x8, addend: 0x0, symName: __ZNSt3__122__make_exception_guardB7v160006INS_29_AllocatorDestroyRangeReverseINS_9allocatorINS_4pairIihEEEEPS4_EEEENS_28__exception_guard_exceptionsIT_EES9_, symObjAddr: 0x25F10, symBinAddr: 0x100029220, symSize: 0x4C }
  - { offsetInCU: 0x353F0, offset: 0x353F0, size: 0x8, addend: 0x0, symName: __ZNSt3__119__allocator_destroyB7v160006INS_9allocatorINS_4pairIihEEEENS_16reverse_iteratorIPS3_EES7_EEvRT_T0_T1_, symObjAddr: 0x26198, symBinAddr: 0x1000294A8, symSize: 0x70 }
  - { offsetInCU: 0x35453, offset: 0x35453, size: 0x8, addend: 0x0, symName: __ZNSt3__119__allocate_at_leastB7v160006INS_9allocatorINS_6vectorINS_4pairIihEENS1_IS4_EEEEEEEENS_19__allocation_resultINS_16allocator_traitsIT_E7pointerEEERSA_m, symObjAddr: 0x266E8, symBinAddr: 0x1000299F8, symSize: 0x40 }
  - { offsetInCU: 0x35496, offset: 0x35496, size: 0x8, addend: 0x0, symName: __ZNSt3__142__uninitialized_allocator_move_if_noexceptB7v160006INS_9allocatorINS_6vectorINS_4pairIihEENS1_IS4_EEEEEENS_16reverse_iteratorIPS6_EESA_SA_EET2_RT_T0_T1_SB_, symObjAddr: 0x268A0, symBinAddr: 0x100029BB0, symSize: 0x12C }
  - { offsetInCU: 0x35537, offset: 0x35537, size: 0x8, addend: 0x0, symName: __ZNSt3__14swapB7v160006IPNS_6vectorINS_4pairIihEENS_9allocatorIS3_EEEEEENS_9enable_ifIXaasr21is_move_constructibleIT_EE5valuesr18is_move_assignableIS9_EE5valueEvE4typeERS9_SC_, symObjAddr: 0x26A18, symBinAddr: 0x100029D28, symSize: 0x3C }
  - { offsetInCU: 0x35588, offset: 0x35588, size: 0x8, addend: 0x0, symName: __ZNSt3__125__debug_db_invalidate_allB7v160006INS_6vectorINS1_INS_4pairIihEENS_9allocatorIS3_EEEENS4_IS6_EEEEEEvPT_, symObjAddr: 0x26B1C, symBinAddr: 0x100029E2C, symSize: 0x10 }
  - { offsetInCU: 0x355B9, offset: 0x355B9, size: 0x8, addend: 0x0, symName: __ZNSt3__122__make_exception_guardB7v160006INS_29_AllocatorDestroyRangeReverseINS_9allocatorINS_6vectorINS_4pairIihEENS2_IS5_EEEEEENS_16reverse_iteratorIPS7_EEEEEENS_28__exception_guard_exceptionsIT_EESE_, symObjAddr: 0x26B2C, symBinAddr: 0x100029E3C, symSize: 0x4C }
  - { offsetInCU: 0x355EF, offset: 0x355EF, size: 0x8, addend: 0x0, symName: __ZNSt3__1neB7v160006IPNS_6vectorINS_4pairIihEENS_9allocatorIS3_EEEES7_EEbRKNS_16reverse_iteratorIT_EERKNS8_IT0_EE, symObjAddr: 0x26BBC, symBinAddr: 0x100029ECC, symSize: 0x48 }
  - { offsetInCU: 0x3563B, offset: 0x3563B, size: 0x8, addend: 0x0, symName: __ZNSt3__112__to_addressB7v160006INS_16reverse_iteratorIPNS_6vectorINS_4pairIihEENS_9allocatorIS4_EEEEEEvEENS_5decayIDTclsr19__to_address_helperIT_EE6__callclsr3stdE7declvalIRKSB_EEEEE4typeESD_, symObjAddr: 0x26C38, symBinAddr: 0x100029F48, symSize: 0x24 }
  - { offsetInCU: 0x35672, offset: 0x35672, size: 0x8, addend: 0x0, symName: __ZNSt3__115__debug_db_swapB7v160006INS_6vectorINS_4pairIihEENS_9allocatorIS3_EEEEEEvPT_S8_, symObjAddr: 0x26EC8, symBinAddr: 0x10002A1D8, symSize: 0x14 }
  - { offsetInCU: 0x356DB, offset: 0x356DB, size: 0x8, addend: 0x0, symName: __ZNSt3__119__allocator_destroyB7v160006INS_9allocatorINS_6vectorINS_4pairIihEENS1_IS4_EEEEEENS_16reverse_iteratorINS8_IPS6_EEEESB_EEvRT_T0_T1_, symObjAddr: 0x2703C, symBinAddr: 0x10002A34C, symSize: 0x70 }
  - { offsetInCU: 0x35740, offset: 0x35740, size: 0x8, addend: 0x0, symName: __ZNSt3__1neB7v160006INS_16reverse_iteratorIPNS_6vectorINS_4pairIihEENS_9allocatorIS4_EEEEEES9_EEbRKNS1_IT_EERKNS1_IT0_EE, symObjAddr: 0x270E8, symBinAddr: 0x10002A3F8, symSize: 0x60 }
  - { offsetInCU: 0x3578C, offset: 0x3578C, size: 0x8, addend: 0x0, symName: __ZNSt3__112__to_addressB7v160006INS_16reverse_iteratorINS1_IPNS_6vectorINS_4pairIihEENS_9allocatorIS4_EEEEEEEEvEENS_5decayIDTclsr19__to_address_helperIT_EE6__callclsr3stdE7declvalIRKSC_EEEEE4typeESE_, symObjAddr: 0x27148, symBinAddr: 0x10002A458, symSize: 0x24 }
  - { offsetInCU: 0x357ED, offset: 0x357ED, size: 0x8, addend: 0x0, symName: __ZNSt3__119__debug_db_insert_cB7v160006INS_13unordered_mapI9DirectionNS_12basic_stringIcNS_11char_traitsIcEENS_9allocatorIcEEEENS_4hashIS2_EENS_8equal_toIS2_EENS6_INS_4pairIKS2_S8_EEEEEEEEvPT_, symObjAddr: 0x277F4, symBinAddr: 0x10002AB04, symSize: 0x10 }
  - { offsetInCU: 0x3581F, offset: 0x3581F, size: 0x8, addend: 0x0, symName: __ZNSt3__116__constrain_hashB7v160006Emm, symObjAddr: 0x2844C, symBinAddr: 0x10002B75C, symSize: 0x98 }
  - { offsetInCU: 0x35859, offset: 0x35859, size: 0x8, addend: 0x0, symName: __ZNSt3__116__is_hash_power2B7v160006Em, symObjAddr: 0x28780, symBinAddr: 0x10002BA90, symSize: 0x50 }
  - { offsetInCU: 0x358DC, offset: 0x358DC, size: 0x8, addend: 0x0, symName: __ZNSt3__17launderB7v160006IKNS_4pairIK9DirectionNS_12basic_stringIcNS_11char_traitsIcEENS_9allocatorIcEEEEEEEEPT_SD_, symObjAddr: 0x28B58, symBinAddr: 0x10002BE68, symSize: 0x24 }
  - { offsetInCU: 0x35914, offset: 0x35914, size: 0x8, addend: 0x0, symName: __ZNSt3__19__launderB7v160006IKNS_4pairIK9DirectionNS_12basic_stringIcNS_11char_traitsIcEENS_9allocatorIcEEEEEEEEPT_SD_, symObjAddr: 0x28B7C, symBinAddr: 0x10002BE8C, symSize: 0x14 }
  - { offsetInCU: 0x3599B, offset: 0x3599B, size: 0x8, addend: 0x0, symName: __ZNSt3__17launderB7v160006INS_4pairIK9DirectionNS_12basic_stringIcNS_11char_traitsIcEENS_9allocatorIcEEEEEEEEPT_SC_, symObjAddr: 0x28FE4, symBinAddr: 0x10002C2F4, symSize: 0x24 }
  - { offsetInCU: 0x359D3, offset: 0x359D3, size: 0x8, addend: 0x0, symName: __ZNSt3__19__launderB7v160006INS_4pairIK9DirectionNS_12basic_stringIcNS_11char_traitsIcEENS_9allocatorIcEEEEEEEEPT_SC_, symObjAddr: 0x29008, symBinAddr: 0x10002C318, symSize: 0x14 }
  - { offsetInCU: 0x35A09, offset: 0x35A09, size: 0x8, addend: 0x0, symName: __ZNSt3__116__next_hash_pow2B7v160006Em, symObjAddr: 0x294EC, symBinAddr: 0x10002C7FC, symSize: 0x6C }
  - { offsetInCU: 0x35A36, offset: 0x35A36, size: 0x8, addend: 0x0, symName: __ZNSt3__125__debug_db_invalidate_allB7v160006INS_12__hash_tableINS_17__hash_value_typeI9DirectionNS_12basic_stringIcNS_11char_traitsIcEENS_9allocatorIcEEEEEENS_22__unordered_map_hasherIS3_SA_NS_4hashIS3_EENS_8equal_toIS3_EELb1EEENS_21__unordered_map_equalIS3_SA_SF_SD_Lb1EEENS7_ISA_EEEEEEvPT_, symObjAddr: 0x29558, symBinAddr: 0x10002C868, symSize: 0x10 }
  - { offsetInCU: 0x35A68, offset: 0x35A68, size: 0x8, addend: 0x0, symName: __ZNSt3__112__libcpp_clzB7v160006Em, symObjAddr: 0x298A4, symBinAddr: 0x10002CBB4, symSize: 0x1C }
  - { offsetInCU: 0x35A94, offset: 0x35A94, size: 0x8, addend: 0x0, symName: __ZNSt3__118__debug_db_erase_cB7v160006INS_12__hash_tableINS_17__hash_value_typeI9DirectionNS_12basic_stringIcNS_11char_traitsIcEENS_9allocatorIcEEEEEENS_22__unordered_map_hasherIS3_SA_NS_4hashIS3_EENS_8equal_toIS3_EELb1EEENS_21__unordered_map_equalIS3_SA_SF_SD_Lb1EEENS7_ISA_EEEEEEvPT_, symObjAddr: 0x29C7C, symBinAddr: 0x10002CF8C, symSize: 0x10 }
  - { offsetInCU: 0x35AC5, offset: 0x35AC5, size: 0x8, addend: 0x0, symName: __ZNSt3__1neB7v160006ERKNS_21__hash_const_iteratorIPNS_11__hash_nodeINS_17__hash_value_typeI9DirectionNS_12basic_stringIcNS_11char_traitsIcEENS_9allocatorIcEEEEEEPvEEEESG_, symObjAddr: 0x2A0E0, symBinAddr: 0x10002D3F0, symSize: 0x34 }
  - { offsetInCU: 0x35B03, offset: 0x35B03, size: 0x8, addend: 0x0, symName: __ZNSt3__1eqB7v160006ERKNS_21__hash_const_iteratorIPNS_11__hash_nodeINS_17__hash_value_typeI9DirectionNS_12basic_stringIcNS_11char_traitsIcEENS_9allocatorIcEEEEEEPvEEEESG_, symObjAddr: 0x2A114, symBinAddr: 0x10002D424, symSize: 0x30 }
  - { offsetInCU: 0x35BA5, offset: 0x35BA5, size: 0x8, addend: 0x0, symName: __ZNSt3__18distanceB7v160006INS_14__bit_iteratorINS_6vectorIbNS_9allocatorIbEEEELb1ELm0EEEEENS_15iterator_traitsIT_E15difference_typeES8_S8_, symObjAddr: 0x2A400, symBinAddr: 0x10002D710, symSize: 0x4C }
  - { offsetInCU: 0x35BE8, offset: 0x35BE8, size: 0x8, addend: 0x0, symName: __ZNSt3__110__distanceB7v160006INS_14__bit_iteratorINS_6vectorIbNS_9allocatorIbEEEELb1ELm0EEEEENS_15iterator_traitsIT_E15difference_typeES8_S8_NS_26random_access_iterator_tagE, symObjAddr: 0x2A44C, symBinAddr: 0x10002D75C, symSize: 0x38 }
  - { offsetInCU: 0x35C36, offset: 0x35C36, size: 0x8, addend: 0x0, symName: __ZNSt3__120__throw_out_of_rangeB7v160006EPKc, symObjAddr: 0x2A484, symBinAddr: 0x10002D794, symSize: 0x64 }
  - { offsetInCU: 0x35C61, offset: 0x35C61, size: 0x8, addend: 0x0, symName: __ZNSt3__112__to_addressB7v160006INS_4pairIi9DirectionEEEEPT_S5_, symObjAddr: 0x2AAB0, symBinAddr: 0x10002DDC0, symSize: 0x14 }
  - { offsetInCU: 0x360EF, offset: 0x360EF, size: 0x8, addend: 0x0, symName: __ZNSt3__14swapB7v160006IPPNS_4pairIi9DirectionEEEENS_9enable_ifIXaasr21is_move_constructibleIT_EE5valuesr18is_move_assignableIS7_EE5valueEvE4typeERS7_SA_, symObjAddr: 0x2BE24, symBinAddr: 0x10002F134, symSize: 0x3C }
  - { offsetInCU: 0x3613F, offset: 0x3613F, size: 0x8, addend: 0x0, symName: __ZNSt3__14moveB7v160006IPPNS_4pairIi9DirectionEES5_EET0_T_S7_S6_, symObjAddr: 0x2BF08, symBinAddr: 0x10002F218, symSize: 0x40 }
  - { offsetInCU: 0x36199, offset: 0x36199, size: 0x8, addend: 0x0, symName: __ZNSt3__16__moveB7v160006INS_17_ClassicAlgPolicyEPPNS_4pairIi9DirectionEES6_S6_EENS2_IT0_T2_EES7_T1_S8_, symObjAddr: 0x2C0AC, symBinAddr: 0x10002F3BC, symSize: 0x44 }
  - { offsetInCU: 0x36205, offset: 0x36205, size: 0x8, addend: 0x0, symName: __ZNSt3__123__dispatch_copy_or_moveB7v160006INS_17_ClassicAlgPolicyENS_11__move_loopIS1_EENS_14__move_trivialEPPNS_4pairIi9DirectionEES9_S9_EENS5_IT2_T4_EESA_T3_SB_, symObjAddr: 0x2C0F0, symBinAddr: 0x10002F400, symSize: 0x44 }
  - { offsetInCU: 0x36283, offset: 0x36283, size: 0x8, addend: 0x0, symName: __ZNSt3__121__unwrap_and_dispatchB7v160006INS_10__overloadINS_11__move_loopINS_17_ClassicAlgPolicyEEENS_14__move_trivialEEEPPNS_4pairIi9DirectionEESB_SB_Li0EEENS7_IT0_T2_EESC_T1_SD_, symObjAddr: 0x2C134, symBinAddr: 0x10002F444, symSize: 0xB4 }
  - { offsetInCU: 0x36311, offset: 0x36311, size: 0x8, addend: 0x0, symName: __ZNSt3__114__unwrap_rangeB7v160006IPPNS_4pairIi9DirectionEES5_EENS1_IT0_S6_EET_S8_, symObjAddr: 0x2C1E8, symBinAddr: 0x10002F4F8, symSize: 0x60 }
  - { offsetInCU: 0x3648F, offset: 0x3648F, size: 0x8, addend: 0x0, symName: __ZNSt3__113__unwrap_iterB7v160006IPPNS_4pairIi9DirectionEENS_18__unwrap_iter_implIS5_Lb1EEELi0EEEDTclsrT0_8__unwrapclsr3stdE7declvalIT_EEEES9_, symObjAddr: 0x2C290, symBinAddr: 0x10002F5A0, symSize: 0x24 }
  - { offsetInCU: 0x364D3, offset: 0x364D3, size: 0x8, addend: 0x0, symName: __ZNSt3__19make_pairB7v160006IPPNS_4pairIi9DirectionEES5_EENS1_INS_18__unwrap_ref_decayIT_E4typeENS6_IT0_E4typeEEEOS7_OSA_, symObjAddr: 0x2C2B4, symBinAddr: 0x10002F5C4, symSize: 0x38 }
  - { offsetInCU: 0x36522, offset: 0x36522, size: 0x8, addend: 0x0, symName: __ZNSt3__114__rewrap_rangeB7v160006IPPNS_4pairIi9DirectionEES5_EET_S6_T0_, symObjAddr: 0x2C2EC, symBinAddr: 0x10002F5FC, symSize: 0x2C }
  - { offsetInCU: 0x3656E, offset: 0x3656E, size: 0x8, addend: 0x0, symName: __ZNSt3__113__rewrap_iterB7v160006IPPNS_4pairIi9DirectionEES5_NS_18__unwrap_iter_implIS5_Lb1EEEEET_S8_T0_, symObjAddr: 0x2C318, symBinAddr: 0x10002F628, symSize: 0x3C }
  - { offsetInCU: 0x365C3, offset: 0x365C3, size: 0x8, addend: 0x0, symName: __ZNSt3__119__copy_trivial_implB7v160006IPNS_4pairIi9DirectionEES4_EENS1_IPT_PT0_EES6_S6_S8_, symObjAddr: 0x2C354, symBinAddr: 0x10002F664, symSize: 0x84 }
  - { offsetInCU: 0x3662B, offset: 0x3662B, size: 0x8, addend: 0x0, symName: __ZNSt3__19make_pairB7v160006IRPPNS_4pairIi9DirectionEES5_EENS1_INS_18__unwrap_ref_decayIT_E4typeENS7_IT0_E4typeEEEOS8_OSB_, symObjAddr: 0x2C3D8, symBinAddr: 0x10002F6E8, symSize: 0x38 }
  - { offsetInCU: 0x366CD, offset: 0x366CD, size: 0x8, addend: 0x0, symName: __ZNSt3__18distanceB7v160006INS_13move_iteratorIPPNS_4pairIi9DirectionEEEEEENS_15iterator_traitsIT_E15difference_typeES9_S9_, symObjAddr: 0x2C564, symBinAddr: 0x10002F874, symSize: 0x3C }
  - { offsetInCU: 0x36710, offset: 0x36710, size: 0x8, addend: 0x0, symName: __ZNSt3__110__distanceB7v160006INS_13move_iteratorIPPNS_4pairIi9DirectionEEEEEENS_15iterator_traitsIT_E15difference_typeES9_S9_NS_26random_access_iterator_tagE, symObjAddr: 0x2C69C, symBinAddr: 0x10002F9AC, symSize: 0x30 }
  - { offsetInCU: 0x3675D, offset: 0x3675D, size: 0x8, addend: 0x0, symName: __ZNSt3__1miB7v160006IPPNS_4pairIi9DirectionEES5_EEDTmicldtfp_4baseEcldtfp0_4baseEERKNS_13move_iteratorIT_EERKNS7_IT0_EE, symObjAddr: 0x2C6CC, symBinAddr: 0x10002F9DC, symSize: 0x48 }
  - { offsetInCU: 0x367AC, offset: 0x367AC, size: 0x8, addend: 0x0, symName: __ZNSt3__113move_backwardB7v160006IPPNS_4pairIi9DirectionEES5_EET0_T_S7_S6_, symObjAddr: 0x2C8D0, symBinAddr: 0x10002FBE0, symSize: 0x40 }
  - { offsetInCU: 0x36806, offset: 0x36806, size: 0x8, addend: 0x0, symName: __ZNSt3__115__move_backwardB7v160006INS_17_ClassicAlgPolicyEPPNS_4pairIi9DirectionEES6_S6_EENS2_IT0_T2_EES7_T1_S8_, symObjAddr: 0x2C910, symBinAddr: 0x10002FC20, symSize: 0x44 }
  - { offsetInCU: 0x36872, offset: 0x36872, size: 0x8, addend: 0x0, symName: __ZNSt3__123__dispatch_copy_or_moveB7v160006INS_17_ClassicAlgPolicyENS_20__move_backward_loopIS1_EENS_23__move_backward_trivialEPPNS_4pairIi9DirectionEES9_S9_EENS5_IT2_T4_EESA_T3_SB_, symObjAddr: 0x2C954, symBinAddr: 0x10002FC64, symSize: 0x44 }
  - { offsetInCU: 0x368F0, offset: 0x368F0, size: 0x8, addend: 0x0, symName: __ZNSt3__121__unwrap_and_dispatchB7v160006INS_10__overloadINS_20__move_backward_loopINS_17_ClassicAlgPolicyEEENS_23__move_backward_trivialEEEPPNS_4pairIi9DirectionEESB_SB_Li0EEENS7_IT0_T2_EESC_T1_SD_, symObjAddr: 0x2C998, symBinAddr: 0x10002FCA8, symSize: 0xB4 }
  - { offsetInCU: 0x3697E, offset: 0x3697E, size: 0x8, addend: 0x0, symName: __ZNSt3__128__copy_backward_trivial_implB7v160006IPNS_4pairIi9DirectionEES4_EENS1_IPT_PT0_EES6_S6_S8_, symObjAddr: 0x2CA94, symBinAddr: 0x10002FDA4, symSize: 0x94 }
  - { offsetInCU: 0x369E6, offset: 0x369E6, size: 0x8, addend: 0x0, symName: __ZNSt3__19make_pairB7v160006IRPPNS_4pairIi9DirectionEES6_EENS1_INS_18__unwrap_ref_decayIT_E4typeENS7_IT0_E4typeEEEOS8_OSB_, symObjAddr: 0x2CB28, symBinAddr: 0x10002FE38, symSize: 0x38 }
  - { offsetInCU: 0x36A35, offset: 0x36A35, size: 0x8, addend: 0x0, symName: __ZNSt3__119__allocate_at_leastB7v160006INS_9allocatorIPNS_4pairIi9DirectionEEEEEENS_19__allocation_resultINS_16allocator_traitsIT_E7pointerEEERS9_m, symObjAddr: 0x2CCE0, symBinAddr: 0x10002FFF0, symSize: 0x40 }
  - { offsetInCU: 0x36A78, offset: 0x36A78, size: 0x8, addend: 0x0, symName: __ZNSt3__13getB7v160006ILm0EJRiR9DirectionEEERNS_13tuple_elementIXT_ENS_5tupleIJDpT0_EEEE4typeERS8_, symObjAddr: 0x2D3B8, symBinAddr: 0x1000306C8, symSize: 0x24 }
  - { offsetInCU: 0x36ABF, offset: 0x36ABF, size: 0x8, addend: 0x0, symName: __ZNSt3__13getB7v160006ILm1EJRiR9DirectionEEERNS_13tuple_elementIXT_ENS_5tupleIJDpT0_EEEE4typeERS8_, symObjAddr: 0x2D3DC, symBinAddr: 0x1000306EC, symSize: 0x28 }
  - { offsetInCU: 0x36B07, offset: 0x36B07, size: 0x8, addend: 0x0, symName: __ZNSt3__1eqB7v160006ERKNS_14__bit_iteratorINS_6vectorIbNS_9allocatorIbEEEELb1ELm0EEES7_, symObjAddr: 0x2D4C8, symBinAddr: 0x1000307D8, symSize: 0x64 }
  - { offsetInCU: 0x36F9D, offset: 0x36F9D, size: 0x8, addend: 0x0, symName: __ZNSt3__14swapB7v160006IPPbEENS_9enable_ifIXaasr21is_move_constructibleIT_EE5valuesr18is_move_assignableIS4_EE5valueEvE4typeERS4_S7_, symObjAddr: 0x2EA48, symBinAddr: 0x100031D58, symSize: 0x3C }
  - { offsetInCU: 0x36FED, offset: 0x36FED, size: 0x8, addend: 0x0, symName: __ZNSt3__14moveB7v160006IPPbS2_EET0_T_S4_S3_, symObjAddr: 0x2EB2C, symBinAddr: 0x100031E3C, symSize: 0x40 }
  - { offsetInCU: 0x37047, offset: 0x37047, size: 0x8, addend: 0x0, symName: __ZNSt3__16__moveB7v160006INS_17_ClassicAlgPolicyEPPbS3_S3_EENS_4pairIT0_T2_EES5_T1_S6_, symObjAddr: 0x2ECD0, symBinAddr: 0x100031FE0, symSize: 0x44 }
  - { offsetInCU: 0x370B3, offset: 0x370B3, size: 0x8, addend: 0x0, symName: __ZNSt3__123__dispatch_copy_or_moveB7v160006INS_17_ClassicAlgPolicyENS_11__move_loopIS1_EENS_14__move_trivialEPPbS6_S6_EENS_4pairIT2_T4_EES8_T3_S9_, symObjAddr: 0x2ED14, symBinAddr: 0x100032024, symSize: 0x44 }
  - { offsetInCU: 0x37131, offset: 0x37131, size: 0x8, addend: 0x0, symName: __ZNSt3__121__unwrap_and_dispatchB7v160006INS_10__overloadINS_11__move_loopINS_17_ClassicAlgPolicyEEENS_14__move_trivialEEEPPbS8_S8_Li0EEENS_4pairIT0_T2_EESA_T1_SB_, symObjAddr: 0x2ED58, symBinAddr: 0x100032068, symSize: 0xB4 }
  - { offsetInCU: 0x371BF, offset: 0x371BF, size: 0x8, addend: 0x0, symName: __ZNSt3__114__unwrap_rangeB7v160006IPPbS2_EENS_4pairIT0_S4_EET_S6_, symObjAddr: 0x2EE0C, symBinAddr: 0x10003211C, symSize: 0x60 }
  - { offsetInCU: 0x3733D, offset: 0x3733D, size: 0x8, addend: 0x0, symName: __ZNSt3__113__unwrap_iterB7v160006IPPbNS_18__unwrap_iter_implIS2_Lb1EEELi0EEEDTclsrT0_8__unwrapclsr3stdE7declvalIT_EEEES6_, symObjAddr: 0x2EEB4, symBinAddr: 0x1000321C4, symSize: 0x24 }
  - { offsetInCU: 0x37381, offset: 0x37381, size: 0x8, addend: 0x0, symName: __ZNSt3__19make_pairB7v160006IPPbS2_EENS_4pairINS_18__unwrap_ref_decayIT_E4typeENS4_IT0_E4typeEEEOS5_OS8_, symObjAddr: 0x2EED8, symBinAddr: 0x1000321E8, symSize: 0x38 }
  - { offsetInCU: 0x373D0, offset: 0x373D0, size: 0x8, addend: 0x0, symName: __ZNSt3__114__rewrap_rangeB7v160006IPPbS2_EET_S3_T0_, symObjAddr: 0x2EF10, symBinAddr: 0x100032220, symSize: 0x2C }
  - { offsetInCU: 0x3741C, offset: 0x3741C, size: 0x8, addend: 0x0, symName: __ZNSt3__113__rewrap_iterB7v160006IPPbS2_NS_18__unwrap_iter_implIS2_Lb1EEEEET_S5_T0_, symObjAddr: 0x2EF3C, symBinAddr: 0x10003224C, symSize: 0x3C }
  - { offsetInCU: 0x37471, offset: 0x37471, size: 0x8, addend: 0x0, symName: __ZNSt3__119__copy_trivial_implB7v160006IPbS1_EENS_4pairIPT_PT0_EES4_S4_S6_, symObjAddr: 0x2EF78, symBinAddr: 0x100032288, symSize: 0x84 }
  - { offsetInCU: 0x374D9, offset: 0x374D9, size: 0x8, addend: 0x0, symName: __ZNSt3__19make_pairB7v160006IRPPbS2_EENS_4pairINS_18__unwrap_ref_decayIT_E4typeENS5_IT0_E4typeEEEOS6_OS9_, symObjAddr: 0x2EFFC, symBinAddr: 0x10003230C, symSize: 0x38 }
  - { offsetInCU: 0x3757B, offset: 0x3757B, size: 0x8, addend: 0x0, symName: __ZNSt3__18distanceB7v160006INS_13move_iteratorIPPbEEEENS_15iterator_traitsIT_E15difference_typeES6_S6_, symObjAddr: 0x2F188, symBinAddr: 0x100032498, symSize: 0x3C }
  - { offsetInCU: 0x375BE, offset: 0x375BE, size: 0x8, addend: 0x0, symName: __ZNSt3__110__distanceB7v160006INS_13move_iteratorIPPbEEEENS_15iterator_traitsIT_E15difference_typeES6_S6_NS_26random_access_iterator_tagE, symObjAddr: 0x2F2C0, symBinAddr: 0x1000325D0, symSize: 0x30 }
  - { offsetInCU: 0x3760B, offset: 0x3760B, size: 0x8, addend: 0x0, symName: __ZNSt3__1miB7v160006IPPbS2_EEDTmicldtfp_4baseEcldtfp0_4baseEERKNS_13move_iteratorIT_EERKNS4_IT0_EE, symObjAddr: 0x2F2F0, symBinAddr: 0x100032600, symSize: 0x48 }
  - { offsetInCU: 0x3765A, offset: 0x3765A, size: 0x8, addend: 0x0, symName: __ZNSt3__113move_backwardB7v160006IPPbS2_EET0_T_S4_S3_, symObjAddr: 0x2F4F4, symBinAddr: 0x100032804, symSize: 0x40 }
  - { offsetInCU: 0x376B4, offset: 0x376B4, size: 0x8, addend: 0x0, symName: __ZNSt3__115__move_backwardB7v160006INS_17_ClassicAlgPolicyEPPbS3_S3_EENS_4pairIT0_T2_EES5_T1_S6_, symObjAddr: 0x2F534, symBinAddr: 0x100032844, symSize: 0x44 }
  - { offsetInCU: 0x37720, offset: 0x37720, size: 0x8, addend: 0x0, symName: __ZNSt3__123__dispatch_copy_or_moveB7v160006INS_17_ClassicAlgPolicyENS_20__move_backward_loopIS1_EENS_23__move_backward_trivialEPPbS6_S6_EENS_4pairIT2_T4_EES8_T3_S9_, symObjAddr: 0x2F578, symBinAddr: 0x100032888, symSize: 0x44 }
  - { offsetInCU: 0x3779E, offset: 0x3779E, size: 0x8, addend: 0x0, symName: __ZNSt3__121__unwrap_and_dispatchB7v160006INS_10__overloadINS_20__move_backward_loopINS_17_ClassicAlgPolicyEEENS_23__move_backward_trivialEEEPPbS8_S8_Li0EEENS_4pairIT0_T2_EESA_T1_SB_, symObjAddr: 0x2F5BC, symBinAddr: 0x1000328CC, symSize: 0xB4 }
  - { offsetInCU: 0x3782C, offset: 0x3782C, size: 0x8, addend: 0x0, symName: __ZNSt3__128__copy_backward_trivial_implB7v160006IPbS1_EENS_4pairIPT_PT0_EES4_S4_S6_, symObjAddr: 0x2F6B8, symBinAddr: 0x1000329C8, symSize: 0x94 }
  - { offsetInCU: 0x37894, offset: 0x37894, size: 0x8, addend: 0x0, symName: __ZNSt3__19make_pairB7v160006IRPPbS3_EENS_4pairINS_18__unwrap_ref_decayIT_E4typeENS5_IT0_E4typeEEEOS6_OS9_, symObjAddr: 0x2F74C, symBinAddr: 0x100032A5C, symSize: 0x38 }
  - { offsetInCU: 0x378E3, offset: 0x378E3, size: 0x8, addend: 0x0, symName: __ZNSt3__119__allocate_at_leastB7v160006INS_9allocatorIPbEEEENS_19__allocation_resultINS_16allocator_traitsIT_E7pointerEEERS6_m, symObjAddr: 0x2F904, symBinAddr: 0x100032C14, symSize: 0x40 }
  - { offsetInCU: 0x37927, offset: 0x37927, size: 0x8, addend: 0x0, symName: __ZNSt3__112__to_addressB7v160006IbEEPT_S2_, symObjAddr: 0x30074, symBinAddr: 0x100033384, symSize: 0x14 }
  - { offsetInCU: 0x3795B, offset: 0x3795B, size: 0x8, addend: 0x0, symName: __ZNSt3__18distanceB7v160006INS_16__deque_iteratorINS_4pairIi9DirectionEEPKS4_RS5_PKS6_lLl512EEEEENS_15iterator_traitsIT_E15difference_typeESC_SC_, symObjAddr: 0x30A5C, symBinAddr: 0x100033D6C, symSize: 0x4C }
  - { offsetInCU: 0x3799E, offset: 0x3799E, size: 0x8, addend: 0x0, symName: __ZNSt3__1neB7v160006ERKNS_5dequeINS_4pairIi9DirectionEENS_9allocatorIS3_EEE13__deque_rangeES9_, symObjAddr: 0x31160, symBinAddr: 0x100034470, symSize: 0x34 }
  - { offsetInCU: 0x379DB, offset: 0x379DB, size: 0x8, addend: 0x0, symName: __ZNSt3__110__distanceB7v160006INS_16__deque_iteratorINS_4pairIi9DirectionEEPKS4_RS5_PKS6_lLl512EEEEENS_15iterator_traitsIT_E15difference_typeESC_SC_NS_26random_access_iterator_tagE, symObjAddr: 0x31364, symBinAddr: 0x100034674, symSize: 0x38 }
  - { offsetInCU: 0x37A28, offset: 0x37A28, size: 0x8, addend: 0x0, symName: __ZNSt3__1miB7v160006ERKNS_16__deque_iteratorINS_4pairIi9DirectionEEPKS3_RS4_PKS5_lLl512EEESB_, symObjAddr: 0x3139C, symBinAddr: 0x1000346AC, symSize: 0xA4 }
  - { offsetInCU: 0x37A65, offset: 0x37A65, size: 0x8, addend: 0x0, symName: __ZNSt3__1neB7v160006ERKNS_16__deque_iteratorINS_4pairIi9DirectionEEPKS3_RS4_PKS5_lLl512EEESB_, symObjAddr: 0x31440, symBinAddr: 0x100034750, symSize: 0x34 }
  - { offsetInCU: 0x37AA3, offset: 0x37AA3, size: 0x8, addend: 0x0, symName: __ZNSt3__1eqB7v160006ERKNS_16__deque_iteratorINS_4pairIi9DirectionEEPKS3_RS4_PKS5_lLl512EEESB_, symObjAddr: 0x31474, symBinAddr: 0x100034784, symSize: 0x30 }
  - { offsetInCU: 0x37ADF, offset: 0x37ADF, size: 0x8, addend: 0x0, symName: __ZNSt3__1eqB7v160006ERKNS_5dequeINS_4pairIi9DirectionEENS_9allocatorIS3_EEE13__deque_rangeES9_, symObjAddr: 0x318B8, symBinAddr: 0x100034BC8, symSize: 0x30 }
  - { offsetInCU: 0x37B1C, offset: 0x37B1C, size: 0x8, addend: 0x0, symName: __ZNSt3__17launderB7v160006INS_4pairIKiiEEEEPT_S5_, symObjAddr: 0x31FC0, symBinAddr: 0x1000352D0, symSize: 0x24 }
  - { offsetInCU: 0x37B54, offset: 0x37B54, size: 0x8, addend: 0x0, symName: __ZNSt3__19__launderB7v160006INS_4pairIKiiEEEEPT_S5_, symObjAddr: 0x31FE4, symBinAddr: 0x1000352F4, symSize: 0x14 }
  - { offsetInCU: 0x37BC1, offset: 0x37BC1, size: 0x8, addend: 0x0, symName: __ZNSt3__116forward_as_tupleB7v160006IJRKiEEENS_5tupleIJDpOT_EEES6_, symObjAddr: 0x32340, symBinAddr: 0x100035650, symSize: 0x2C }
  - { offsetInCU: 0x37BFB, offset: 0x37BFB, size: 0x8, addend: 0x0, symName: __ZNSt3__116forward_as_tupleB7v160006IJEEENS_5tupleIJDpOT_EEES4_, symObjAddr: 0x3236C, symBinAddr: 0x10003567C, symSize: 0x4 }
  - { offsetInCU: 0x37C1E, offset: 0x37C1E, size: 0x8, addend: 0x0, symName: __ZNSt3__17launderB7v160006IKNS_4pairIKiiEEEEPT_S6_, symObjAddr: 0x32954, symBinAddr: 0x100035C64, symSize: 0x24 }
  - { offsetInCU: 0x37C56, offset: 0x37C56, size: 0x8, addend: 0x0, symName: __ZNSt3__19__launderB7v160006IKNS_4pairIKiiEEEEPT_S6_, symObjAddr: 0x32978, symBinAddr: 0x100035C88, symSize: 0x14 }
  - { offsetInCU: 0x37CAA, offset: 0x37CAA, size: 0x8, addend: 0x0, symName: __ZNSt3__13getB7v160006ILm0EJRKiEEERNS_13tuple_elementIXT_ENS_5tupleIJDpT0_EEEE4typeERS7_, symObjAddr: 0x32DBC, symBinAddr: 0x1000360CC, symSize: 0x24 }
  - { offsetInCU: 0x37D35, offset: 0x37D35, size: 0x8, addend: 0x0, symName: __ZNSt3__118__str_find_last_ofB7v160006IcmNS_11char_traitsIcEELm18446744073709551615EEET0_PKT_S3_S6_S3_S3_, symObjAddr: 0x33214, symBinAddr: 0x100036524, symSize: 0xFC }
  - { offsetInCU: 0x37E07, offset: 0x37E07, size: 0x8, addend: 0x0, symName: __ZNSt3__123__constexpr_char_memchrB7v160006EPKcim, symObjAddr: 0x33380, symBinAddr: 0x100036690, symSize: 0x34 }
  - { offsetInCU: 0x37E4F, offset: 0x37E4F, size: 0x8, addend: 0x0, symName: __ZNSt3__15equalB7v160006INS_6vectorIbNS_9allocatorIbEEEELb1ELb1EEEbNS_14__bit_iteratorIT_XT0_EXLi0EEEES7_NS5_IS6_XT1_EXLi0EEEE, symObjAddr: 0x333B4, symBinAddr: 0x1000366C4, symSize: 0xE8 }
  - { offsetInCU: 0x38D62, offset: 0x38D62, size: 0x8, addend: 0x0, symName: __ZSt28__throw_bad_array_new_lengthB7v160006v, symObjAddr: 0xFEE8, symBinAddr: 0x1000131F8, symSize: 0x34 }
  - { offsetInCU: 0x3FCEB, offset: 0x3FCEB, size: 0x8, addend: 0x0, symName: __ZN2cvneIiEEbRKNS_5Size_IT_EES5_, symObjAddr: 0x540C, symBinAddr: 0x10000871C, symSize: 0x34 }
  - { offsetInCU: 0x3FD32, offset: 0x3FD32, size: 0x8, addend: 0x0, symName: __ZN2cveqIiEEbRKNS_5Size_IT_EES5_, symObjAddr: 0x224A0, symBinAddr: 0x1000257B0, symSize: 0x64 }
  - { offsetInCU: 0x4181C, offset: 0x4181C, size: 0x8, addend: 0x0, symName: __ZNK5Graph17directionToStringE9Direction, symObjAddr: 0x7274, symBinAddr: 0x10000A584, symSize: 0x310 }
  - { offsetInCU: 0x41844, offset: 0x41844, size: 0x8, addend: 0x0, symName: __ZZNK5Graph17directionToStringE9DirectionE12directionMap, symObjAddr: 0x19FBC8, symBinAddr: 0x100044000, symSize: 0x0 }
  - { offsetInCU: 0x42491, offset: 0x42491, size: 0x8, addend: 0x0, symName: __ZNSt3__16vectorINS0_IiNS_9allocatorIiEEEENS1_IS3_EEE26__swap_out_circular_bufferERNS_14__split_bufferIS3_RS4_EE, symObjAddr: 0x1341C, symBinAddr: 0x10001672C, symSize: 0x118 }
  - { offsetInCU: 0x42530, offset: 0x42530, size: 0x8, addend: 0x0, symName: __ZNSt3__16vectorIiNS_9allocatorIiEEE26__swap_out_circular_bufferERNS_14__split_bufferIiRS2_EE, symObjAddr: 0x14B58, symBinAddr: 0x100017E68, symSize: 0x118 }
  - { offsetInCU: 0x42573, offset: 0x42573, size: 0x8, addend: 0x0, symName: __ZNSt3__16vectorI3RGBNS_9allocatorIS1_EEE26__swap_out_circular_bufferERNS_14__split_bufferIS1_RS3_EE, symObjAddr: 0x15C5C, symBinAddr: 0x100018F6C, symSize: 0x118 }
  - { offsetInCU: 0x425CD, offset: 0x425CD, size: 0x8, addend: 0x0, symName: __ZNSt3__16vectorINS_6bitsetILm1EEENS_9allocatorIS2_EEE26__swap_out_circular_bufferERNS_14__split_bufferIS2_RS4_EE, symObjAddr: 0x17304, symBinAddr: 0x10001A614, symSize: 0x118 }
  - { offsetInCU: 0x42644, offset: 0x42644, size: 0x8, addend: 0x0, symName: __ZNSt3__16vectorINS_5tupleIJi9DirectionNS0_IbNS_9allocatorIbEEEEEEENS3_IS6_EEE26__swap_out_circular_bufferERNS_14__split_bufferIS6_RS7_EE, symObjAddr: 0x1C7D0, symBinAddr: 0x10001FAE0, symSize: 0x118 }
  - { offsetInCU: 0x42A3D, offset: 0x42A3D, size: 0x8, addend: 0x0, symName: __ZNSt3__16vectorINS_4pairIihEENS_9allocatorIS2_EEE26__swap_out_circular_bufferERNS_14__split_bufferIS2_RS4_EE, symObjAddr: 0x2397C, symBinAddr: 0x100026C8C, symSize: 0x118 }
  - { offsetInCU: 0x42B33, offset: 0x42B33, size: 0x8, addend: 0x0, symName: __ZNSt3__16vectorINS0_INS_4pairIihEENS_9allocatorIS2_EEEENS3_IS5_EEE26__swap_out_circular_bufferERNS_14__split_bufferIS5_RS6_EE, symObjAddr: 0x26370, symBinAddr: 0x100029680, symSize: 0x118 }
  - { offsetInCU: 0x42BD2, offset: 0x42BD2, size: 0x8, addend: 0x0, symName: __ZNKSt3__111__enum_hashI9DirectionLb1EEclB7v160006ES1_, symObjAddr: 0x289A0, symBinAddr: 0x10002BCB0, symSize: 0x2C }
  - { offsetInCU: 0x45ABC, offset: 0x45ABC, size: 0x8, addend: 0x0, symName: __ZN5GraphC2ERKNSt3__112basic_stringIcNS0_11char_traitsIcEENS0_9allocatorIcEEEE, symObjAddr: 0x0, symBinAddr: 0x100003310, symSize: 0x50C }
  - { offsetInCU: 0x45AF6, offset: 0x45AF6, size: 0x8, addend: 0x0, symName: __ZNSt3__112basic_stringIcNS_11char_traitsIcEENS_9allocatorIcEEEC1B7v160006Ev, symObjAddr: 0x50C, symBinAddr: 0x10000381C, symSize: 0x2C }
  - { offsetInCU: 0x45B20, offset: 0x45B20, size: 0x8, addend: 0x0, symName: __ZNSt3__16vectorINS0_IiNS_9allocatorIiEEEENS1_IS3_EEEC1B7v160006Ev, symObjAddr: 0x538, symBinAddr: 0x100003848, symSize: 0x2C }
  - { offsetInCU: 0x45B4A, offset: 0x45B4A, size: 0x8, addend: 0x0, symName: __ZNSt3__16vectorI3RGBNS_9allocatorIS1_EEEC1B7v160006Ev, symObjAddr: 0x564, symBinAddr: 0x100003874, symSize: 0x2C }
  - { offsetInCU: 0x45B74, offset: 0x45B74, size: 0x8, addend: 0x0, symName: __ZNSt3__16vectorIiNS_9allocatorIiEEEC1B7v160006Ev, symObjAddr: 0x590, symBinAddr: 0x1000038A0, symSize: 0x2C }
  - { offsetInCU: 0x45B9E, offset: 0x45B9E, size: 0x8, addend: 0x0, symName: __ZNSt3__16vectorINS_6bitsetILm1EEENS_9allocatorIS2_EEEC1B7v160006Ev, symObjAddr: 0x5BC, symBinAddr: 0x1000038CC, symSize: 0x2C }
  - { offsetInCU: 0x45BC8, offset: 0x45BC8, size: 0x8, addend: 0x0, symName: __ZNSt3__16vectorIbNS_9allocatorIbEEEC1B7v160006Ev, symObjAddr: 0x5E8, symBinAddr: 0x1000038F8, symSize: 0x2C }
  - { offsetInCU: 0x45BF4, offset: 0x45BF4, size: 0x8, addend: 0x0, symName: __ZNSt3__16vectorINS_5tupleIJi9DirectionNS0_IbNS_9allocatorIbEEEEEEENS3_IS6_EEEC1B7v160006Ev, symObjAddr: 0x614, symBinAddr: 0x100003924, symSize: 0x2C }
  - { offsetInCU: 0x45C1E, offset: 0x45C1E, size: 0x8, addend: 0x0, symName: __ZNSt3__113basic_ostreamIcNS_11char_traitsIcEEElsB7v160006EPFRS3_S4_E, symObjAddr: 0x6D4, symBinAddr: 0x1000039E4, symSize: 0x2C }
  - { offsetInCU: 0x45C52, offset: 0x45C52, size: 0x8, addend: 0x0, symName: __ZNSt3__16vectorIiNS_9allocatorIiEEEaSB7v160006ESt16initializer_listIiE, symObjAddr: 0x758, symBinAddr: 0x100003A68, symSize: 0x60 }
  - { offsetInCU: 0x45C87, offset: 0x45C87, size: 0x8, addend: 0x0, symName: __ZNSt3__16vectorINS0_IiNS_9allocatorIiEEEENS1_IS3_EEE6resizeEm, symObjAddr: 0x7B8, symBinAddr: 0x100003AC8, symSize: 0x9C }
  - { offsetInCU: 0x45CCD, offset: 0x45CCD, size: 0x8, addend: 0x0, symName: __ZNSt3__16vectorIiNS_9allocatorIiEEE6resizeEmRKi, symObjAddr: 0x854, symBinAddr: 0x100003B64, symSize: 0x9C }
  - { offsetInCU: 0x45D22, offset: 0x45D22, size: 0x8, addend: 0x0, symName: __ZNSt3__16vectorI3RGBNS_9allocatorIS1_EEE6resizeEm, symObjAddr: 0x8F0, symBinAddr: 0x100003C00, symSize: 0x9C }
  - { offsetInCU: 0x45D68, offset: 0x45D68, size: 0x8, addend: 0x0, symName: __ZNSt3__16vectorINS_6bitsetILm1EEENS_9allocatorIS2_EEE6resizeEmRKS2_, symObjAddr: 0x98C, symBinAddr: 0x100003C9C, symSize: 0x9C }
  - { offsetInCU: 0x45DBD, offset: 0x45DBD, size: 0x8, addend: 0x0, symName: __ZNSt3__16bitsetILm1EEC1B7v160006Ey, symObjAddr: 0xA28, symBinAddr: 0x100003D38, symSize: 0x34 }
  - { offsetInCU: 0x45DF6, offset: 0x45DF6, size: 0x8, addend: 0x0, symName: __ZNSt3__16vectorIbNS_9allocatorIbEEE6resizeEmb, symObjAddr: 0xA5C, symBinAddr: 0x100003D6C, symSize: 0x220 }
  - { offsetInCU: 0x45E96, offset: 0x45E96, size: 0x8, addend: 0x0, symName: __ZNKSt3__16vectorIbNS_9allocatorIbEEE4sizeB7v160006Ev, symObjAddr: 0xC7C, symBinAddr: 0x100003F8C, symSize: 0x18 }
  - { offsetInCU: 0x45EBC, offset: 0x45EBC, size: 0x8, addend: 0x0, symName: __ZNSt3__16vectorINS_5tupleIJi9DirectionNS0_IbNS_9allocatorIbEEEEEEENS3_IS6_EEED1B7v160006Ev, symObjAddr: 0xC94, symBinAddr: 0x100003FA4, symSize: 0x2C }
  - { offsetInCU: 0x45EE6, offset: 0x45EE6, size: 0x8, addend: 0x0, symName: __ZNSt3__16vectorIbNS_9allocatorIbEEED1B7v160006Ev, symObjAddr: 0xCC0, symBinAddr: 0x100003FD0, symSize: 0x2C }
  - { offsetInCU: 0x45F10, offset: 0x45F10, size: 0x8, addend: 0x0, symName: __ZNSt3__16vectorIiNS_9allocatorIiEEED1B7v160006Ev, symObjAddr: 0xCEC, symBinAddr: 0x100003FFC, symSize: 0x2C }
  - { offsetInCU: 0x45F3A, offset: 0x45F3A, size: 0x8, addend: 0x0, symName: __ZNSt3__16vectorINS0_IiNS_9allocatorIiEEEENS1_IS3_EEED1B7v160006Ev, symObjAddr: 0xD18, symBinAddr: 0x100004028, symSize: 0x2C }
  - { offsetInCU: 0x45F64, offset: 0x45F64, size: 0x8, addend: 0x0, symName: __ZNSt3__16vectorI3RGBNS_9allocatorIS1_EEED1B7v160006Ev, symObjAddr: 0xD44, symBinAddr: 0x100004054, symSize: 0x2C }
  - { offsetInCU: 0x45F8E, offset: 0x45F8E, size: 0x8, addend: 0x0, symName: __ZNSt3__16vectorINS_6bitsetILm1EEENS_9allocatorIS2_EEED1B7v160006Ev, symObjAddr: 0xD70, symBinAddr: 0x100004080, symSize: 0x2C }
  - { offsetInCU: 0x45FB8, offset: 0x45FB8, size: 0x8, addend: 0x0, symName: __ZN5GraphC1ERKNSt3__112basic_stringIcNS0_11char_traitsIcEENS0_9allocatorIcEEEE, symObjAddr: 0xD9C, symBinAddr: 0x1000040AC, symSize: 0x34 }
  - { offsetInCU: 0x45FF2, offset: 0x45FF2, size: 0x8, addend: 0x0, symName: __ZNK5Graph11getVerticesEv, symObjAddr: 0xDD0, symBinAddr: 0x1000040E0, symSize: 0x18 }
  - { offsetInCU: 0x4601A, offset: 0x4601A, size: 0x8, addend: 0x0, symName: __ZNK5Graph12getImagePathEv, symObjAddr: 0xDE8, symBinAddr: 0x1000040F8, symSize: 0x3C }
  - { offsetInCU: 0x46042, offset: 0x46042, size: 0x8, addend: 0x0, symName: __ZN5Graph16getVertexRegionsEv, symObjAddr: 0xE24, symBinAddr: 0x100004134, symSize: 0x3C }
  - { offsetInCU: 0x4606A, offset: 0x4606A, size: 0x8, addend: 0x0, symName: __ZNSt3__16vectorIiNS_9allocatorIiEEEC1ERKS3_, symObjAddr: 0xE60, symBinAddr: 0x100004170, symSize: 0x34 }
  - { offsetInCU: 0x460A5, offset: 0x460A5, size: 0x8, addend: 0x0, symName: __ZN5Graph7addEdgeEii, symObjAddr: 0xE94, symBinAddr: 0x1000041A4, symSize: 0xE8 }
  - { offsetInCU: 0x460E9, offset: 0x460E9, size: 0x8, addend: 0x0, symName: __ZNSt3__16vectorINS0_IiNS_9allocatorIiEEEENS1_IS3_EEEixB7v160006Em, symObjAddr: 0x1044, symBinAddr: 0x100004354, symSize: 0x2C }
  - { offsetInCU: 0x46120, offset: 0x46120, size: 0x8, addend: 0x0, symName: __ZNSt3__16vectorIiNS_9allocatorIiEEE5beginB7v160006Ev, symObjAddr: 0x1070, symBinAddr: 0x100004380, symSize: 0x30 }
  - { offsetInCU: 0x46148, offset: 0x46148, size: 0x8, addend: 0x0, symName: __ZNSt3__16vectorIiNS_9allocatorIiEEE3endB7v160006Ev, symObjAddr: 0x10A0, symBinAddr: 0x1000043B0, symSize: 0x30 }
  - { offsetInCU: 0x46170, offset: 0x46170, size: 0x8, addend: 0x0, symName: __ZNSt3__16vectorIiNS_9allocatorIiEEE9push_backB7v160006ERKi, symObjAddr: 0x10D0, symBinAddr: 0x1000043E0, symSize: 0x6C }
  - { offsetInCU: 0x461A7, offset: 0x461A7, size: 0x8, addend: 0x0, symName: __ZN5Graph9addVertexEv, symObjAddr: 0x113C, symBinAddr: 0x10000444C, symSize: 0x78 }
  - { offsetInCU: 0x461CF, offset: 0x461CF, size: 0x8, addend: 0x0, symName: __ZNSt3__16vectorINS0_IiNS_9allocatorIiEEEENS1_IS3_EEE9push_backB7v160006EOS3_, symObjAddr: 0x11B4, symBinAddr: 0x1000044C4, symSize: 0x6C }
  - { offsetInCU: 0x46206, offset: 0x46206, size: 0x8, addend: 0x0, symName: __ZN5Graph10printGraphEv, symObjAddr: 0x1220, symBinAddr: 0x100004530, symSize: 0x228 }
  - { offsetInCU: 0x462B7, offset: 0x462B7, size: 0x8, addend: 0x0, symName: __ZNKSt3__111__wrap_iterIPiEdeB7v160006Ev, symObjAddr: 0x147C, symBinAddr: 0x10000478C, symSize: 0x18 }
  - { offsetInCU: 0x462DD, offset: 0x462DD, size: 0x8, addend: 0x0, symName: __ZNK5Graph10getEdgeBitEii, symObjAddr: 0x1494, symBinAddr: 0x1000047A4, symSize: 0x154 }
  - { offsetInCU: 0x4632F, offset: 0x4632F, size: 0x8, addend: 0x0, symName: __ZNSt3__111__wrap_iterIPiEppB7v160006Ev, symObjAddr: 0x15E8, symBinAddr: 0x1000048F8, symSize: 0x20 }
  - { offsetInCU: 0x46355, offset: 0x46355, size: 0x8, addend: 0x0, symName: __ZNK5Graph14getVertexColorEi, symObjAddr: 0x1608, symBinAddr: 0x100004918, symSize: 0xC8 }
  - { offsetInCU: 0x4638B, offset: 0x4638B, size: 0x8, addend: 0x0, symName: __ZNK5Graph10countEdgesEv, symObjAddr: 0x16D0, symBinAddr: 0x1000049E0, symSize: 0x8C }
  - { offsetInCU: 0x463DD, offset: 0x463DD, size: 0x8, addend: 0x0, symName: __ZN5Graph13printEdgeBitsEv, symObjAddr: 0x175C, symBinAddr: 0x100004A6C, symSize: 0xA8 }
  - { offsetInCU: 0x46421, offset: 0x46421, size: 0x8, addend: 0x0, symName: __ZNKSt3__16vectorINS_6bitsetILm1EEENS_9allocatorIS2_EEE4sizeB7v160006Ev, symObjAddr: 0x1804, symBinAddr: 0x100004B14, symSize: 0x28 }
  - { offsetInCU: 0x46447, offset: 0x46447, size: 0x8, addend: 0x0, symName: __ZNSt3__16vectorINS_6bitsetILm1EEENS_9allocatorIS2_EEEixB7v160006Em, symObjAddr: 0x1984, symBinAddr: 0x100004C94, symSize: 0x24 }
  - { offsetInCU: 0x4647E, offset: 0x4647E, size: 0x8, addend: 0x0, symName: __ZN5Graph17printColorRegionsEv, symObjAddr: 0x19A8, symBinAddr: 0x100004CB8, symSize: 0xD0 }
  - { offsetInCU: 0x464F7, offset: 0x464F7, size: 0x8, addend: 0x0, symName: __ZNSt3__16vectorI3RGBNS_9allocatorIS1_EEE5beginB7v160006Ev, symObjAddr: 0x1A78, symBinAddr: 0x100004D88, symSize: 0x30 }
  - { offsetInCU: 0x4651F, offset: 0x4651F, size: 0x8, addend: 0x0, symName: __ZNSt3__16vectorI3RGBNS_9allocatorIS1_EEE3endB7v160006Ev, symObjAddr: 0x1AA8, symBinAddr: 0x100004DB8, symSize: 0x30 }
  - { offsetInCU: 0x46547, offset: 0x46547, size: 0x8, addend: 0x0, symName: __ZNKSt3__111__wrap_iterIP3RGBEdeB7v160006Ev, symObjAddr: 0x1B0C, symBinAddr: 0x100004E1C, symSize: 0x18 }
  - { offsetInCU: 0x4656D, offset: 0x4656D, size: 0x8, addend: 0x0, symName: __ZNSt3__111__wrap_iterIP3RGBEppB7v160006Ev, symObjAddr: 0x1B58, symBinAddr: 0x100004E68, symSize: 0x20 }
  - { offsetInCU: 0x46593, offset: 0x46593, size: 0x8, addend: 0x0, symName: __ZN5Graph9printSizeEv, symObjAddr: 0x1B78, symBinAddr: 0x100004E88, symSize: 0x12C }
  - { offsetInCU: 0x465BB, offset: 0x465BB, size: 0x8, addend: 0x0, symName: __ZNKSt3__16vectorI3RGBNS_9allocatorIS1_EEE4sizeB7v160006Ev, symObjAddr: 0x1CA4, symBinAddr: 0x100004FB4, symSize: 0x28 }
  - { offsetInCU: 0x465E1, offset: 0x465E1, size: 0x8, addend: 0x0, symName: __ZN5Graph14setVertexColorEiiii, symObjAddr: 0x1CCC, symBinAddr: 0x100004FDC, symSize: 0xEC }
  - { offsetInCU: 0x46641, offset: 0x46641, size: 0x8, addend: 0x0, symName: __ZNSt3__16vectorI3RGBNS_9allocatorIS1_EEEixB7v160006Em, symObjAddr: 0x1DB8, symBinAddr: 0x1000050C8, symSize: 0x2C }
  - { offsetInCU: 0x46678, offset: 0x46678, size: 0x8, addend: 0x0, symName: __ZNKSt3__16vectorI3RGBNS_9allocatorIS1_EEEixB7v160006Em, symObjAddr: 0x1DE4, symBinAddr: 0x1000050F4, symSize: 0x2C }
  - { offsetInCU: 0x466AF, offset: 0x466AF, size: 0x8, addend: 0x0, symName: __ZN5Graph10compareRGBERK3RGBS2_, symObjAddr: 0x1E10, symBinAddr: 0x100005120, symSize: 0x90 }
  - { offsetInCU: 0x466F3, offset: 0x466F3, size: 0x8, addend: 0x0, symName: __ZNKSt3__16vectorINS0_IiNS_9allocatorIiEEEENS1_IS3_EEEixB7v160006Em, symObjAddr: 0x1EA0, symBinAddr: 0x1000051B0, symSize: 0x2C }
  - { offsetInCU: 0x4672A, offset: 0x4672A, size: 0x8, addend: 0x0, symName: __ZNKSt3__16vectorIiNS_9allocatorIiEEE4sizeB7v160006Ev, symObjAddr: 0x1ECC, symBinAddr: 0x1000051DC, symSize: 0x28 }
  - { offsetInCU: 0x46750, offset: 0x46750, size: 0x8, addend: 0x0, symName: __ZN5Graph10setEdgeBitEiib, symObjAddr: 0x1EF4, symBinAddr: 0x100005204, symSize: 0x14C }
  - { offsetInCU: 0x467B0, offset: 0x467B0, size: 0x8, addend: 0x0, symName: __ZNSt3__16bitsetILm1EEixB7v160006Em, symObjAddr: 0x2088, symBinAddr: 0x100005398, symSize: 0x3C }
  - { offsetInCU: 0x467E5, offset: 0x467E5, size: 0x8, addend: 0x0, symName: __ZNSt3__115__bit_referenceINS_8__bitsetILm1ELm1EEELb1EEaSB7v160006Eb, symObjAddr: 0x20C4, symBinAddr: 0x1000053D4, symSize: 0x6C }
  - { offsetInCU: 0x46819, offset: 0x46819, size: 0x8, addend: 0x0, symName: __ZNKSt3__16vectorIiNS_9allocatorIiEEE5beginB7v160006Ev, symObjAddr: 0x21F8, symBinAddr: 0x100005508, symSize: 0x30 }
  - { offsetInCU: 0x46841, offset: 0x46841, size: 0x8, addend: 0x0, symName: __ZNKSt3__16vectorIiNS_9allocatorIiEEE3endB7v160006Ev, symObjAddr: 0x2228, symBinAddr: 0x100005538, symSize: 0x30 }
  - { offsetInCU: 0x46869, offset: 0x46869, size: 0x8, addend: 0x0, symName: __ZNKSt3__16vectorINS_6bitsetILm1EEENS_9allocatorIS2_EEEixB7v160006Em, symObjAddr: 0x2258, symBinAddr: 0x100005568, symSize: 0x24 }
  - { offsetInCU: 0x468A0, offset: 0x468A0, size: 0x8, addend: 0x0, symName: __ZNKSt3__16bitsetILm1EEixB7v160006Em, symObjAddr: 0x227C, symBinAddr: 0x10000558C, symSize: 0x3C }
  - { offsetInCU: 0x468D5, offset: 0x468D5, size: 0x8, addend: 0x0, symName: __ZNKSt3__121__bit_const_referenceINS_8__bitsetILm1ELm1EEEEcvbB7v160006Ev, symObjAddr: 0x22B8, symBinAddr: 0x1000055C8, symSize: 0x2C }
  - { offsetInCU: 0x468FB, offset: 0x468FB, size: 0x8, addend: 0x0, symName: __ZNK5Graph18getEdgeBitFromListEii, symObjAddr: 0x22E4, symBinAddr: 0x1000055F4, symSize: 0x11C }
  - { offsetInCU: 0x469A1, offset: 0x469A1, size: 0x8, addend: 0x0, symName: __ZNKSt3__16vectorIbNS_9allocatorIbEEEixB7v160006Em, symObjAddr: 0x242C, symBinAddr: 0x10000573C, symSize: 0x3C }
  - { offsetInCU: 0x469D6, offset: 0x469D6, size: 0x8, addend: 0x0, symName: __ZNKSt3__121__bit_const_referenceINS_6vectorIbNS_9allocatorIbEEEEEcvbB7v160006Ev, symObjAddr: 0x2468, symBinAddr: 0x100005778, symSize: 0x2C }
  - { offsetInCU: 0x469FC, offset: 0x469FC, size: 0x8, addend: 0x0, symName: __ZN5Graph11setMulticutEv, symObjAddr: 0x2494, symBinAddr: 0x1000057A4, symSize: 0x920 }
  - { offsetInCU: 0x46CD1, offset: 0x46CD1, size: 0x8, addend: 0x0, symName: __ZN2cv3Mat2atINS_3VecIhLi3EEEEERT_ii, symObjAddr: 0x2DB4, symBinAddr: 0x1000060C4, symSize: 0x44 }
  - { offsetInCU: 0x46D1E, offset: 0x46D1E, size: 0x8, addend: 0x0, symName: __ZN2cv3VecIhLi3EEC1ERKS1_, symObjAddr: 0x2DF8, symBinAddr: 0x100006108, symSize: 0x34 }
  - { offsetInCU: 0x46D59, offset: 0x46D59, size: 0x8, addend: 0x0, symName: __ZN2cv3VecIhLi3EEixEi, symObjAddr: 0x2E2C, symBinAddr: 0x10000613C, symSize: 0x20 }
  - { offsetInCU: 0x46D90, offset: 0x46D90, size: 0x8, addend: 0x0, symName: __ZNSt3__16vectorIbNS_9allocatorIbEEEixB7v160006Em, symObjAddr: 0x2E78, symBinAddr: 0x100006188, symSize: 0x3C }
  - { offsetInCU: 0x46DC5, offset: 0x46DC5, size: 0x8, addend: 0x0, symName: __ZNSt3__115__bit_referenceINS_6vectorIbNS_9allocatorIbEEEELb1EEaSB7v160006Eb, symObjAddr: 0x2EB4, symBinAddr: 0x1000061C4, symSize: 0x6C }
  - { offsetInCU: 0x46DF9, offset: 0x46DF9, size: 0x8, addend: 0x0, symName: __ZN5Graph10getRegionsEv, symObjAddr: 0x2F20, symBinAddr: 0x100006230, symSize: 0x220 }
  - { offsetInCU: 0x46E9E, offset: 0x46E9E, size: 0x8, addend: 0x0, symName: __ZNK6andres9PartitionIiE15representativesINSt3__120back_insert_iteratorINS3_6vectorIiNS3_9allocatorIiEEEEEEEEvT_, symObjAddr: 0x3140, symBinAddr: 0x100006450, symSize: 0xAC }
  - { offsetInCU: 0x46EF8, offset: 0x46EF8, size: 0x8, addend: 0x0, symName: __ZNSt3__16vectorI3RGBNS_9allocatorIS1_EEE9push_backB7v160006EOS1_, symObjAddr: 0x3218, symBinAddr: 0x100006528, symSize: 0x6C }
  - { offsetInCU: 0x46F2F, offset: 0x46F2F, size: 0x8, addend: 0x0, symName: __ZNSt3__16vectorIbNS_9allocatorIbEEE5beginB7v160006Ev, symObjAddr: 0x3284, symBinAddr: 0x100006594, symSize: 0x30 }
  - { offsetInCU: 0x46F55, offset: 0x46F55, size: 0x8, addend: 0x0, symName: __ZNSt3__16vectorIbNS_9allocatorIbEEE3endB7v160006Ev, symObjAddr: 0x32B4, symBinAddr: 0x1000065C4, symSize: 0x30 }
  - { offsetInCU: 0x46F7B, offset: 0x46F7B, size: 0x8, addend: 0x0, symName: __ZNKSt3__114__bit_iteratorINS_6vectorIbNS_9allocatorIbEEEELb0ELm0EEdeB7v160006Ev, symObjAddr: 0x3318, symBinAddr: 0x100006628, symSize: 0x44 }
  - { offsetInCU: 0x46FA1, offset: 0x46FA1, size: 0x8, addend: 0x0, symName: __ZNKSt3__115__bit_referenceINS_6vectorIbNS_9allocatorIbEEEELb1EEcvbB7v160006Ev, symObjAddr: 0x335C, symBinAddr: 0x10000666C, symSize: 0x2C }
  - { offsetInCU: 0x46FC7, offset: 0x46FC7, size: 0x8, addend: 0x0, symName: __ZN5Graph19dfs_paths_iterativeEi9DirectionRNSt3__16vectorIbNS1_9allocatorIbEEEE, symObjAddr: 0x3388, symBinAddr: 0x100006698, symSize: 0xA68 }
  - { offsetInCU: 0x4708B, offset: 0x4708B, size: 0x8, addend: 0x0, symName: __ZNSt3__16vectorIbNS_9allocatorIbEEEaSB7v160006EOS3_, symObjAddr: 0x3DF0, symBinAddr: 0x100007100, symSize: 0x34 }
  - { offsetInCU: 0x470C2, offset: 0x470C2, size: 0x8, addend: 0x0, symName: __ZNSt3__16vectorINS_5tupleIJi9DirectionNS0_IbNS_9allocatorIbEEEEEEENS3_IS6_EEE12emplace_backIJRiRS2_RS5_EEERS6_DpOT_, symObjAddr: 0x3E24, symBinAddr: 0x100007134, symSize: 0x8C }
  - { offsetInCU: 0x4712C, offset: 0x4712C, size: 0x8, addend: 0x0, symName: __ZNSt3__114__bit_iteratorINS_6vectorIbNS_9allocatorIbEEEELb0ELm0EEppB7v160006Ev, symObjAddr: 0x3EB0, symBinAddr: 0x1000071C0, symSize: 0x5C }
  - { offsetInCU: 0x47152, offset: 0x47152, size: 0x8, addend: 0x0, symName: __ZN6andres9PartitionIiED1Ev, symObjAddr: 0x3F0C, symBinAddr: 0x10000721C, symSize: 0x2C }
  - { offsetInCU: 0x4717E, offset: 0x4717E, size: 0x8, addend: 0x0, symName: __ZN5Graph18getConnectedPixelsEi, symObjAddr: 0x3F38, symBinAddr: 0x100007248, symSize: 0x2D0 }
  - { offsetInCU: 0x4729F, offset: 0x4729F, size: 0x8, addend: 0x0, symName: __ZNSt3__15stackIiNS_5dequeIiNS_9allocatorIiEEEEEC1B7v160006Ev, symObjAddr: 0x4208, symBinAddr: 0x100007518, symSize: 0x2C }
  - { offsetInCU: 0x47406, offset: 0x47406, size: 0x8, addend: 0x0, symName: __ZNSt3__13setIiNS_4lessIiEENS_9allocatorIiEEEC1B7v160006Ev, symObjAddr: 0x4234, symBinAddr: 0x100007544, symSize: 0x2C }
  - { offsetInCU: 0x47430, offset: 0x47430, size: 0x8, addend: 0x0, symName: __ZNSt3__15stackIiNS_5dequeIiNS_9allocatorIiEEEEE4pushB7v160006ERKi, symObjAddr: 0x4260, symBinAddr: 0x100007570, symSize: 0x2C }
  - { offsetInCU: 0x47464, offset: 0x47464, size: 0x8, addend: 0x0, symName: __ZNKSt3__15stackIiNS_5dequeIiNS_9allocatorIiEEEEE5emptyB7v160006Ev, symObjAddr: 0x428C, symBinAddr: 0x10000759C, symSize: 0x28 }
  - { offsetInCU: 0x4748A, offset: 0x4748A, size: 0x8, addend: 0x0, symName: __ZNSt3__15stackIiNS_5dequeIiNS_9allocatorIiEEEEE3topB7v160006Ev, symObjAddr: 0x42B4, symBinAddr: 0x1000075C4, symSize: 0x24 }
  - { offsetInCU: 0x474B0, offset: 0x474B0, size: 0x8, addend: 0x0, symName: __ZNSt3__15stackIiNS_5dequeIiNS_9allocatorIiEEEEE3popB7v160006Ev, symObjAddr: 0x42D8, symBinAddr: 0x1000075E8, symSize: 0x24 }
  - { offsetInCU: 0x474D6, offset: 0x474D6, size: 0x8, addend: 0x0, symName: __ZNKSt3__13setIiNS_4lessIiEENS_9allocatorIiEEE5countB7v160006ERKi, symObjAddr: 0x42FC, symBinAddr: 0x10000760C, symSize: 0x2C }
  - { offsetInCU: 0x4750B, offset: 0x4750B, size: 0x8, addend: 0x0, symName: __ZNSt3__13setIiNS_4lessIiEENS_9allocatorIiEEE6insertB7v160006ERKi, symObjAddr: 0x4328, symBinAddr: 0x100007638, symSize: 0x4C }
  - { offsetInCU: 0x47540, offset: 0x47540, size: 0x8, addend: 0x0, symName: __ZNSt3__13setIiNS_4lessIiEENS_9allocatorIiEEED1B7v160006Ev, symObjAddr: 0x4374, symBinAddr: 0x100007684, symSize: 0x2C }
  - { offsetInCU: 0x4756A, offset: 0x4756A, size: 0x8, addend: 0x0, symName: __ZNSt3__15stackIiNS_5dequeIiNS_9allocatorIiEEEEED1Ev, symObjAddr: 0x43A0, symBinAddr: 0x1000076B0, symSize: 0x2C }
  - { offsetInCU: 0x47596, offset: 0x47596, size: 0x8, addend: 0x0, symName: __ZN5Graph20printConnectedPixelsEi, symObjAddr: 0x43CC, symBinAddr: 0x1000076DC, symSize: 0x228 }
  - { offsetInCU: 0x47650, offset: 0x47650, size: 0x8, addend: 0x0, symName: __ZN5Graph14findAllRegionsEv, symObjAddr: 0x45F4, symBinAddr: 0x100007904, symSize: 0x230 }
  - { offsetInCU: 0x4770B, offset: 0x4770B, size: 0x8, addend: 0x0, symName: __ZN5Graph16printProgressBarEii, symObjAddr: 0x4824, symBinAddr: 0x100007B34, symSize: 0x160 }
  - { offsetInCU: 0x477B9, offset: 0x477B9, size: 0x8, addend: 0x0, symName: __ZNSt3__16vectorINS0_IiNS_9allocatorIiEEEENS1_IS3_EEE5beginB7v160006Ev, symObjAddr: 0x4984, symBinAddr: 0x100007C94, symSize: 0x30 }
  - { offsetInCU: 0x477E1, offset: 0x477E1, size: 0x8, addend: 0x0, symName: __ZNSt3__16vectorINS0_IiNS_9allocatorIiEEEENS1_IS3_EEE3endB7v160006Ev, symObjAddr: 0x49B4, symBinAddr: 0x100007CC4, symSize: 0x30 }
  - { offsetInCU: 0x47809, offset: 0x47809, size: 0x8, addend: 0x0, symName: __ZNKSt3__111__wrap_iterIPNS_6vectorIiNS_9allocatorIiEEEEEdeB7v160006Ev, symObjAddr: 0x4A18, symBinAddr: 0x100007D28, symSize: 0x18 }
  - { offsetInCU: 0x4782F, offset: 0x4782F, size: 0x8, addend: 0x0, symName: __ZNSt3__111__wrap_iterIPNS_6vectorIiNS_9allocatorIiEEEEEppB7v160006Ev, symObjAddr: 0x4A64, symBinAddr: 0x100007D74, symSize: 0x20 }
  - { offsetInCU: 0x47855, offset: 0x47855, size: 0x8, addend: 0x0, symName: __ZNSt3__16vectorINS0_IiNS_9allocatorIiEEEENS1_IS3_EEE9push_backB7v160006ERKS3_, symObjAddr: 0x4A84, symBinAddr: 0x100007D94, symSize: 0x6C }
  - { offsetInCU: 0x4788C, offset: 0x4788C, size: 0x8, addend: 0x0, symName: __ZN5Graph13assignRegionsEv, symObjAddr: 0x4AF0, symBinAddr: 0x100007E00, symSize: 0x1D8 }
  - { offsetInCU: 0x47967, offset: 0x47967, size: 0x8, addend: 0x0, symName: __ZNSt3__16vectorIiNS_9allocatorIiEEEC1EmRKi, symObjAddr: 0x4CC8, symBinAddr: 0x100007FD8, symSize: 0x3C }
  - { offsetInCU: 0x479B1, offset: 0x479B1, size: 0x8, addend: 0x0, symName: __ZNSt3__16vectorIiNS_9allocatorIiEEEixB7v160006Em, symObjAddr: 0x4D04, symBinAddr: 0x100008014, symSize: 0x24 }
  - { offsetInCU: 0x479E8, offset: 0x479E8, size: 0x8, addend: 0x0, symName: __ZNSt3__16vectorI3RGBNS_9allocatorIS1_EEE9push_backB7v160006ERKS1_, symObjAddr: 0x4D28, symBinAddr: 0x100008038, symSize: 0x6C }
  - { offsetInCU: 0x47A1F, offset: 0x47A1F, size: 0x8, addend: 0x0, symName: __ZN5Graph17printRegionVectorEv, symObjAddr: 0x4D94, symBinAddr: 0x1000080A4, symSize: 0x1A0 }
  - { offsetInCU: 0x47A82, offset: 0x47A82, size: 0x8, addend: 0x0, symName: __ZNKSt3__16vectorINS0_IiNS_9allocatorIiEEEENS1_IS3_EEE4sizeB7v160006Ev, symObjAddr: 0x4F34, symBinAddr: 0x100008244, symSize: 0x28 }
  - { offsetInCU: 0x47AA8, offset: 0x47AA8, size: 0x8, addend: 0x0, symName: __ZN5Graph15findVectorIndexERKNSt3__16vectorINS1_IiNS0_9allocatorIiEEEENS2_IS4_EEEEi, symObjAddr: 0x4F5C, symBinAddr: 0x10000826C, symSize: 0xC4 }
  - { offsetInCU: 0x47B2C, offset: 0x47B2C, size: 0x8, addend: 0x0, symName: __ZNKSt3__16vectorINS0_IiNS_9allocatorIiEEEENS1_IS3_EEE5beginB7v160006Ev, symObjAddr: 0x509C, symBinAddr: 0x1000083AC, symSize: 0x30 }
  - { offsetInCU: 0x47B54, offset: 0x47B54, size: 0x8, addend: 0x0, symName: __ZNKSt3__16vectorINS0_IiNS_9allocatorIiEEEENS1_IS3_EEE3endB7v160006Ev, symObjAddr: 0x50CC, symBinAddr: 0x1000083DC, symSize: 0x30 }
  - { offsetInCU: 0x47B7C, offset: 0x47B7C, size: 0x8, addend: 0x0, symName: __ZN5Graph18areImagesIdenticalERKN2cv3MatES3_, symObjAddr: 0x516C, symBinAddr: 0x10000847C, symSize: 0x2A0 }
  - { offsetInCU: 0x47BE3, offset: 0x47BE3, size: 0x8, addend: 0x0, symName: __ZNK2cv7MatSizeclEv, symObjAddr: 0x5440, symBinAddr: 0x100008750, symSize: 0x3C }
  - { offsetInCU: 0x47C0C, offset: 0x47C0C, size: 0x8, addend: 0x0, symName: __ZNK2cv3Mat4typeEv, symObjAddr: 0x547C, symBinAddr: 0x10000878C, symSize: 0x1C }
  - { offsetInCU: 0x47C35, offset: 0x47C35, size: 0x8, addend: 0x0, symName: __ZN2cv11_InputArrayC1ERKNS_3MatE, symObjAddr: 0x5498, symBinAddr: 0x1000087A8, symSize: 0x34 }
  - { offsetInCU: 0x47C6F, offset: 0x47C6F, size: 0x8, addend: 0x0, symName: __ZN2cv12_OutputArrayC1ERNS_3MatE, symObjAddr: 0x54CC, symBinAddr: 0x1000087DC, symSize: 0x34 }
  - { offsetInCU: 0x47CA9, offset: 0x47CA9, size: 0x8, addend: 0x0, symName: __ZN2cv12_OutputArrayD1Ev, symObjAddr: 0x5500, symBinAddr: 0x100008810, symSize: 0x2C }
  - { offsetInCU: 0x47CD6, offset: 0x47CD6, size: 0x8, addend: 0x0, symName: __ZN2cv11_InputArrayD1Ev, symObjAddr: 0x552C, symBinAddr: 0x10000883C, symSize: 0x2C }
  - { offsetInCU: 0x47D02, offset: 0x47D02, size: 0x8, addend: 0x0, symName: __ZN2cv7MatExprD1Ev, symObjAddr: 0x5558, symBinAddr: 0x100008868, symSize: 0x2C }
  - { offsetInCU: 0x47D2F, offset: 0x47D2F, size: 0x8, addend: 0x0, symName: __ZN5Graph19generateRandomImageEii, symObjAddr: 0x5584, symBinAddr: 0x100008894, symSize: 0x1C4 }
  - { offsetInCU: 0x47DEB, offset: 0x47DEB, size: 0x8, addend: 0x0, symName: __ZN2cv3VecIhLi3EEC1Ehhh, symObjAddr: 0x5748, symBinAddr: 0x100008A58, symSize: 0x44 }
  - { offsetInCU: 0x47E44, offset: 0x47E44, size: 0x8, addend: 0x0, symName: __ZN5Graph17unionFindMulticutEv, symObjAddr: 0x57F8, symBinAddr: 0x100008B08, symSize: 0xC0 }
  - { offsetInCU: 0x47E98, offset: 0x47E98, size: 0x8, addend: 0x0, symName: __ZN6andres9PartitionImEC1Em, symObjAddr: 0x58B8, symBinAddr: 0x100008BC8, symSize: 0x34 }
  - { offsetInCU: 0x47ED1, offset: 0x47ED1, size: 0x8, addend: 0x0, symName: __ZN6andres9PartitionImE5mergeEmm, symObjAddr: 0x58EC, symBinAddr: 0x100008BFC, symSize: 0x198 }
  - { offsetInCU: 0x47F14, offset: 0x47F14, size: 0x8, addend: 0x0, symName: __ZN6andres9PartitionImE4findEm, symObjAddr: 0x5A84, symBinAddr: 0x100008D94, symSize: 0xD0 }
  - { offsetInCU: 0x47F73, offset: 0x47F73, size: 0x8, addend: 0x0, symName: __ZN6andres9PartitionImED1Ev, symObjAddr: 0x5B54, symBinAddr: 0x100008E64, symSize: 0x2C }
  - { offsetInCU: 0x47F9F, offset: 0x47F9F, size: 0x8, addend: 0x0, symName: __ZN5Graph16reconstructImageEv, symObjAddr: 0x5B80, symBinAddr: 0x100008E90, symSize: 0x2B8 }
  - { offsetInCU: 0x4802C, offset: 0x4802C, size: 0x8, addend: 0x0, symName: __ZN2cv7Scalar_IdEC1Edddd, symObjAddr: 0x5E38, symBinAddr: 0x100009148, symSize: 0x4C }
  - { offsetInCU: 0x4809A, offset: 0x4809A, size: 0x8, addend: 0x0, symName: __ZNSt3__112basic_stringIcNS_11char_traitsIcEENS_9allocatorIcEEEC1B7v160006IDnEEPKc, symObjAddr: 0x5E84, symBinAddr: 0x100009194, symSize: 0x34 }
  - { offsetInCU: 0x480D8, offset: 0x480D8, size: 0x8, addend: 0x0, symName: __ZN5Graph12labelRegionsEv, symObjAddr: 0x5EB8, symBinAddr: 0x1000091C8, symSize: 0x298 }
  - { offsetInCU: 0x4820E, offset: 0x4820E, size: 0x8, addend: 0x0, symName: __ZNSt3__15queueIiNS_5dequeIiNS_9allocatorIiEEEEEC1B7v160006Ev, symObjAddr: 0x6150, symBinAddr: 0x100009460, symSize: 0x2C }
  - { offsetInCU: 0x48238, offset: 0x48238, size: 0x8, addend: 0x0, symName: __ZNSt3__15queueIiNS_5dequeIiNS_9allocatorIiEEEEE4pushB7v160006ERKi, symObjAddr: 0x617C, symBinAddr: 0x10000948C, symSize: 0x2C }
  - { offsetInCU: 0x4826D, offset: 0x4826D, size: 0x8, addend: 0x0, symName: __ZNKSt3__15queueIiNS_5dequeIiNS_9allocatorIiEEEEE5emptyB7v160006Ev, symObjAddr: 0x61A8, symBinAddr: 0x1000094B8, symSize: 0x28 }
  - { offsetInCU: 0x48293, offset: 0x48293, size: 0x8, addend: 0x0, symName: __ZNSt3__15queueIiNS_5dequeIiNS_9allocatorIiEEEEE5frontB7v160006Ev, symObjAddr: 0x61D0, symBinAddr: 0x1000094E0, symSize: 0x24 }
  - { offsetInCU: 0x482B9, offset: 0x482B9, size: 0x8, addend: 0x0, symName: __ZNSt3__15queueIiNS_5dequeIiNS_9allocatorIiEEEEE3popB7v160006Ev, symObjAddr: 0x61F4, symBinAddr: 0x100009504, symSize: 0x24 }
  - { offsetInCU: 0x482DF, offset: 0x482DF, size: 0x8, addend: 0x0, symName: __ZNK5Graph15isValidNeighborEi, symObjAddr: 0x6218, symBinAddr: 0x100009528, symSize: 0x64 }
  - { offsetInCU: 0x48317, offset: 0x48317, size: 0x8, addend: 0x0, symName: __ZNSt3__15queueIiNS_5dequeIiNS_9allocatorIiEEEEED1Ev, symObjAddr: 0x627C, symBinAddr: 0x10000958C, symSize: 0x2C }
  - { offsetInCU: 0x48344, offset: 0x48344, size: 0x8, addend: 0x0, symName: __ZN6andres9PartitionIiEC1Ei, symObjAddr: 0x62A8, symBinAddr: 0x1000095B8, symSize: 0x34 }
  - { offsetInCU: 0x4837D, offset: 0x4837D, size: 0x8, addend: 0x0, symName: __ZN6andres9PartitionIiE5mergeEii, symObjAddr: 0x62DC, symBinAddr: 0x1000095EC, symSize: 0x198 }
  - { offsetInCU: 0x483C0, offset: 0x483C0, size: 0x8, addend: 0x0, symName: __ZN5Graph17dfs_multicut_pathEiRNSt3__16vectorIbNS0_9allocatorIbEEEERNS1_IiNS2_IiEEEERNS1_INS0_4pairIihEENS2_ISA_EEEE, symObjAddr: 0x6474, symBinAddr: 0x100009784, symSize: 0x210 }
  - { offsetInCU: 0x4849B, offset: 0x4849B, size: 0x8, addend: 0x0, symName: __ZNSt3__16vectorINS_4pairIihEENS_9allocatorIS2_EEE12emplace_backIJRiRhEEERS2_DpOT_, symObjAddr: 0x6684, symBinAddr: 0x100009994, symSize: 0x80 }
  - { offsetInCU: 0x484F1, offset: 0x484F1, size: 0x8, addend: 0x0, symName: __ZN5Graph22extract_multicut_pathsEv, symObjAddr: 0x6704, symBinAddr: 0x100009A14, symSize: 0x1C0 }
  - { offsetInCU: 0x4858A, offset: 0x4858A, size: 0x8, addend: 0x0, symName: __ZNSt3__16vectorIbNS_9allocatorIbEEEC1EmRKb, symObjAddr: 0x68C4, symBinAddr: 0x100009BD4, symSize: 0x3C }
  - { offsetInCU: 0x485D4, offset: 0x485D4, size: 0x8, addend: 0x0, symName: __ZNSt3__16vectorINS0_INS_4pairIihEENS_9allocatorIS2_EEEENS3_IS5_EEEC1B7v160006Ev, symObjAddr: 0x6900, symBinAddr: 0x100009C10, symSize: 0x2C }
  - { offsetInCU: 0x485FE, offset: 0x485FE, size: 0x8, addend: 0x0, symName: __ZNSt3__16vectorINS_4pairIihEENS_9allocatorIS2_EEEC1B7v160006Ev, symObjAddr: 0x692C, symBinAddr: 0x100009C3C, symSize: 0x2C }
  - { offsetInCU: 0x48628, offset: 0x48628, size: 0x8, addend: 0x0, symName: __ZNKSt3__16vectorINS_4pairIihEENS_9allocatorIS2_EEE5emptyB7v160006Ev, symObjAddr: 0x6958, symBinAddr: 0x100009C68, symSize: 0x28 }
  - { offsetInCU: 0x4864E, offset: 0x4864E, size: 0x8, addend: 0x0, symName: __ZNSt3__16vectorINS0_INS_4pairIihEENS_9allocatorIS2_EEEENS3_IS5_EEE9push_backB7v160006ERKS5_, symObjAddr: 0x6980, symBinAddr: 0x100009C90, symSize: 0x6C }
  - { offsetInCU: 0x48685, offset: 0x48685, size: 0x8, addend: 0x0, symName: __ZNSt3__16vectorINS_4pairIihEENS_9allocatorIS2_EEED1B7v160006Ev, symObjAddr: 0x69EC, symBinAddr: 0x100009CFC, symSize: 0x2C }
  - { offsetInCU: 0x486AF, offset: 0x486AF, size: 0x8, addend: 0x0, symName: __ZNSt3__16vectorINS0_INS_4pairIihEENS_9allocatorIS2_EEEENS3_IS5_EEED1B7v160006Ev, symObjAddr: 0x6A18, symBinAddr: 0x100009D28, symSize: 0x2C }
  - { offsetInCU: 0x486D9, offset: 0x486D9, size: 0x8, addend: 0x0, symName: __ZN5Graph15checkHorizontalEi, symObjAddr: 0x6A44, symBinAddr: 0x100009D54, symSize: 0xB4 }
  - { offsetInCU: 0x4872F, offset: 0x4872F, size: 0x8, addend: 0x0, symName: __ZN5Graph9dfs_pathsEi, symObjAddr: 0x6AF8, symBinAddr: 0x100009E08, symSize: 0x638 }
  - { offsetInCU: 0x48864, offset: 0x48864, size: 0x8, addend: 0x0, symName: __ZNSt3__118basic_stringstreamIcNS_11char_traitsIcEENS_9allocatorIcEEEC1B7v160006Ev, symObjAddr: 0x7130, symBinAddr: 0x10000A440, symSize: 0x104 }
  - { offsetInCU: 0x48894, offset: 0x48894, size: 0x8, addend: 0x0, symName: __ZNSt3__118basic_stringstreamIcNS_11char_traitsIcEENS_9allocatorIcEEED1Ev, symObjAddr: 0x7234, symBinAddr: 0x10000A544, symSize: 0x40 }
  - { offsetInCU: 0x488E0, offset: 0x488E0, size: 0x8, addend: 0x0, symName: __ZNSt3__14pairIK9DirectionNS_12basic_stringIcNS_11char_traitsIcEENS_9allocatorIcEEEEEC1B7v160006IS1_RA3_KcLPv0EEEOT_OT0_, symObjAddr: 0x7584, symBinAddr: 0x10000A894, symSize: 0x3C }
  - { offsetInCU: 0x48957, offset: 0x48957, size: 0x8, addend: 0x0, symName: __ZNSt3__14pairIK9DirectionNS_12basic_stringIcNS_11char_traitsIcEENS_9allocatorIcEEEEEC1B7v160006IS1_RA5_KcLPv0EEEOT_OT0_, symObjAddr: 0x75C0, symBinAddr: 0x10000A8D0, symSize: 0x3C }
  - { offsetInCU: 0x489CE, offset: 0x489CE, size: 0x8, addend: 0x0, symName: __ZNSt3__14pairIK9DirectionNS_12basic_stringIcNS_11char_traitsIcEENS_9allocatorIcEEEEEC1B7v160006IS1_RA6_KcLPv0EEEOT_OT0_, symObjAddr: 0x75FC, symBinAddr: 0x10000A90C, symSize: 0x3C }
  - { offsetInCU: 0x48A2C, offset: 0x48A2C, size: 0x8, addend: 0x0, symName: __ZNSt3__14pairIK9DirectionNS_12basic_stringIcNS_11char_traitsIcEENS_9allocatorIcEEEEED1Ev, symObjAddr: 0x7638, symBinAddr: 0x10000A948, symSize: 0x2C }
  - { offsetInCU: 0x48A58, offset: 0x48A58, size: 0x8, addend: 0x0, symName: __ZNSt3__113unordered_mapI9DirectionNS_12basic_stringIcNS_11char_traitsIcEENS_9allocatorIcEEEENS_4hashIS1_EENS_8equal_toIS1_EENS5_INS_4pairIKS1_S7_EEEEEC1ESt16initializer_listISE_E, symObjAddr: 0x7664, symBinAddr: 0x10000A974, symSize: 0x3C }
  - { offsetInCU: 0x48A93, offset: 0x48A93, size: 0x8, addend: 0x0, symName: __ZNSt3__113unordered_mapI9DirectionNS_12basic_stringIcNS_11char_traitsIcEENS_9allocatorIcEEEENS_4hashIS1_EENS_8equal_toIS1_EENS5_INS_4pairIKS1_S7_EEEEED1B7v160006Ev, symObjAddr: 0x76A0, symBinAddr: 0x10000A9B0, symSize: 0x2C }
  - { offsetInCU: 0x48ABD, offset: 0x48ABD, size: 0x8, addend: 0x0, symName: __ZNKSt3__113unordered_mapI9DirectionNS_12basic_stringIcNS_11char_traitsIcEENS_9allocatorIcEEEENS_4hashIS1_EENS_8equal_toIS1_EENS5_INS_4pairIKS1_S7_EEEEE4findB7v160006ERSD_, symObjAddr: 0x76CC, symBinAddr: 0x10000A9DC, symSize: 0x40 }
  - { offsetInCU: 0x48AF2, offset: 0x48AF2, size: 0x8, addend: 0x0, symName: __ZNKSt3__113unordered_mapI9DirectionNS_12basic_stringIcNS_11char_traitsIcEENS_9allocatorIcEEEENS_4hashIS1_EENS_8equal_toIS1_EENS5_INS_4pairIKS1_S7_EEEEE3endB7v160006Ev, symObjAddr: 0x773C, symBinAddr: 0x10000AA4C, symSize: 0x38 }
  - { offsetInCU: 0x48B18, offset: 0x48B18, size: 0x8, addend: 0x0, symName: __ZNKSt3__125__hash_map_const_iteratorINS_21__hash_const_iteratorIPNS_11__hash_nodeINS_17__hash_value_typeI9DirectionNS_12basic_stringIcNS_11char_traitsIcEENS_9allocatorIcEEEEEEPvEEEEEptB7v160006Ev, symObjAddr: 0x7774, symBinAddr: 0x10000AA84, symSize: 0x2C }
  - { offsetInCU: 0x48B3E, offset: 0x48B3E, size: 0x8, addend: 0x0, symName: __ZN5Graph19dfs_paths_recursiveEiRNSt3__16vectorIbNS0_9allocatorIbEEEE9DirectionS5_, symObjAddr: 0x77A0, symBinAddr: 0x10000AAB0, symSize: 0x8D0 }
  - { offsetInCU: 0x48CAA, offset: 0x48CAA, size: 0x8, addend: 0x0, symName: __ZNSt3__16vectorIbNS_9allocatorIbEEE9push_backERKb, symObjAddr: 0x8070, symBinAddr: 0x10000B380, symSize: 0xA4 }
  - { offsetInCU: 0x48CE1, offset: 0x48CE1, size: 0x8, addend: 0x0, symName: __ZNSt3__16vectorIbNS_9allocatorIbEEEC1ERKS3_, symObjAddr: 0x8114, symBinAddr: 0x10000B424, symSize: 0x34 }
  - { offsetInCU: 0x48D6D, offset: 0x48D6D, size: 0x8, addend: 0x0, symName: __ZNSt3__16bitsetILm3EEC1B7v160006Ev, symObjAddr: 0x8148, symBinAddr: 0x10000B458, symSize: 0x2C }
  - { offsetInCU: 0x48D97, offset: 0x48D97, size: 0x8, addend: 0x0, symName: __ZN5Graph11getNeighborEi9Directioni, symObjAddr: 0x8174, symBinAddr: 0x10000B484, symSize: 0x5F4 }
  - { offsetInCU: 0x48E21, offset: 0x48E21, size: 0x8, addend: 0x0, symName: __ZNSt3__16bitsetILm3EE3setB7v160006Emb, symObjAddr: 0x8778, symBinAddr: 0x10000BA88, symSize: 0x88 }
  - { offsetInCU: 0x48EAC, offset: 0x48EAC, size: 0x8, addend: 0x0, symName: __ZNSt3__15stackINS_4pairIi9DirectionEENS_5dequeIS3_NS_9allocatorIS3_EEEEEC1B7v160006Ev, symObjAddr: 0x8800, symBinAddr: 0x10000BB10, symSize: 0x2C }
  - { offsetInCU: 0x48ED6, offset: 0x48ED6, size: 0x8, addend: 0x0, symName: __ZNKSt3__15stackINS_4pairIi9DirectionEENS_5dequeIS3_NS_9allocatorIS3_EEEEE5emptyB7v160006Ev, symObjAddr: 0x882C, symBinAddr: 0x10000BB3C, symSize: 0x28 }
  - { offsetInCU: 0x48EFC, offset: 0x48EFC, size: 0x8, addend: 0x0, symName: __ZNSt3__15stackINS_4pairIi9DirectionEENS_5dequeIS3_NS_9allocatorIS3_EEEEE3popB7v160006Ev, symObjAddr: 0x8854, symBinAddr: 0x10000BB64, symSize: 0x24 }
  - { offsetInCU: 0x48F22, offset: 0x48F22, size: 0x8, addend: 0x0, symName: __ZNSt3__15stackINS_4pairIi9DirectionEENS_5dequeIS3_NS_9allocatorIS3_EEEEE4pushB7v160006EOS3_, symObjAddr: 0x8878, symBinAddr: 0x10000BB88, symSize: 0x2C }
  - { offsetInCU: 0x48F56, offset: 0x48F56, size: 0x8, addend: 0x0, symName: __ZNSt3__15stackINS_4pairIi9DirectionEENS_5dequeIS3_NS_9allocatorIS3_EEEEE3topB7v160006Ev, symObjAddr: 0x88D8, symBinAddr: 0x10000BBE8, symSize: 0x24 }
  - { offsetInCU: 0x49002, offset: 0x49002, size: 0x8, addend: 0x0, symName: __ZNSt3__15tupleIJRiR9DirectionEEaSB7v160006IiS2_Li0EEERS4_RKNS_4pairIT_T0_EE, symObjAddr: 0x8934, symBinAddr: 0x10000BC44, symSize: 0x68 }
  - { offsetInCU: 0x4904F, offset: 0x4904F, size: 0x8, addend: 0x0, symName: __ZN5Graph13nextDirectionE9Direction, symObjAddr: 0x89D0, symBinAddr: 0x10000BCE0, symSize: 0x2C }
  - { offsetInCU: 0x49087, offset: 0x49087, size: 0x8, addend: 0x0, symName: __ZN5Graph17previousDirectionE9Direction, symObjAddr: 0x8A30, symBinAddr: 0x10000BD40, symSize: 0x58 }
  - { offsetInCU: 0x490CE, offset: 0x490CE, size: 0x8, addend: 0x0, symName: __ZNSt3__15stackINS_4pairIi9DirectionEENS_5dequeIS3_NS_9allocatorIS3_EEEEED1Ev, symObjAddr: 0x8A88, symBinAddr: 0x10000BD98, symSize: 0x2C }
  - { offsetInCU: 0x490FA, offset: 0x490FA, size: 0x8, addend: 0x0, symName: __ZNK5Graph10printPathsEv, symObjAddr: 0x8AB4, symBinAddr: 0x10000BDC4, symSize: 0x288 }
  - { offsetInCU: 0x491EE, offset: 0x491EE, size: 0x8, addend: 0x0, symName: __ZNKSt3__16vectorINS_5tupleIJi9DirectionNS0_IbNS_9allocatorIbEEEEEEENS3_IS6_EEE5beginB7v160006Ev, symObjAddr: 0x8D3C, symBinAddr: 0x10000C04C, symSize: 0x30 }
  - { offsetInCU: 0x49216, offset: 0x49216, size: 0x8, addend: 0x0, symName: __ZNKSt3__16vectorINS_5tupleIJi9DirectionNS0_IbNS_9allocatorIbEEEEEEENS3_IS6_EEE3endB7v160006Ev, symObjAddr: 0x8D6C, symBinAddr: 0x10000C07C, symSize: 0x30 }
  - { offsetInCU: 0x4923E, offset: 0x4923E, size: 0x8, addend: 0x0, symName: __ZNKSt3__111__wrap_iterIPKNS_5tupleIJi9DirectionNS_6vectorIbNS_9allocatorIbEEEEEEEEdeB7v160006Ev, symObjAddr: 0x8DD0, symBinAddr: 0x10000C0E0, symSize: 0x18 }
  - { offsetInCU: 0x49264, offset: 0x49264, size: 0x8, addend: 0x0, symName: __ZNKSt3__16vectorIbNS_9allocatorIbEEE5beginB7v160006Ev, symObjAddr: 0x8E5C, symBinAddr: 0x10000C16C, symSize: 0x38 }
  - { offsetInCU: 0x4928A, offset: 0x4928A, size: 0x8, addend: 0x0, symName: __ZNKSt3__16vectorIbNS_9allocatorIbEEE3endB7v160006Ev, symObjAddr: 0x8E94, symBinAddr: 0x10000C1A4, symSize: 0x38 }
  - { offsetInCU: 0x492B0, offset: 0x492B0, size: 0x8, addend: 0x0, symName: __ZNKSt3__114__bit_iteratorINS_6vectorIbNS_9allocatorIbEEEELb1ELm0EEdeB7v160006Ev, symObjAddr: 0x8F00, symBinAddr: 0x10000C210, symSize: 0x44 }
  - { offsetInCU: 0x492D6, offset: 0x492D6, size: 0x8, addend: 0x0, symName: __ZNSt3__114__bit_iteratorINS_6vectorIbNS_9allocatorIbEEEELb1ELm0EEppB7v160006Ev, symObjAddr: 0x8F44, symBinAddr: 0x10000C254, symSize: 0x5C }
  - { offsetInCU: 0x492FC, offset: 0x492FC, size: 0x8, addend: 0x0, symName: __ZNSt3__111__wrap_iterIPKNS_5tupleIJi9DirectionNS_6vectorIbNS_9allocatorIbEEEEEEEEppB7v160006Ev, symObjAddr: 0x8FA0, symBinAddr: 0x10000C2B0, symSize: 0x20 }
  - { offsetInCU: 0x49322, offset: 0x49322, size: 0x8, addend: 0x0, symName: __ZN5Graph20reconstruct_edgeBitsEiRNSt3__16vectorIbNS0_9allocatorIbEEEE9DirectionS5_, symObjAddr: 0x8FC0, symBinAddr: 0x10000C2D0, symSize: 0x448 }
  - { offsetInCU: 0x49490, offset: 0x49490, size: 0x8, addend: 0x0, symName: __ZNSt3__15queueIbNS_5dequeIbNS_9allocatorIbEEEEEC1B7v160006Ev, symObjAddr: 0x9408, symBinAddr: 0x10000C718, symSize: 0x2C }
  - { offsetInCU: 0x494BA, offset: 0x494BA, size: 0x8, addend: 0x0, symName: __ZNSt3__15queueIbNS_5dequeIbNS_9allocatorIbEEEEE4pushB7v160006ERKb, symObjAddr: 0x9434, symBinAddr: 0x10000C744, symSize: 0x2C }
  - { offsetInCU: 0x494EF, offset: 0x494EF, size: 0x8, addend: 0x0, symName: __ZNSt3__15queueIbNS_5dequeIbNS_9allocatorIbEEEEE5frontB7v160006Ev, symObjAddr: 0x9460, symBinAddr: 0x10000C770, symSize: 0x24 }
  - { offsetInCU: 0x49515, offset: 0x49515, size: 0x8, addend: 0x0, symName: __ZNSt3__15queueIbNS_5dequeIbNS_9allocatorIbEEEEE3popB7v160006Ev, symObjAddr: 0x9484, symBinAddr: 0x10000C794, symSize: 0x24 }
  - { offsetInCU: 0x4953B, offset: 0x4953B, size: 0x8, addend: 0x0, symName: __ZNSt3__15queueIbNS_5dequeIbNS_9allocatorIbEEEEED1Ev, symObjAddr: 0x94A8, symBinAddr: 0x10000C7B8, symSize: 0x2C }
  - { offsetInCU: 0x49568, offset: 0x49568, size: 0x8, addend: 0x0, symName: __ZN5Graph30reconstruct_edgeBits_iterativeEi9DirectionRNSt3__16vectorIbNS1_9allocatorIbEEEE, symObjAddr: 0x94D4, symBinAddr: 0x10000C7E4, symSize: 0x5D8 }
  - { offsetInCU: 0x496D4, offset: 0x496D4, size: 0x8, addend: 0x0, symName: __ZNSt3__14pairIi9DirectionEC1B7v160006IiRS1_LPv0EEEOT_OT0_, symObjAddr: 0x9AAC, symBinAddr: 0x10000CDBC, symSize: 0x3C }
  - { offsetInCU: 0x49732, offset: 0x49732, size: 0x8, addend: 0x0, symName: __ZNSt3__14pairIi9DirectionEC1B7v160006IiS1_LPv0EEEOT_OT0_, symObjAddr: 0x9AE8, symBinAddr: 0x10000CDF8, symSize: 0x3C }
  - { offsetInCU: 0x49790, offset: 0x49790, size: 0x8, addend: 0x0, symName: __ZNKSt3__15stackINS_4pairIi9DirectionEENS_5dequeIS3_NS_9allocatorIS3_EEEEE4sizeB7v160006Ev, symObjAddr: 0x9B24, symBinAddr: 0x10000CE34, symSize: 0x24 }
  - { offsetInCU: 0x497B6, offset: 0x497B6, size: 0x8, addend: 0x0, symName: __ZNSt3__15stackINS_4pairIi9DirectionEENS_5dequeIS3_NS_9allocatorIS3_EEEEE4pushB7v160006ERKS3_, symObjAddr: 0x9B48, symBinAddr: 0x10000CE58, symSize: 0x2C }
  - { offsetInCU: 0x497EA, offset: 0x497EA, size: 0x8, addend: 0x0, symName: __ZNSt3__15stackINS_4pairIi9DirectionEENS_5dequeIS3_NS_9allocatorIS3_EEEEEC1B7v160006ERKS8_, symObjAddr: 0x9B74, symBinAddr: 0x10000CE84, symSize: 0x34 }
  - { offsetInCU: 0x49822, offset: 0x49822, size: 0x8, addend: 0x0, symName: __ZN5Graph19reconstructMulticutEv, symObjAddr: 0x9BA8, symBinAddr: 0x10000CEB8, symSize: 0x600 }
  - { offsetInCU: 0x499A3, offset: 0x499A3, size: 0x8, addend: 0x0, symName: __ZNSt3__13mapIiiNS_4lessIiEENS_9allocatorINS_4pairIKiiEEEEEC1B7v160006Ev, symObjAddr: 0xA1A8, symBinAddr: 0x10000D4B8, symSize: 0x2C }
  - { offsetInCU: 0x499CD, offset: 0x499CD, size: 0x8, addend: 0x0, symName: __ZNK6andres9PartitionIiE22representativeLabelingERNSt3__13mapIiiNS2_4lessIiEENS2_9allocatorINS2_4pairIKiiEEEEEE, symObjAddr: 0xA1D4, symBinAddr: 0x10000D4E4, symSize: 0x11C }
  - { offsetInCU: 0x49A2C, offset: 0x49A2C, size: 0x8, addend: 0x0, symName: __ZN6andres9PartitionIiE4findEi, symObjAddr: 0xA2F0, symBinAddr: 0x10000D600, symSize: 0xD0 }
  - { offsetInCU: 0x49A8B, offset: 0x49A8B, size: 0x8, addend: 0x0, symName: __ZNSt3__13mapIiiNS_4lessIiEENS_9allocatorINS_4pairIKiiEEEEEixERS5_, symObjAddr: 0xA3C0, symBinAddr: 0x10000D6D0, symSize: 0x80 }
  - { offsetInCU: 0x49AC2, offset: 0x49AC2, size: 0x8, addend: 0x0, symName: __ZNSt3__16vectorIbNS_9allocatorIbEEE6assignEmRKb, symObjAddr: 0xA440, symBinAddr: 0x10000D750, symSize: 0x128 }
  - { offsetInCU: 0x49B32, offset: 0x49B32, size: 0x8, addend: 0x0, symName: __ZNSt3__16vectorINS_5tupleIJi9DirectionNS0_IbNS_9allocatorIbEEEEEEENS3_IS6_EEE5beginB7v160006Ev, symObjAddr: 0xA568, symBinAddr: 0x10000D878, symSize: 0x30 }
  - { offsetInCU: 0x49B5A, offset: 0x49B5A, size: 0x8, addend: 0x0, symName: __ZNSt3__16vectorINS_5tupleIJi9DirectionNS0_IbNS_9allocatorIbEEEEEEENS3_IS6_EEE3endB7v160006Ev, symObjAddr: 0xA598, symBinAddr: 0x10000D8A8, symSize: 0x30 }
  - { offsetInCU: 0x49B82, offset: 0x49B82, size: 0x8, addend: 0x0, symName: __ZNKSt3__111__wrap_iterIPNS_5tupleIJi9DirectionNS_6vectorIbNS_9allocatorIbEEEEEEEEdeB7v160006Ev, symObjAddr: 0xA5FC, symBinAddr: 0x10000D90C, symSize: 0x18 }
  - { offsetInCU: 0x49BA8, offset: 0x49BA8, size: 0x8, addend: 0x0, symName: __ZNSt3__15tupleIJi9DirectionNS_6vectorIbNS_9allocatorIbEEEEEEC1ERKS6_, symObjAddr: 0xA614, symBinAddr: 0x10000D924, symSize: 0x34 }
  - { offsetInCU: 0x49BDE, offset: 0x49BDE, size: 0x8, addend: 0x0, symName: __ZN5Graph18logical_or_vectorsERKNSt3__16vectorIbNS0_9allocatorIbEEEES6_, symObjAddr: 0xA648, symBinAddr: 0x10000D958, symSize: 0x184 }
  - { offsetInCU: 0x49C5B, offset: 0x49C5B, size: 0x8, addend: 0x0, symName: __ZNSt3__15tupleIJi9DirectionNS_6vectorIbNS_9allocatorIbEEEEEED1Ev, symObjAddr: 0xA840, symBinAddr: 0x10000DB50, symSize: 0x2C }
  - { offsetInCU: 0x49C88, offset: 0x49C88, size: 0x8, addend: 0x0, symName: __ZNSt3__111__wrap_iterIPNS_5tupleIJi9DirectionNS_6vectorIbNS_9allocatorIbEEEEEEEEppB7v160006Ev, symObjAddr: 0xA86C, symBinAddr: 0x10000DB7C, symSize: 0x20 }
  - { offsetInCU: 0x49CAE, offset: 0x49CAE, size: 0x8, addend: 0x0, symName: __ZNKSt3__112basic_stringIcNS_11char_traitsIcEENS_9allocatorIcEEE6substrB7v160006Emm, symObjAddr: 0xA88C, symBinAddr: 0x10000DB9C, symSize: 0x68 }
  - { offsetInCU: 0x49CF2, offset: 0x49CF2, size: 0x8, addend: 0x0, symName: __ZNKSt3__112basic_stringIcNS_11char_traitsIcEENS_9allocatorIcEEE12find_last_ofB7v160006EPKcm, symObjAddr: 0xA8F4, symBinAddr: 0x10000DC04, symSize: 0x74 }
  - { offsetInCU: 0x49D38, offset: 0x49D38, size: 0x8, addend: 0x0, symName: __ZNSt3__13mapIiiNS_4lessIiEENS_9allocatorINS_4pairIKiiEEEEED1B7v160006Ev, symObjAddr: 0xAA1C, symBinAddr: 0x10000DD2C, symSize: 0x2C }
  - { offsetInCU: 0x49D62, offset: 0x49D62, size: 0x8, addend: 0x0, symName: __ZNSt16invalid_argumentC1B7v160006EPKc, symObjAddr: 0xAA48, symBinAddr: 0x10000DD58, symSize: 0x34 }
  - { offsetInCU: 0x49D9A, offset: 0x49D9A, size: 0x8, addend: 0x0, symName: __ZNSt3__16vectorIbNS_9allocatorIbEEEC1Em, symObjAddr: 0xAA7C, symBinAddr: 0x10000DD8C, symSize: 0x34 }
  - { offsetInCU: 0x49DD5, offset: 0x49DD5, size: 0x8, addend: 0x0, symName: __ZNSt3__16bitsetILm1EEC2B7v160006Ey, symObjAddr: 0xABB4, symBinAddr: 0x10000DEC4, symSize: 0x34 }
  - { offsetInCU: 0x49E0E, offset: 0x49E0E, size: 0x8, addend: 0x0, symName: __ZNSt3__18__bitsetILm1ELm1EEC2Ey, symObjAddr: 0xABE8, symBinAddr: 0x10000DEF8, symSize: 0x24 }
  - { offsetInCU: 0x49E49, offset: 0x49E49, size: 0x8, addend: 0x0, symName: __ZNKSt3__111__wrap_iterIPiE4baseB7v160006Ev, symObjAddr: 0xAC0C, symBinAddr: 0x10000DF1C, symSize: 0x18 }
  - { offsetInCU: 0x49E6F, offset: 0x49E6F, size: 0x8, addend: 0x0, symName: __ZNKSt3__111__wrap_iterIP3RGBE4baseB7v160006Ev, symObjAddr: 0xAC6C, symBinAddr: 0x10000DF7C, symSize: 0x18 }
  - { offsetInCU: 0x49E95, offset: 0x49E95, size: 0x8, addend: 0x0, symName: __ZNKSt3__111__wrap_iterIPKiE4baseB7v160006Ev, symObjAddr: 0xAC84, symBinAddr: 0x10000DF94, symSize: 0x18 }
  - { offsetInCU: 0x49EBB, offset: 0x49EBB, size: 0x8, addend: 0x0, symName: __ZNKSt3__18__bitsetILm1ELm1EE10__make_refB7v160006Em, symObjAddr: 0xAC9C, symBinAddr: 0x10000DFAC, symSize: 0x40 }
  - { offsetInCU: 0x49EF0, offset: 0x49EF0, size: 0x8, addend: 0x0, symName: __ZNSt3__121__bit_const_referenceINS_8__bitsetILm1ELm1EEEEC1B7v160006EPKmm, symObjAddr: 0xACDC, symBinAddr: 0x10000DFEC, symSize: 0x3C }
  - { offsetInCU: 0x49F36, offset: 0x49F36, size: 0x8, addend: 0x0, symName: __ZNSt3__121__bit_const_referenceINS_8__bitsetILm1ELm1EEEEC2B7v160006EPKmm, symObjAddr: 0xAD18, symBinAddr: 0x10000E028, symSize: 0x2C }
  - { offsetInCU: 0x49F87, offset: 0x49F87, size: 0x8, addend: 0x0, symName: __ZNKSt3__16__lessIiiEclB7v160006ERKiS3_, symObjAddr: 0xAD98, symBinAddr: 0x10000E0A8, symSize: 0x34 }
  - { offsetInCU: 0x49FC9, offset: 0x49FC9, size: 0x8, addend: 0x0, symName: __ZN6andres9PartitionIiED2Ev, symObjAddr: 0xAE20, symBinAddr: 0x10000E130, symSize: 0x38 }
  - { offsetInCU: 0x49FF5, offset: 0x49FF5, size: 0x8, addend: 0x0, symName: __ZNSt3__15stackIiNS_5dequeIiNS_9allocatorIiEEEEED2Ev, symObjAddr: 0xAE58, symBinAddr: 0x10000E168, symSize: 0x2C }
  - { offsetInCU: 0x4A021, offset: 0x4A021, size: 0x8, addend: 0x0, symName: __ZNSt3__15dequeIiNS_9allocatorIiEEED1B7v160006Ev, symObjAddr: 0xAE84, symBinAddr: 0x10000E194, symSize: 0x2C }
  - { offsetInCU: 0x4A04B, offset: 0x4A04B, size: 0x8, addend: 0x0, symName: __ZNSt3__15dequeIiNS_9allocatorIiEEED2B7v160006Ev, symObjAddr: 0xAEB0, symBinAddr: 0x10000E1C0, symSize: 0x9C }
  - { offsetInCU: 0x4A0A1, offset: 0x4A0A1, size: 0x8, addend: 0x0, symName: __ZNSt3__15dequeIiNS_9allocatorIiEEE5clearEv, symObjAddr: 0xAF4C, symBinAddr: 0x10000E25C, symSize: 0x180 }
  - { offsetInCU: 0x4A0FC, offset: 0x4A0FC, size: 0x8, addend: 0x0, symName: __ZNSt3__114__split_bufferIPiNS_9allocatorIS1_EEE5beginB7v160006Ev, symObjAddr: 0xB0CC, symBinAddr: 0x10000E3DC, symSize: 0x18 }
  - { offsetInCU: 0x4A122, offset: 0x4A122, size: 0x8, addend: 0x0, symName: __ZNSt3__114__split_bufferIPiNS_9allocatorIS1_EEE3endB7v160006Ev, symObjAddr: 0xB0E4, symBinAddr: 0x10000E3F4, symSize: 0x18 }
  - { offsetInCU: 0x4A148, offset: 0x4A148, size: 0x8, addend: 0x0, symName: __ZNSt3__116allocator_traitsINS_9allocatorIiEEE10deallocateB7v160006ERS2_Pim, symObjAddr: 0xB0FC, symBinAddr: 0x10000E40C, symSize: 0x34 }
  - { offsetInCU: 0x4A18A, offset: 0x4A18A, size: 0x8, addend: 0x0, symName: __ZNSt3__15dequeIiNS_9allocatorIiEEE7__allocB7v160006Ev, symObjAddr: 0xB130, symBinAddr: 0x10000E440, symSize: 0x28 }
  - { offsetInCU: 0x4A1B0, offset: 0x4A1B0, size: 0x8, addend: 0x0, symName: __ZNSt3__114__split_bufferIPiNS_9allocatorIS1_EEED1Ev, symObjAddr: 0xB158, symBinAddr: 0x10000E468, symSize: 0x2C }
  - { offsetInCU: 0x4A1DC, offset: 0x4A1DC, size: 0x8, addend: 0x0, symName: __ZNSt3__15dequeIiNS_9allocatorIiEEE5beginB7v160006Ev, symObjAddr: 0xB184, symBinAddr: 0x10000E494, symSize: 0xB8 }
  - { offsetInCU: 0x4A211, offset: 0x4A211, size: 0x8, addend: 0x0, symName: __ZNSt3__15dequeIiNS_9allocatorIiEEE3endB7v160006Ev, symObjAddr: 0xB23C, symBinAddr: 0x10000E54C, symSize: 0xBC }
  - { offsetInCU: 0x4A255, offset: 0x4A255, size: 0x8, addend: 0x0, symName: __ZNSt3__116allocator_traitsINS_9allocatorIiEEE7destroyB7v160006IivEEvRS2_PT_, symObjAddr: 0xB338, symBinAddr: 0x10000E648, symSize: 0x2C }
  - { offsetInCU: 0x4A292, offset: 0x4A292, size: 0x8, addend: 0x0, symName: __ZNKSt3__116__deque_iteratorIiPiRiPS1_lLl1024EEdeB7v160006Ev, symObjAddr: 0xB364, symBinAddr: 0x10000E674, symSize: 0x18 }
  - { offsetInCU: 0x4A2B8, offset: 0x4A2B8, size: 0x8, addend: 0x0, symName: __ZNSt3__116__deque_iteratorIiPiRiPS1_lLl1024EEppB7v160006Ev, symObjAddr: 0xB37C, symBinAddr: 0x10000E68C, symSize: 0x70 }
  - { offsetInCU: 0x4A2DE, offset: 0x4A2DE, size: 0x8, addend: 0x0, symName: __ZNSt3__15dequeIiNS_9allocatorIiEEE6__sizeB7v160006Ev, symObjAddr: 0xB3EC, symBinAddr: 0x10000E6FC, symSize: 0x28 }
  - { offsetInCU: 0x4A304, offset: 0x4A304, size: 0x8, addend: 0x0, symName: __ZNKSt3__114__split_bufferIPiNS_9allocatorIS1_EEE4sizeB7v160006Ev, symObjAddr: 0xB414, symBinAddr: 0x10000E724, symSize: 0x28 }
  - { offsetInCU: 0x4A32A, offset: 0x4A32A, size: 0x8, addend: 0x0, symName: __ZNSt3__114__split_bufferIPiNS_9allocatorIS1_EEE5frontB7v160006Ev, symObjAddr: 0xB43C, symBinAddr: 0x10000E74C, symSize: 0x18 }
  - { offsetInCU: 0x4A350, offset: 0x4A350, size: 0x8, addend: 0x0, symName: __ZNSt3__114__split_bufferIPiNS_9allocatorIS1_EEE9pop_frontB7v160006Ev, symObjAddr: 0xB454, symBinAddr: 0x10000E764, symSize: 0x2C }
  - { offsetInCU: 0x4A376, offset: 0x4A376, size: 0x8, addend: 0x0, symName: __ZNKSt3__114__split_bufferIPiNS_9allocatorIS1_EEE5emptyB7v160006Ev, symObjAddr: 0xB480, symBinAddr: 0x10000E790, symSize: 0x28 }
  - { offsetInCU: 0x4A39C, offset: 0x4A39C, size: 0x8, addend: 0x0, symName: __ZNSt3__116__deque_iteratorIiPiRiPS1_lLl1024EEC1B7v160006ES3_S1_, symObjAddr: 0xB4A8, symBinAddr: 0x10000E7B8, symSize: 0x3C }
  - { offsetInCU: 0x4A3E4, offset: 0x4A3E4, size: 0x8, addend: 0x0, symName: __ZNSt3__116__deque_iteratorIiPiRiPS1_lLl1024EEC2B7v160006ES3_S1_, symObjAddr: 0xB4E4, symBinAddr: 0x10000E7F4, symSize: 0x2C }
  - { offsetInCU: 0x4A42C, offset: 0x4A42C, size: 0x8, addend: 0x0, symName: __ZNKSt3__15dequeIiNS_9allocatorIiEEE4sizeB7v160006Ev, symObjAddr: 0xB510, symBinAddr: 0x10000E820, symSize: 0x28 }
  - { offsetInCU: 0x4A452, offset: 0x4A452, size: 0x8, addend: 0x0, symName: __ZNKSt3__15dequeIiNS_9allocatorIiEEE6__sizeB7v160006Ev, symObjAddr: 0xB538, symBinAddr: 0x10000E848, symSize: 0x28 }
  - { offsetInCU: 0x4A478, offset: 0x4A478, size: 0x8, addend: 0x0, symName: __ZNKSt3__117__compressed_pairImNS_9allocatorIiEEE5firstB7v160006Ev, symObjAddr: 0xB560, symBinAddr: 0x10000E870, symSize: 0x24 }
  - { offsetInCU: 0x4A49E, offset: 0x4A49E, size: 0x8, addend: 0x0, symName: __ZNKSt3__122__compressed_pair_elemImLi0ELb0EE5__getB7v160006Ev, symObjAddr: 0xB584, symBinAddr: 0x10000E894, symSize: 0x14 }
  - { offsetInCU: 0x4A4C4, offset: 0x4A4C4, size: 0x8, addend: 0x0, symName: __ZNSt3__19allocatorIiE7destroyB7v160006EPi, symObjAddr: 0xB5C8, symBinAddr: 0x10000E8D8, symSize: 0x14 }
  - { offsetInCU: 0x4A4F8, offset: 0x4A4F8, size: 0x8, addend: 0x0, symName: __ZNSt3__117__compressed_pairImNS_9allocatorIiEEE5firstB7v160006Ev, symObjAddr: 0xB5DC, symBinAddr: 0x10000E8EC, symSize: 0x24 }
  - { offsetInCU: 0x4A51E, offset: 0x4A51E, size: 0x8, addend: 0x0, symName: __ZNSt3__122__compressed_pair_elemImLi0ELb0EE5__getB7v160006Ev, symObjAddr: 0xB600, symBinAddr: 0x10000E910, symSize: 0x14 }
  - { offsetInCU: 0x4A544, offset: 0x4A544, size: 0x8, addend: 0x0, symName: __ZNSt3__114__split_bufferIPiNS_9allocatorIS1_EEE19__destruct_at_beginB7v160006EPS1_, symObjAddr: 0xB614, symBinAddr: 0x10000E924, symSize: 0x2C }
  - { offsetInCU: 0x4A578, offset: 0x4A578, size: 0x8, addend: 0x0, symName: __ZNSt3__114__split_bufferIPiNS_9allocatorIS1_EEE19__destruct_at_beginEPS1_NS_17integral_constantIbLb1EEE, symObjAddr: 0xB640, symBinAddr: 0x10000E950, symSize: 0x20 }
  - { offsetInCU: 0x4A5B8, offset: 0x4A5B8, size: 0x8, addend: 0x0, symName: __ZNSt3__19allocatorIiE10deallocateB7v160006EPim, symObjAddr: 0xB660, symBinAddr: 0x10000E970, symSize: 0x40 }
  - { offsetInCU: 0x4A5FA, offset: 0x4A5FA, size: 0x8, addend: 0x0, symName: __ZNSt3__117__compressed_pairImNS_9allocatorIiEEE6secondB7v160006Ev, symObjAddr: 0xB7C8, symBinAddr: 0x10000EAD8, symSize: 0x24 }
  - { offsetInCU: 0x4A620, offset: 0x4A620, size: 0x8, addend: 0x0, symName: __ZNSt3__122__compressed_pair_elemINS_9allocatorIiEELi1ELb1EE5__getB7v160006Ev, symObjAddr: 0xB7EC, symBinAddr: 0x10000EAFC, symSize: 0x14 }
  - { offsetInCU: 0x4A646, offset: 0x4A646, size: 0x8, addend: 0x0, symName: __ZNSt3__114__split_bufferIPiNS_9allocatorIS1_EEED2Ev, symObjAddr: 0xB800, symBinAddr: 0x10000EB10, symSize: 0x8C }
  - { offsetInCU: 0x4A672, offset: 0x4A672, size: 0x8, addend: 0x0, symName: __ZNSt3__114__split_bufferIPiNS_9allocatorIS1_EEE5clearB7v160006Ev, symObjAddr: 0xB88C, symBinAddr: 0x10000EB9C, symSize: 0x28 }
  - { offsetInCU: 0x4A698, offset: 0x4A698, size: 0x8, addend: 0x0, symName: __ZNSt3__116allocator_traitsINS_9allocatorIPiEEE10deallocateB7v160006ERS3_PS2_m, symObjAddr: 0xB8B4, symBinAddr: 0x10000EBC4, symSize: 0x34 }
  - { offsetInCU: 0x4A6DA, offset: 0x4A6DA, size: 0x8, addend: 0x0, symName: __ZNSt3__114__split_bufferIPiNS_9allocatorIS1_EEE7__allocB7v160006Ev, symObjAddr: 0xB8E8, symBinAddr: 0x10000EBF8, symSize: 0x28 }
  - { offsetInCU: 0x4A700, offset: 0x4A700, size: 0x8, addend: 0x0, symName: __ZNKSt3__114__split_bufferIPiNS_9allocatorIS1_EEE8capacityB7v160006Ev, symObjAddr: 0xB910, symBinAddr: 0x10000EC20, symSize: 0x40 }
  - { offsetInCU: 0x4A726, offset: 0x4A726, size: 0x8, addend: 0x0, symName: __ZNSt3__114__split_bufferIPiNS_9allocatorIS1_EEE17__destruct_at_endB7v160006EPS1_, symObjAddr: 0xB950, symBinAddr: 0x10000EC60, symSize: 0x2C }
  - { offsetInCU: 0x4A75A, offset: 0x4A75A, size: 0x8, addend: 0x0, symName: __ZNSt3__114__split_bufferIPiNS_9allocatorIS1_EEE17__destruct_at_endB7v160006EPS1_NS_17integral_constantIbLb0EEE, symObjAddr: 0xB97C, symBinAddr: 0x10000EC8C, symSize: 0x80 }
  - { offsetInCU: 0x4A79A, offset: 0x4A79A, size: 0x8, addend: 0x0, symName: __ZNSt3__116allocator_traitsINS_9allocatorIPiEEE7destroyB7v160006IS2_vEEvRS3_PT_, symObjAddr: 0xB9FC, symBinAddr: 0x10000ED0C, symSize: 0x2C }
  - { offsetInCU: 0x4A7D7, offset: 0x4A7D7, size: 0x8, addend: 0x0, symName: __ZNSt3__19allocatorIPiE7destroyB7v160006EPS1_, symObjAddr: 0xBA3C, symBinAddr: 0x10000ED4C, symSize: 0x14 }
  - { offsetInCU: 0x4A80B, offset: 0x4A80B, size: 0x8, addend: 0x0, symName: __ZNSt3__19allocatorIPiE10deallocateB7v160006EPS1_m, symObjAddr: 0xBA50, symBinAddr: 0x10000ED60, symSize: 0x40 }
  - { offsetInCU: 0x4A84D, offset: 0x4A84D, size: 0x8, addend: 0x0, symName: __ZNSt3__117__compressed_pairIPPiNS_9allocatorIS1_EEE6secondB7v160006Ev, symObjAddr: 0xBA90, symBinAddr: 0x10000EDA0, symSize: 0x24 }
  - { offsetInCU: 0x4A873, offset: 0x4A873, size: 0x8, addend: 0x0, symName: __ZNSt3__122__compressed_pair_elemINS_9allocatorIPiEELi1ELb1EE5__getB7v160006Ev, symObjAddr: 0xBAB4, symBinAddr: 0x10000EDC4, symSize: 0x14 }
  - { offsetInCU: 0x4A899, offset: 0x4A899, size: 0x8, addend: 0x0, symName: __ZNKSt3__114__split_bufferIPiNS_9allocatorIS1_EEE9__end_capB7v160006Ev, symObjAddr: 0xBAC8, symBinAddr: 0x10000EDD8, symSize: 0x28 }
  - { offsetInCU: 0x4A8BF, offset: 0x4A8BF, size: 0x8, addend: 0x0, symName: __ZNKSt3__117__compressed_pairIPPiNS_9allocatorIS1_EEE5firstB7v160006Ev, symObjAddr: 0xBAF0, symBinAddr: 0x10000EE00, symSize: 0x24 }
  - { offsetInCU: 0x4A8E5, offset: 0x4A8E5, size: 0x8, addend: 0x0, symName: __ZNKSt3__122__compressed_pair_elemIPPiLi0ELb0EE5__getB7v160006Ev, symObjAddr: 0xBB14, symBinAddr: 0x10000EE24, symSize: 0x14 }
  - { offsetInCU: 0x4A90B, offset: 0x4A90B, size: 0x8, addend: 0x0, symName: __ZNKSt3__111__wrap_iterIPNS_6vectorIiNS_9allocatorIiEEEEE4baseB7v160006Ev, symObjAddr: 0xBB70, symBinAddr: 0x10000EE80, symSize: 0x18 }
  - { offsetInCU: 0x4A931, offset: 0x4A931, size: 0x8, addend: 0x0, symName: __ZNKSt3__111__wrap_iterIPKNS_6vectorIiNS_9allocatorIiEEEEE4baseB7v160006Ev, symObjAddr: 0xBC18, symBinAddr: 0x10000EF28, symSize: 0x18 }
  - { offsetInCU: 0x4A957, offset: 0x4A957, size: 0x8, addend: 0x0, symName: __ZN2cv5Size_IiEC1Eii, symObjAddr: 0xBCA8, symBinAddr: 0x10000EFB8, symSize: 0x3C }
  - { offsetInCU: 0x4A9A1, offset: 0x4A9A1, size: 0x8, addend: 0x0, symName: __ZN2cv5Size_IiEC2Eii, symObjAddr: 0xBCE4, symBinAddr: 0x10000EFF4, symSize: 0x2C }
  - { offsetInCU: 0x4A9EB, offset: 0x4A9EB, size: 0x8, addend: 0x0, symName: __ZN2cv11_InputArrayC2ERKNS_3MatE, symObjAddr: 0xBD10, symBinAddr: 0x10000F020, symSize: 0x44 }
  - { offsetInCU: 0x4AA25, offset: 0x4AA25, size: 0x8, addend: 0x0, symName: __ZN2cv5Size_IiEC1Ev, symObjAddr: 0xBD54, symBinAddr: 0x10000F064, symSize: 0x2C }
  - { offsetInCU: 0x4AA51, offset: 0x4AA51, size: 0x8, addend: 0x0, symName: __ZN2cv11_InputArray4initEiPKv, symObjAddr: 0xBD80, symBinAddr: 0x10000F090, symSize: 0x2C }
  - { offsetInCU: 0x4AA95, offset: 0x4AA95, size: 0x8, addend: 0x0, symName: __ZN2cv5Size_IiEC2Ev, symObjAddr: 0xBDAC, symBinAddr: 0x10000F0BC, symSize: 0x1C }
  - { offsetInCU: 0x4AAC1, offset: 0x4AAC1, size: 0x8, addend: 0x0, symName: __ZN2cv12_OutputArrayC2ERNS_3MatE, symObjAddr: 0xBDC8, symBinAddr: 0x10000F0D8, symSize: 0x40 }
  - { offsetInCU: 0x4AAFB, offset: 0x4AAFB, size: 0x8, addend: 0x0, symName: __ZN2cv11_InputArrayC2Ev, symObjAddr: 0xBE08, symBinAddr: 0x10000F118, symSize: 0x40 }
  - { offsetInCU: 0x4AB27, offset: 0x4AB27, size: 0x8, addend: 0x0, symName: __ZN2cv12_OutputArrayD2Ev, symObjAddr: 0xBE48, symBinAddr: 0x10000F158, symSize: 0x2C }
  - { offsetInCU: 0x4AB54, offset: 0x4AB54, size: 0x8, addend: 0x0, symName: __ZN2cv11_InputArrayD2Ev, symObjAddr: 0xBE74, symBinAddr: 0x10000F184, symSize: 0x14 }
  - { offsetInCU: 0x4AB80, offset: 0x4AB80, size: 0x8, addend: 0x0, symName: __ZN2cv7MatExprD2Ev, symObjAddr: 0xBE88, symBinAddr: 0x10000F198, symSize: 0x48 }
  - { offsetInCU: 0x4ABAD, offset: 0x4ABAD, size: 0x8, addend: 0x0, symName: __ZNSt3__18__iom_t5C1B7v160006Ei, symObjAddr: 0xBED0, symBinAddr: 0x10000F1E0, symSize: 0x34 }
  - { offsetInCU: 0x4ABE5, offset: 0x4ABE5, size: 0x8, addend: 0x0, symName: __ZNSt3__18__iom_t5C2B7v160006Ei, symObjAddr: 0xBF04, symBinAddr: 0x10000F214, symSize: 0x20 }
  - { offsetInCU: 0x4AC1D, offset: 0x4AC1D, size: 0x8, addend: 0x0, symName: __ZN6andres9PartitionImED2Ev, symObjAddr: 0xBF24, symBinAddr: 0x10000F234, symSize: 0x38 }
  - { offsetInCU: 0x4AC49, offset: 0x4AC49, size: 0x8, addend: 0x0, symName: __ZNSt3__16vectorImNS_9allocatorImEEED1B7v160006Ev, symObjAddr: 0xBF5C, symBinAddr: 0x10000F26C, symSize: 0x2C }
  - { offsetInCU: 0x4AC73, offset: 0x4AC73, size: 0x8, addend: 0x0, symName: __ZNSt3__16vectorImNS_9allocatorImEEED2B7v160006Ev, symObjAddr: 0xBF88, symBinAddr: 0x10000F298, symSize: 0x44 }
  - { offsetInCU: 0x4AC9D, offset: 0x4AC9D, size: 0x8, addend: 0x0, symName: __ZNSt3__16vectorImNS_9allocatorImEEE16__destroy_vectorC1ERS3_, symObjAddr: 0xBFCC, symBinAddr: 0x10000F2DC, symSize: 0x34 }
  - { offsetInCU: 0x4ACD6, offset: 0x4ACD6, size: 0x8, addend: 0x0, symName: __ZNSt3__16vectorImNS_9allocatorImEEE16__destroy_vectorclB7v160006Ev, symObjAddr: 0xC000, symBinAddr: 0x10000F310, symSize: 0x9C }
  - { offsetInCU: 0x4ACFC, offset: 0x4ACFC, size: 0x8, addend: 0x0, symName: __ZNSt3__16vectorImNS_9allocatorImEEE16__destroy_vectorC2ERS3_, symObjAddr: 0xC09C, symBinAddr: 0x10000F3AC, symSize: 0x20 }
  - { offsetInCU: 0x4AD35, offset: 0x4AD35, size: 0x8, addend: 0x0, symName: __ZNKSt3__16vectorImNS_9allocatorImEEE17__annotate_deleteB7v160006Ev, symObjAddr: 0xC0BC, symBinAddr: 0x10000F3CC, symSize: 0xB8 }
  - { offsetInCU: 0x4AD5B, offset: 0x4AD5B, size: 0x8, addend: 0x0, symName: __ZNSt3__16vectorImNS_9allocatorImEEE7__clearB7v160006Ev, symObjAddr: 0xC184, symBinAddr: 0x10000F494, symSize: 0x28 }
  - { offsetInCU: 0x4AD81, offset: 0x4AD81, size: 0x8, addend: 0x0, symName: __ZNSt3__116allocator_traitsINS_9allocatorImEEE10deallocateB7v160006ERS2_Pmm, symObjAddr: 0xC1AC, symBinAddr: 0x10000F4BC, symSize: 0x34 }
  - { offsetInCU: 0x4ADC3, offset: 0x4ADC3, size: 0x8, addend: 0x0, symName: __ZNSt3__16vectorImNS_9allocatorImEEE7__allocB7v160006Ev, symObjAddr: 0xC1E0, symBinAddr: 0x10000F4F0, symSize: 0x28 }
  - { offsetInCU: 0x4ADE9, offset: 0x4ADE9, size: 0x8, addend: 0x0, symName: __ZNKSt3__16vectorImNS_9allocatorImEEE8capacityB7v160006Ev, symObjAddr: 0xC208, symBinAddr: 0x10000F518, symSize: 0x40 }
  - { offsetInCU: 0x4AE0F, offset: 0x4AE0F, size: 0x8, addend: 0x0, symName: __ZNKSt3__16vectorImNS_9allocatorImEEE31__annotate_contiguous_containerB7v160006EPKvS5_S5_S5_, symObjAddr: 0xC248, symBinAddr: 0x10000F558, symSize: 0x20 }
  - { offsetInCU: 0x4AE65, offset: 0x4AE65, size: 0x8, addend: 0x0, symName: __ZNKSt3__16vectorImNS_9allocatorImEEE4dataB7v160006Ev, symObjAddr: 0xC268, symBinAddr: 0x10000F578, symSize: 0x28 }
  - { offsetInCU: 0x4AE8B, offset: 0x4AE8B, size: 0x8, addend: 0x0, symName: __ZNKSt3__16vectorImNS_9allocatorImEEE4sizeB7v160006Ev, symObjAddr: 0xC290, symBinAddr: 0x10000F5A0, symSize: 0x28 }
  - { offsetInCU: 0x4AEB1, offset: 0x4AEB1, size: 0x8, addend: 0x0, symName: __ZNSt3__16vectorImNS_9allocatorImEEE22__base_destruct_at_endB7v160006EPm, symObjAddr: 0xC2CC, symBinAddr: 0x10000F5DC, symSize: 0x8C }
  - { offsetInCU: 0x4AEF5, offset: 0x4AEF5, size: 0x8, addend: 0x0, symName: __ZNSt3__116allocator_traitsINS_9allocatorImEEE7destroyB7v160006ImvEEvRS2_PT_, symObjAddr: 0xC358, symBinAddr: 0x10000F668, symSize: 0x2C }
  - { offsetInCU: 0x4AF32, offset: 0x4AF32, size: 0x8, addend: 0x0, symName: __ZNSt3__19allocatorImE7destroyB7v160006EPm, symObjAddr: 0xC384, symBinAddr: 0x10000F694, symSize: 0x14 }
  - { offsetInCU: 0x4AF66, offset: 0x4AF66, size: 0x8, addend: 0x0, symName: __ZNSt3__19allocatorImE10deallocateB7v160006EPmm, symObjAddr: 0xC398, symBinAddr: 0x10000F6A8, symSize: 0x40 }
  - { offsetInCU: 0x4AFA8, offset: 0x4AFA8, size: 0x8, addend: 0x0, symName: __ZNSt3__117__compressed_pairIPmNS_9allocatorImEEE6secondB7v160006Ev, symObjAddr: 0xC3D8, symBinAddr: 0x10000F6E8, symSize: 0x24 }
  - { offsetInCU: 0x4AFCE, offset: 0x4AFCE, size: 0x8, addend: 0x0, symName: __ZNSt3__122__compressed_pair_elemINS_9allocatorImEELi1ELb1EE5__getB7v160006Ev, symObjAddr: 0xC3FC, symBinAddr: 0x10000F70C, symSize: 0x14 }
  - { offsetInCU: 0x4AFF4, offset: 0x4AFF4, size: 0x8, addend: 0x0, symName: __ZNKSt3__16vectorImNS_9allocatorImEEE9__end_capB7v160006Ev, symObjAddr: 0xC410, symBinAddr: 0x10000F720, symSize: 0x28 }
  - { offsetInCU: 0x4B01A, offset: 0x4B01A, size: 0x8, addend: 0x0, symName: __ZNKSt3__117__compressed_pairIPmNS_9allocatorImEEE5firstB7v160006Ev, symObjAddr: 0xC438, symBinAddr: 0x10000F748, symSize: 0x24 }
  - { offsetInCU: 0x4B040, offset: 0x4B040, size: 0x8, addend: 0x0, symName: __ZNKSt3__122__compressed_pair_elemIPmLi0ELb0EE5__getB7v160006Ev, symObjAddr: 0xC45C, symBinAddr: 0x10000F76C, symSize: 0x14 }
  - { offsetInCU: 0x4B066, offset: 0x4B066, size: 0x8, addend: 0x0, symName: __ZNSt3__15queueIiNS_5dequeIiNS_9allocatorIiEEEEED2Ev, symObjAddr: 0xC470, symBinAddr: 0x10000F780, symSize: 0x2C }
  - { offsetInCU: 0x4B093, offset: 0x4B093, size: 0x8, addend: 0x0, symName: __ZNSt3__118basic_stringstreamIcNS_11char_traitsIcEENS_9allocatorIcEEED2Ev, symObjAddr: 0xC49C, symBinAddr: 0x10000F7AC, symSize: 0x6C }
  - { offsetInCU: 0x4B0CD, offset: 0x4B0CD, size: 0x8, addend: 0x0, symName: __ZThn16_NSt3__118basic_stringstreamIcNS_11char_traitsIcEENS_9allocatorIcEEED1Ev, symObjAddr: 0xC508, symBinAddr: 0x10000F818, symSize: 0x1C }
  - { offsetInCU: 0x4B0E4, offset: 0x4B0E4, size: 0x8, addend: 0x0, symName: __ZTv0_n24_NSt3__118basic_stringstreamIcNS_11char_traitsIcEENS_9allocatorIcEEED1Ev, symObjAddr: 0xC524, symBinAddr: 0x10000F834, symSize: 0x28 }
  - { offsetInCU: 0x4B101, offset: 0x4B101, size: 0x8, addend: 0x0, symName: __ZNSt3__115basic_stringbufIcNS_11char_traitsIcEENS_9allocatorIcEEED1Ev, symObjAddr: 0xC54C, symBinAddr: 0x10000F85C, symSize: 0x2C }
  - { offsetInCU: 0x4B12E, offset: 0x4B12E, size: 0x8, addend: 0x0, symName: __ZNSt3__115basic_stringbufIcNS_11char_traitsIcEENS_9allocatorIcEEED2Ev, symObjAddr: 0xC578, symBinAddr: 0x10000F888, symSize: 0x48 }
  - { offsetInCU: 0x4B15B, offset: 0x4B15B, size: 0x8, addend: 0x0, symName: __ZNSt3__14pairIK9DirectionNS_12basic_stringIcNS_11char_traitsIcEENS_9allocatorIcEEEEEC2B7v160006IS1_RA3_KcLPv0EEEOT_OT0_, symObjAddr: 0xC5C0, symBinAddr: 0x10000F8D0, symSize: 0x48 }
  - { offsetInCU: 0x4B1B9, offset: 0x4B1B9, size: 0x8, addend: 0x0, symName: __ZNSt3__14pairIK9DirectionNS_12basic_stringIcNS_11char_traitsIcEENS_9allocatorIcEEEEEC2B7v160006IS1_RA5_KcLPv0EEEOT_OT0_, symObjAddr: 0xC608, symBinAddr: 0x10000F918, symSize: 0x48 }
  - { offsetInCU: 0x4B217, offset: 0x4B217, size: 0x8, addend: 0x0, symName: __ZNSt3__14pairIK9DirectionNS_12basic_stringIcNS_11char_traitsIcEENS_9allocatorIcEEEEEC2B7v160006IS1_RA6_KcLPv0EEEOT_OT0_, symObjAddr: 0xC650, symBinAddr: 0x10000F960, symSize: 0x48 }
  - { offsetInCU: 0x4B275, offset: 0x4B275, size: 0x8, addend: 0x0, symName: __ZNSt3__14pairIK9DirectionNS_12basic_stringIcNS_11char_traitsIcEENS_9allocatorIcEEEEED2Ev, symObjAddr: 0xC698, symBinAddr: 0x10000F9A8, symSize: 0x30 }
  - { offsetInCU: 0x4B2A1, offset: 0x4B2A1, size: 0x8, addend: 0x0, symName: __ZNSt3__16bitsetILm3EEC2B7v160006Ev, symObjAddr: 0xC6C8, symBinAddr: 0x10000F9D8, symSize: 0x2C }
  - { offsetInCU: 0x4B2CB, offset: 0x4B2CB, size: 0x8, addend: 0x0, symName: __ZNSt3__18__bitsetILm1ELm3EEC2Ev, symObjAddr: 0xC6F4, symBinAddr: 0x10000FA04, symSize: 0x18 }
  - { offsetInCU: 0x4B2F7, offset: 0x4B2F7, size: 0x8, addend: 0x0, symName: __ZNSt3__14pairIi9DirectionEC1B7v160006IRiRS1_LPv0EEEOT_OT0_, symObjAddr: 0xC70C, symBinAddr: 0x10000FA1C, symSize: 0x3C }
  - { offsetInCU: 0x4B355, offset: 0x4B355, size: 0x8, addend: 0x0, symName: __ZNSt3__14pairIi9DirectionEC2B7v160006IRiRS1_LPv0EEEOT_OT0_, symObjAddr: 0xC748, symBinAddr: 0x10000FA58, symSize: 0x34 }
  - { offsetInCU: 0x4B3B3, offset: 0x4B3B3, size: 0x8, addend: 0x0, symName: __ZNSt3__15tupleIJRiR9DirectionEEC1B7v160006INS_4_AndELi0EEES1_S3_, symObjAddr: 0xC77C, symBinAddr: 0x10000FA8C, symSize: 0x3C }
  - { offsetInCU: 0x4B40A, offset: 0x4B40A, size: 0x8, addend: 0x0, symName: __ZNSt3__15tupleIJRiR9DirectionEEC2B7v160006INS_4_AndELi0EEES1_S3_, symObjAddr: 0xC7B8, symBinAddr: 0x10000FAC8, symSize: 0x3C }
  - { offsetInCU: 0x4B461, offset: 0x4B461, size: 0x8, addend: 0x0, symName: __ZNSt3__112__tuple_implINS_15__tuple_indicesIJLm0ELm1EEEEJRiR9DirectionEEC1B7v160006IJLm0ELm1EEJS3_S5_EJEJEJS3_S5_EEENS1_IJXspT_EEEENS_13__tuple_typesIJDpT0_EEENS1_IJXspT1_EEEENS9_IJDpT2_EEEDpOT3_, symObjAddr: 0xC7F4, symBinAddr: 0x10000FB04, symSize: 0x3C }
  - { offsetInCU: 0x4B515, offset: 0x4B515, size: 0x8, addend: 0x0, symName: __ZNSt3__112__tuple_implINS_15__tuple_indicesIJLm0ELm1EEEEJRiR9DirectionEEC2B7v160006IJLm0ELm1EEJS3_S5_EJEJEJS3_S5_EEENS1_IJXspT_EEEENS_13__tuple_typesIJDpT0_EEENS1_IJXspT1_EEEENS9_IJDpT2_EEEDpOT3_, symObjAddr: 0xC830, symBinAddr: 0x10000FB40, symSize: 0x48 }
  - { offsetInCU: 0x4B5C9, offset: 0x4B5C9, size: 0x8, addend: 0x0, symName: __ZNSt3__112__tuple_leafILm0ERiLb0EEC2B7v160006IS1_vEEOT_, symObjAddr: 0xC878, symBinAddr: 0x10000FB88, symSize: 0x20 }
  - { offsetInCU: 0x4B60C, offset: 0x4B60C, size: 0x8, addend: 0x0, symName: __ZNSt3__112__tuple_leafILm1ER9DirectionLb0EEC2B7v160006IS2_vEEOT_, symObjAddr: 0xC898, symBinAddr: 0x10000FBA8, symSize: 0x20 }
  - { offsetInCU: 0x4B64F, offset: 0x4B64F, size: 0x8, addend: 0x0, symName: __ZNSt3__15stackINS_4pairIi9DirectionEENS_5dequeIS3_NS_9allocatorIS3_EEEEED2Ev, symObjAddr: 0xC8B8, symBinAddr: 0x10000FBC8, symSize: 0x2C }
  - { offsetInCU: 0x4B67B, offset: 0x4B67B, size: 0x8, addend: 0x0, symName: __ZNSt3__15dequeINS_4pairIi9DirectionEENS_9allocatorIS3_EEED1B7v160006Ev, symObjAddr: 0xC8E4, symBinAddr: 0x10000FBF4, symSize: 0x2C }
  - { offsetInCU: 0x4B6A5, offset: 0x4B6A5, size: 0x8, addend: 0x0, symName: __ZNSt3__15dequeINS_4pairIi9DirectionEENS_9allocatorIS3_EEED2B7v160006Ev, symObjAddr: 0xC910, symBinAddr: 0x10000FC20, symSize: 0x9C }
  - { offsetInCU: 0x4B6FB, offset: 0x4B6FB, size: 0x8, addend: 0x0, symName: __ZNSt3__15dequeINS_4pairIi9DirectionEENS_9allocatorIS3_EEE5clearEv, symObjAddr: 0xC9AC, symBinAddr: 0x10000FCBC, symSize: 0x180 }
  - { offsetInCU: 0x4B756, offset: 0x4B756, size: 0x8, addend: 0x0, symName: __ZNSt3__114__split_bufferIPNS_4pairIi9DirectionEENS_9allocatorIS4_EEE5beginB7v160006Ev, symObjAddr: 0xCB2C, symBinAddr: 0x10000FE3C, symSize: 0x18 }
  - { offsetInCU: 0x4B77C, offset: 0x4B77C, size: 0x8, addend: 0x0, symName: __ZNSt3__114__split_bufferIPNS_4pairIi9DirectionEENS_9allocatorIS4_EEE3endB7v160006Ev, symObjAddr: 0xCB44, symBinAddr: 0x10000FE54, symSize: 0x18 }
  - { offsetInCU: 0x4B7A2, offset: 0x4B7A2, size: 0x8, addend: 0x0, symName: __ZNSt3__116allocator_traitsINS_9allocatorINS_4pairIi9DirectionEEEEE10deallocateB7v160006ERS5_PS4_m, symObjAddr: 0xCB5C, symBinAddr: 0x10000FE6C, symSize: 0x34 }
  - { offsetInCU: 0x4B7E4, offset: 0x4B7E4, size: 0x8, addend: 0x0, symName: __ZNSt3__15dequeINS_4pairIi9DirectionEENS_9allocatorIS3_EEE7__allocB7v160006Ev, symObjAddr: 0xCB90, symBinAddr: 0x10000FEA0, symSize: 0x28 }
  - { offsetInCU: 0x4B80A, offset: 0x4B80A, size: 0x8, addend: 0x0, symName: __ZNSt3__114__split_bufferIPNS_4pairIi9DirectionEENS_9allocatorIS4_EEED1Ev, symObjAddr: 0xCBB8, symBinAddr: 0x10000FEC8, symSize: 0x2C }
  - { offsetInCU: 0x4B836, offset: 0x4B836, size: 0x8, addend: 0x0, symName: __ZNSt3__15dequeINS_4pairIi9DirectionEENS_9allocatorIS3_EEE5beginB7v160006Ev, symObjAddr: 0xCBE4, symBinAddr: 0x10000FEF4, symSize: 0xB8 }
  - { offsetInCU: 0x4B86B, offset: 0x4B86B, size: 0x8, addend: 0x0, symName: __ZNSt3__15dequeINS_4pairIi9DirectionEENS_9allocatorIS3_EEE3endB7v160006Ev, symObjAddr: 0xCC9C, symBinAddr: 0x10000FFAC, symSize: 0xBC }
  - { offsetInCU: 0x4B8AF, offset: 0x4B8AF, size: 0x8, addend: 0x0, symName: __ZNSt3__116allocator_traitsINS_9allocatorINS_4pairIi9DirectionEEEEE7destroyB7v160006IS4_vEEvRS5_PT_, symObjAddr: 0xCD8C, symBinAddr: 0x10001009C, symSize: 0x2C }
  - { offsetInCU: 0x4B8EC, offset: 0x4B8EC, size: 0x8, addend: 0x0, symName: __ZNKSt3__116__deque_iteratorINS_4pairIi9DirectionEEPS3_RS3_PS4_lLl512EEdeB7v160006Ev, symObjAddr: 0xCDB8, symBinAddr: 0x1000100C8, symSize: 0x18 }
  - { offsetInCU: 0x4B912, offset: 0x4B912, size: 0x8, addend: 0x0, symName: __ZNSt3__116__deque_iteratorINS_4pairIi9DirectionEEPS3_RS3_PS4_lLl512EEppB7v160006Ev, symObjAddr: 0xCDD0, symBinAddr: 0x1000100E0, symSize: 0x70 }
  - { offsetInCU: 0x4B938, offset: 0x4B938, size: 0x8, addend: 0x0, symName: __ZNSt3__15dequeINS_4pairIi9DirectionEENS_9allocatorIS3_EEE6__sizeB7v160006Ev, symObjAddr: 0xCE40, symBinAddr: 0x100010150, symSize: 0x28 }
  - { offsetInCU: 0x4B95E, offset: 0x4B95E, size: 0x8, addend: 0x0, symName: __ZNKSt3__114__split_bufferIPNS_4pairIi9DirectionEENS_9allocatorIS4_EEE4sizeB7v160006Ev, symObjAddr: 0xCE68, symBinAddr: 0x100010178, symSize: 0x28 }
  - { offsetInCU: 0x4B984, offset: 0x4B984, size: 0x8, addend: 0x0, symName: __ZNSt3__114__split_bufferIPNS_4pairIi9DirectionEENS_9allocatorIS4_EEE5frontB7v160006Ev, symObjAddr: 0xCE90, symBinAddr: 0x1000101A0, symSize: 0x18 }
  - { offsetInCU: 0x4B9AA, offset: 0x4B9AA, size: 0x8, addend: 0x0, symName: __ZNSt3__114__split_bufferIPNS_4pairIi9DirectionEENS_9allocatorIS4_EEE9pop_frontB7v160006Ev, symObjAddr: 0xCEA8, symBinAddr: 0x1000101B8, symSize: 0x2C }
  - { offsetInCU: 0x4B9D0, offset: 0x4B9D0, size: 0x8, addend: 0x0, symName: __ZNKSt3__114__split_bufferIPNS_4pairIi9DirectionEENS_9allocatorIS4_EEE5emptyB7v160006Ev, symObjAddr: 0xCED4, symBinAddr: 0x1000101E4, symSize: 0x28 }
  - { offsetInCU: 0x4B9F6, offset: 0x4B9F6, size: 0x8, addend: 0x0, symName: __ZNSt3__116__deque_iteratorINS_4pairIi9DirectionEEPS3_RS3_PS4_lLl512EEC1B7v160006ES6_S4_, symObjAddr: 0xCEFC, symBinAddr: 0x10001020C, symSize: 0x3C }
  - { offsetInCU: 0x4BA3E, offset: 0x4BA3E, size: 0x8, addend: 0x0, symName: __ZNSt3__116__deque_iteratorINS_4pairIi9DirectionEEPS3_RS3_PS4_lLl512EEC2B7v160006ES6_S4_, symObjAddr: 0xCF38, symBinAddr: 0x100010248, symSize: 0x2C }
  - { offsetInCU: 0x4BA86, offset: 0x4BA86, size: 0x8, addend: 0x0, symName: __ZNKSt3__15dequeINS_4pairIi9DirectionEENS_9allocatorIS3_EEE4sizeB7v160006Ev, symObjAddr: 0xCF64, symBinAddr: 0x100010274, symSize: 0x28 }
  - { offsetInCU: 0x4BAAC, offset: 0x4BAAC, size: 0x8, addend: 0x0, symName: __ZNKSt3__15dequeINS_4pairIi9DirectionEENS_9allocatorIS3_EEE6__sizeB7v160006Ev, symObjAddr: 0xCF8C, symBinAddr: 0x10001029C, symSize: 0x28 }
  - { offsetInCU: 0x4BAD2, offset: 0x4BAD2, size: 0x8, addend: 0x0, symName: __ZNKSt3__117__compressed_pairImNS_9allocatorINS_4pairIi9DirectionEEEEE5firstB7v160006Ev, symObjAddr: 0xCFB4, symBinAddr: 0x1000102C4, symSize: 0x24 }
  - { offsetInCU: 0x4BAF8, offset: 0x4BAF8, size: 0x8, addend: 0x0, symName: __ZNSt3__19allocatorINS_4pairIi9DirectionEEE7destroyB7v160006EPS3_, symObjAddr: 0xD008, symBinAddr: 0x100010318, symSize: 0x14 }
  - { offsetInCU: 0x4BB2C, offset: 0x4BB2C, size: 0x8, addend: 0x0, symName: __ZNSt3__117__compressed_pairImNS_9allocatorINS_4pairIi9DirectionEEEEE5firstB7v160006Ev, symObjAddr: 0xD01C, symBinAddr: 0x10001032C, symSize: 0x24 }
  - { offsetInCU: 0x4BB52, offset: 0x4BB52, size: 0x8, addend: 0x0, symName: __ZNSt3__114__split_bufferIPNS_4pairIi9DirectionEENS_9allocatorIS4_EEE19__destruct_at_beginB7v160006EPS4_, symObjAddr: 0xD040, symBinAddr: 0x100010350, symSize: 0x2C }
  - { offsetInCU: 0x4BB86, offset: 0x4BB86, size: 0x8, addend: 0x0, symName: __ZNSt3__114__split_bufferIPNS_4pairIi9DirectionEENS_9allocatorIS4_EEE19__destruct_at_beginEPS4_NS_17integral_constantIbLb1EEE, symObjAddr: 0xD06C, symBinAddr: 0x10001037C, symSize: 0x20 }
  - { offsetInCU: 0x4BBC6, offset: 0x4BBC6, size: 0x8, addend: 0x0, symName: __ZNSt3__19allocatorINS_4pairIi9DirectionEEE10deallocateB7v160006EPS3_m, symObjAddr: 0xD08C, symBinAddr: 0x10001039C, symSize: 0x40 }
  - { offsetInCU: 0x4BC08, offset: 0x4BC08, size: 0x8, addend: 0x0, symName: __ZNSt3__117__compressed_pairImNS_9allocatorINS_4pairIi9DirectionEEEEE6secondB7v160006Ev, symObjAddr: 0xD0CC, symBinAddr: 0x1000103DC, symSize: 0x24 }
  - { offsetInCU: 0x4BC2E, offset: 0x4BC2E, size: 0x8, addend: 0x0, symName: __ZNSt3__122__compressed_pair_elemINS_9allocatorINS_4pairIi9DirectionEEEELi1ELb1EE5__getB7v160006Ev, symObjAddr: 0xD0F0, symBinAddr: 0x100010400, symSize: 0x14 }
  - { offsetInCU: 0x4BC54, offset: 0x4BC54, size: 0x8, addend: 0x0, symName: __ZNSt3__114__split_bufferIPNS_4pairIi9DirectionEENS_9allocatorIS4_EEED2Ev, symObjAddr: 0xD104, symBinAddr: 0x100010414, symSize: 0x8C }
  - { offsetInCU: 0x4BC80, offset: 0x4BC80, size: 0x8, addend: 0x0, symName: __ZNSt3__114__split_bufferIPNS_4pairIi9DirectionEENS_9allocatorIS4_EEE5clearB7v160006Ev, symObjAddr: 0xD190, symBinAddr: 0x1000104A0, symSize: 0x28 }
  - { offsetInCU: 0x4BCA6, offset: 0x4BCA6, size: 0x8, addend: 0x0, symName: __ZNSt3__116allocator_traitsINS_9allocatorIPNS_4pairIi9DirectionEEEEE10deallocateB7v160006ERS6_PS5_m, symObjAddr: 0xD1B8, symBinAddr: 0x1000104C8, symSize: 0x34 }
  - { offsetInCU: 0x4BCE8, offset: 0x4BCE8, size: 0x8, addend: 0x0, symName: __ZNSt3__114__split_bufferIPNS_4pairIi9DirectionEENS_9allocatorIS4_EEE7__allocB7v160006Ev, symObjAddr: 0xD1EC, symBinAddr: 0x1000104FC, symSize: 0x28 }
  - { offsetInCU: 0x4BD0E, offset: 0x4BD0E, size: 0x8, addend: 0x0, symName: __ZNKSt3__114__split_bufferIPNS_4pairIi9DirectionEENS_9allocatorIS4_EEE8capacityB7v160006Ev, symObjAddr: 0xD214, symBinAddr: 0x100010524, symSize: 0x40 }
  - { offsetInCU: 0x4BD34, offset: 0x4BD34, size: 0x8, addend: 0x0, symName: __ZNSt3__114__split_bufferIPNS_4pairIi9DirectionEENS_9allocatorIS4_EEE17__destruct_at_endB7v160006EPS4_, symObjAddr: 0xD254, symBinAddr: 0x100010564, symSize: 0x2C }
  - { offsetInCU: 0x4BD68, offset: 0x4BD68, size: 0x8, addend: 0x0, symName: __ZNSt3__114__split_bufferIPNS_4pairIi9DirectionEENS_9allocatorIS4_EEE17__destruct_at_endB7v160006EPS4_NS_17integral_constantIbLb0EEE, symObjAddr: 0xD280, symBinAddr: 0x100010590, symSize: 0x80 }
  - { offsetInCU: 0x4BDA8, offset: 0x4BDA8, size: 0x8, addend: 0x0, symName: __ZNSt3__116allocator_traitsINS_9allocatorIPNS_4pairIi9DirectionEEEEE7destroyB7v160006IS5_vEEvRS6_PT_, symObjAddr: 0xD300, symBinAddr: 0x100010610, symSize: 0x2C }
  - { offsetInCU: 0x4BDE5, offset: 0x4BDE5, size: 0x8, addend: 0x0, symName: __ZNSt3__19allocatorIPNS_4pairIi9DirectionEEE7destroyB7v160006EPS4_, symObjAddr: 0xD340, symBinAddr: 0x100010650, symSize: 0x14 }
  - { offsetInCU: 0x4BE19, offset: 0x4BE19, size: 0x8, addend: 0x0, symName: __ZNSt3__19allocatorIPNS_4pairIi9DirectionEEE10deallocateB7v160006EPS4_m, symObjAddr: 0xD354, symBinAddr: 0x100010664, symSize: 0x40 }
  - { offsetInCU: 0x4BE5B, offset: 0x4BE5B, size: 0x8, addend: 0x0, symName: __ZNSt3__117__compressed_pairIPPNS_4pairIi9DirectionEENS_9allocatorIS4_EEE6secondB7v160006Ev, symObjAddr: 0xD394, symBinAddr: 0x1000106A4, symSize: 0x24 }
  - { offsetInCU: 0x4BE81, offset: 0x4BE81, size: 0x8, addend: 0x0, symName: __ZNSt3__122__compressed_pair_elemINS_9allocatorIPNS_4pairIi9DirectionEEEELi1ELb1EE5__getB7v160006Ev, symObjAddr: 0xD3B8, symBinAddr: 0x1000106C8, symSize: 0x14 }
  - { offsetInCU: 0x4BEA7, offset: 0x4BEA7, size: 0x8, addend: 0x0, symName: __ZNKSt3__114__split_bufferIPNS_4pairIi9DirectionEENS_9allocatorIS4_EEE9__end_capB7v160006Ev, symObjAddr: 0xD3CC, symBinAddr: 0x1000106DC, symSize: 0x28 }
  - { offsetInCU: 0x4BECD, offset: 0x4BECD, size: 0x8, addend: 0x0, symName: __ZNKSt3__117__compressed_pairIPPNS_4pairIi9DirectionEENS_9allocatorIS4_EEE5firstB7v160006Ev, symObjAddr: 0xD3F4, symBinAddr: 0x100010704, symSize: 0x24 }
  - { offsetInCU: 0x4BEF3, offset: 0x4BEF3, size: 0x8, addend: 0x0, symName: __ZNKSt3__122__compressed_pair_elemIPPNS_4pairIi9DirectionEELi0ELb0EE5__getB7v160006Ev, symObjAddr: 0xD418, symBinAddr: 0x100010728, symSize: 0x14 }
  - { offsetInCU: 0x4BF19, offset: 0x4BF19, size: 0x8, addend: 0x0, symName: __ZNKSt3__111__wrap_iterIPKNS_5tupleIJi9DirectionNS_6vectorIbNS_9allocatorIbEEEEEEEE4baseB7v160006Ev, symObjAddr: 0xD474, symBinAddr: 0x100010784, symSize: 0x18 }
  - { offsetInCU: 0x4BF3F, offset: 0x4BF3F, size: 0x8, addend: 0x0, symName: __ZNKSt3__112__tuple_leafILm0EiLb0EE3getB7v160006Ev, symObjAddr: 0xD48C, symBinAddr: 0x10001079C, symSize: 0x14 }
  - { offsetInCU: 0x4BF65, offset: 0x4BF65, size: 0x8, addend: 0x0, symName: __ZNKSt3__112__tuple_leafILm1E9DirectionLb0EE3getB7v160006Ev, symObjAddr: 0xD4A0, symBinAddr: 0x1000107B0, symSize: 0x14 }
  - { offsetInCU: 0x4BF8B, offset: 0x4BF8B, size: 0x8, addend: 0x0, symName: __ZNKSt3__112__tuple_leafILm2ENS_6vectorIbNS_9allocatorIbEEEELb0EE3getB7v160006Ev, symObjAddr: 0xD4B4, symBinAddr: 0x1000107C4, symSize: 0x14 }
  - { offsetInCU: 0x4BFB1, offset: 0x4BFB1, size: 0x8, addend: 0x0, symName: __ZNSt3__15queueIbNS_5dequeIbNS_9allocatorIbEEEEED2Ev, symObjAddr: 0xD4C8, symBinAddr: 0x1000107D8, symSize: 0x2C }
  - { offsetInCU: 0x4BFDE, offset: 0x4BFDE, size: 0x8, addend: 0x0, symName: __ZNSt3__15dequeIbNS_9allocatorIbEEED1B7v160006Ev, symObjAddr: 0xD4F4, symBinAddr: 0x100010804, symSize: 0x2C }
  - { offsetInCU: 0x4C008, offset: 0x4C008, size: 0x8, addend: 0x0, symName: __ZNSt3__15dequeIbNS_9allocatorIbEEED2B7v160006Ev, symObjAddr: 0xD520, symBinAddr: 0x100010830, symSize: 0x9C }
  - { offsetInCU: 0x4C05E, offset: 0x4C05E, size: 0x8, addend: 0x0, symName: __ZNSt3__15dequeIbNS_9allocatorIbEEE5clearEv, symObjAddr: 0xD5BC, symBinAddr: 0x1000108CC, symSize: 0x180 }
  - { offsetInCU: 0x4C0B9, offset: 0x4C0B9, size: 0x8, addend: 0x0, symName: __ZNSt3__114__split_bufferIPbNS_9allocatorIS1_EEE5beginB7v160006Ev, symObjAddr: 0xD73C, symBinAddr: 0x100010A4C, symSize: 0x18 }
  - { offsetInCU: 0x4C0DF, offset: 0x4C0DF, size: 0x8, addend: 0x0, symName: __ZNSt3__114__split_bufferIPbNS_9allocatorIS1_EEE3endB7v160006Ev, symObjAddr: 0xD754, symBinAddr: 0x100010A64, symSize: 0x18 }
  - { offsetInCU: 0x4C105, offset: 0x4C105, size: 0x8, addend: 0x0, symName: __ZNSt3__116allocator_traitsINS_9allocatorIbEEE10deallocateB7v160006ERS2_Pbm, symObjAddr: 0xD76C, symBinAddr: 0x100010A7C, symSize: 0x34 }
  - { offsetInCU: 0x4C147, offset: 0x4C147, size: 0x8, addend: 0x0, symName: __ZNSt3__15dequeIbNS_9allocatorIbEEE7__allocB7v160006Ev, symObjAddr: 0xD7A0, symBinAddr: 0x100010AB0, symSize: 0x28 }
  - { offsetInCU: 0x4C16D, offset: 0x4C16D, size: 0x8, addend: 0x0, symName: __ZNSt3__114__split_bufferIPbNS_9allocatorIS1_EEED1Ev, symObjAddr: 0xD7C8, symBinAddr: 0x100010AD8, symSize: 0x2C }
  - { offsetInCU: 0x4C199, offset: 0x4C199, size: 0x8, addend: 0x0, symName: __ZNSt3__15dequeIbNS_9allocatorIbEEE5beginB7v160006Ev, symObjAddr: 0xD7F4, symBinAddr: 0x100010B04, symSize: 0xB8 }
  - { offsetInCU: 0x4C1CE, offset: 0x4C1CE, size: 0x8, addend: 0x0, symName: __ZNSt3__15dequeIbNS_9allocatorIbEEE3endB7v160006Ev, symObjAddr: 0xD8AC, symBinAddr: 0x100010BBC, symSize: 0xBC }
  - { offsetInCU: 0x4C212, offset: 0x4C212, size: 0x8, addend: 0x0, symName: __ZNSt3__116allocator_traitsINS_9allocatorIbEEE7destroyB7v160006IbvEEvRS2_PT_, symObjAddr: 0xD99C, symBinAddr: 0x100010CAC, symSize: 0x2C }
  - { offsetInCU: 0x4C24F, offset: 0x4C24F, size: 0x8, addend: 0x0, symName: __ZNKSt3__116__deque_iteratorIbPbRbPS1_lLl4096EEdeB7v160006Ev, symObjAddr: 0xD9C8, symBinAddr: 0x100010CD8, symSize: 0x18 }
  - { offsetInCU: 0x4C275, offset: 0x4C275, size: 0x8, addend: 0x0, symName: __ZNSt3__116__deque_iteratorIbPbRbPS1_lLl4096EEppB7v160006Ev, symObjAddr: 0xD9E0, symBinAddr: 0x100010CF0, symSize: 0x68 }
  - { offsetInCU: 0x4C29B, offset: 0x4C29B, size: 0x8, addend: 0x0, symName: __ZNSt3__15dequeIbNS_9allocatorIbEEE6__sizeB7v160006Ev, symObjAddr: 0xDA48, symBinAddr: 0x100010D58, symSize: 0x28 }
  - { offsetInCU: 0x4C2C1, offset: 0x4C2C1, size: 0x8, addend: 0x0, symName: __ZNKSt3__114__split_bufferIPbNS_9allocatorIS1_EEE4sizeB7v160006Ev, symObjAddr: 0xDA70, symBinAddr: 0x100010D80, symSize: 0x28 }
  - { offsetInCU: 0x4C2E7, offset: 0x4C2E7, size: 0x8, addend: 0x0, symName: __ZNSt3__114__split_bufferIPbNS_9allocatorIS1_EEE5frontB7v160006Ev, symObjAddr: 0xDA98, symBinAddr: 0x100010DA8, symSize: 0x18 }
  - { offsetInCU: 0x4C30D, offset: 0x4C30D, size: 0x8, addend: 0x0, symName: __ZNSt3__114__split_bufferIPbNS_9allocatorIS1_EEE9pop_frontB7v160006Ev, symObjAddr: 0xDAB0, symBinAddr: 0x100010DC0, symSize: 0x2C }
  - { offsetInCU: 0x4C333, offset: 0x4C333, size: 0x8, addend: 0x0, symName: __ZNKSt3__114__split_bufferIPbNS_9allocatorIS1_EEE5emptyB7v160006Ev, symObjAddr: 0xDADC, symBinAddr: 0x100010DEC, symSize: 0x28 }
  - { offsetInCU: 0x4C359, offset: 0x4C359, size: 0x8, addend: 0x0, symName: __ZNSt3__116__deque_iteratorIbPbRbPS1_lLl4096EEC1B7v160006ES3_S1_, symObjAddr: 0xDB04, symBinAddr: 0x100010E14, symSize: 0x3C }
  - { offsetInCU: 0x4C3A1, offset: 0x4C3A1, size: 0x8, addend: 0x0, symName: __ZNSt3__116__deque_iteratorIbPbRbPS1_lLl4096EEC2B7v160006ES3_S1_, symObjAddr: 0xDB40, symBinAddr: 0x100010E50, symSize: 0x2C }
  - { offsetInCU: 0x4C3E9, offset: 0x4C3E9, size: 0x8, addend: 0x0, symName: __ZNKSt3__15dequeIbNS_9allocatorIbEEE4sizeB7v160006Ev, symObjAddr: 0xDB6C, symBinAddr: 0x100010E7C, symSize: 0x28 }
  - { offsetInCU: 0x4C40F, offset: 0x4C40F, size: 0x8, addend: 0x0, symName: __ZNKSt3__15dequeIbNS_9allocatorIbEEE6__sizeB7v160006Ev, symObjAddr: 0xDB94, symBinAddr: 0x100010EA4, symSize: 0x28 }
  - { offsetInCU: 0x4C435, offset: 0x4C435, size: 0x8, addend: 0x0, symName: __ZNKSt3__117__compressed_pairImNS_9allocatorIbEEE5firstB7v160006Ev, symObjAddr: 0xDBBC, symBinAddr: 0x100010ECC, symSize: 0x24 }
  - { offsetInCU: 0x4C45B, offset: 0x4C45B, size: 0x8, addend: 0x0, symName: __ZNSt3__19allocatorIbE7destroyB7v160006EPb, symObjAddr: 0xDC10, symBinAddr: 0x100010F20, symSize: 0x14 }
  - { offsetInCU: 0x4C48F, offset: 0x4C48F, size: 0x8, addend: 0x0, symName: __ZNSt3__117__compressed_pairImNS_9allocatorIbEEE5firstB7v160006Ev, symObjAddr: 0xDC24, symBinAddr: 0x100010F34, symSize: 0x24 }
  - { offsetInCU: 0x4C4B5, offset: 0x4C4B5, size: 0x8, addend: 0x0, symName: __ZNSt3__114__split_bufferIPbNS_9allocatorIS1_EEE19__destruct_at_beginB7v160006EPS1_, symObjAddr: 0xDC48, symBinAddr: 0x100010F58, symSize: 0x2C }
  - { offsetInCU: 0x4C4E9, offset: 0x4C4E9, size: 0x8, addend: 0x0, symName: __ZNSt3__114__split_bufferIPbNS_9allocatorIS1_EEE19__destruct_at_beginEPS1_NS_17integral_constantIbLb1EEE, symObjAddr: 0xDC74, symBinAddr: 0x100010F84, symSize: 0x20 }
  - { offsetInCU: 0x4C529, offset: 0x4C529, size: 0x8, addend: 0x0, symName: __ZNSt3__19allocatorIbE10deallocateB7v160006EPbm, symObjAddr: 0xDC94, symBinAddr: 0x100010FA4, symSize: 0x40 }
  - { offsetInCU: 0x4C56B, offset: 0x4C56B, size: 0x8, addend: 0x0, symName: __ZNSt3__117__compressed_pairImNS_9allocatorIbEEE6secondB7v160006Ev, symObjAddr: 0xDCD4, symBinAddr: 0x100010FE4, symSize: 0x24 }
  - { offsetInCU: 0x4C591, offset: 0x4C591, size: 0x8, addend: 0x0, symName: __ZNSt3__122__compressed_pair_elemINS_9allocatorIbEELi1ELb1EE5__getB7v160006Ev, symObjAddr: 0xDCF8, symBinAddr: 0x100011008, symSize: 0x14 }
  - { offsetInCU: 0x4C5B7, offset: 0x4C5B7, size: 0x8, addend: 0x0, symName: __ZNSt3__114__split_bufferIPbNS_9allocatorIS1_EEED2Ev, symObjAddr: 0xDD0C, symBinAddr: 0x10001101C, symSize: 0x8C }
  - { offsetInCU: 0x4C5E3, offset: 0x4C5E3, size: 0x8, addend: 0x0, symName: __ZNSt3__114__split_bufferIPbNS_9allocatorIS1_EEE5clearB7v160006Ev, symObjAddr: 0xDD98, symBinAddr: 0x1000110A8, symSize: 0x28 }
  - { offsetInCU: 0x4C609, offset: 0x4C609, size: 0x8, addend: 0x0, symName: __ZNSt3__116allocator_traitsINS_9allocatorIPbEEE10deallocateB7v160006ERS3_PS2_m, symObjAddr: 0xDDC0, symBinAddr: 0x1000110D0, symSize: 0x34 }
  - { offsetInCU: 0x4C64B, offset: 0x4C64B, size: 0x8, addend: 0x0, symName: __ZNSt3__114__split_bufferIPbNS_9allocatorIS1_EEE7__allocB7v160006Ev, symObjAddr: 0xDDF4, symBinAddr: 0x100011104, symSize: 0x28 }
  - { offsetInCU: 0x4C671, offset: 0x4C671, size: 0x8, addend: 0x0, symName: __ZNKSt3__114__split_bufferIPbNS_9allocatorIS1_EEE8capacityB7v160006Ev, symObjAddr: 0xDE1C, symBinAddr: 0x10001112C, symSize: 0x40 }
  - { offsetInCU: 0x4C697, offset: 0x4C697, size: 0x8, addend: 0x0, symName: __ZNSt3__114__split_bufferIPbNS_9allocatorIS1_EEE17__destruct_at_endB7v160006EPS1_, symObjAddr: 0xDE5C, symBinAddr: 0x10001116C, symSize: 0x2C }
  - { offsetInCU: 0x4C6CB, offset: 0x4C6CB, size: 0x8, addend: 0x0, symName: __ZNSt3__114__split_bufferIPbNS_9allocatorIS1_EEE17__destruct_at_endB7v160006EPS1_NS_17integral_constantIbLb0EEE, symObjAddr: 0xDE88, symBinAddr: 0x100011198, symSize: 0x80 }
  - { offsetInCU: 0x4C70B, offset: 0x4C70B, size: 0x8, addend: 0x0, symName: __ZNSt3__116allocator_traitsINS_9allocatorIPbEEE7destroyB7v160006IS2_vEEvRS3_PT_, symObjAddr: 0xDF08, symBinAddr: 0x100011218, symSize: 0x2C }
  - { offsetInCU: 0x4C748, offset: 0x4C748, size: 0x8, addend: 0x0, symName: __ZNSt3__19allocatorIPbE7destroyB7v160006EPS1_, symObjAddr: 0xDF48, symBinAddr: 0x100011258, symSize: 0x14 }
  - { offsetInCU: 0x4C77C, offset: 0x4C77C, size: 0x8, addend: 0x0, symName: __ZNSt3__19allocatorIPbE10deallocateB7v160006EPS1_m, symObjAddr: 0xDF5C, symBinAddr: 0x10001126C, symSize: 0x40 }
  - { offsetInCU: 0x4C7BE, offset: 0x4C7BE, size: 0x8, addend: 0x0, symName: __ZNSt3__117__compressed_pairIPPbNS_9allocatorIS1_EEE6secondB7v160006Ev, symObjAddr: 0xDF9C, symBinAddr: 0x1000112AC, symSize: 0x24 }
  - { offsetInCU: 0x4C7E4, offset: 0x4C7E4, size: 0x8, addend: 0x0, symName: __ZNSt3__122__compressed_pair_elemINS_9allocatorIPbEELi1ELb1EE5__getB7v160006Ev, symObjAddr: 0xDFC0, symBinAddr: 0x1000112D0, symSize: 0x14 }
  - { offsetInCU: 0x4C80A, offset: 0x4C80A, size: 0x8, addend: 0x0, symName: __ZNKSt3__114__split_bufferIPbNS_9allocatorIS1_EEE9__end_capB7v160006Ev, symObjAddr: 0xDFD4, symBinAddr: 0x1000112E4, symSize: 0x28 }
  - { offsetInCU: 0x4C830, offset: 0x4C830, size: 0x8, addend: 0x0, symName: __ZNKSt3__117__compressed_pairIPPbNS_9allocatorIS1_EEE5firstB7v160006Ev, symObjAddr: 0xDFFC, symBinAddr: 0x10001130C, symSize: 0x24 }
  - { offsetInCU: 0x4C856, offset: 0x4C856, size: 0x8, addend: 0x0, symName: __ZNKSt3__122__compressed_pair_elemIPPbLi0ELb0EE5__getB7v160006Ev, symObjAddr: 0xE020, symBinAddr: 0x100011330, symSize: 0x14 }
  - { offsetInCU: 0x4C87C, offset: 0x4C87C, size: 0x8, addend: 0x0, symName: __ZNSt3__14pairIi9DirectionEC2B7v160006IiRS1_LPv0EEEOT_OT0_, symObjAddr: 0xE034, symBinAddr: 0x100011344, symSize: 0x34 }
  - { offsetInCU: 0x4C8DA, offset: 0x4C8DA, size: 0x8, addend: 0x0, symName: __ZNSt3__14pairIi9DirectionEC2B7v160006IiS1_LPv0EEEOT_OT0_, symObjAddr: 0xE068, symBinAddr: 0x100011378, symSize: 0x34 }
  - { offsetInCU: 0x4C938, offset: 0x4C938, size: 0x8, addend: 0x0, symName: __ZNKSt3__111__wrap_iterIPNS_5tupleIJi9DirectionNS_6vectorIbNS_9allocatorIbEEEEEEEE4baseB7v160006Ev, symObjAddr: 0xE0E4, symBinAddr: 0x1000113F4, symSize: 0x18 }
  - { offsetInCU: 0x4C95E, offset: 0x4C95E, size: 0x8, addend: 0x0, symName: __ZNSt3__15tupleIJi9DirectionNS_6vectorIbNS_9allocatorIbEEEEEEC2ERKS6_, symObjAddr: 0xE0FC, symBinAddr: 0x10001140C, symSize: 0x34 }
  - { offsetInCU: 0x4C994, offset: 0x4C994, size: 0x8, addend: 0x0, symName: __ZNSt3__112__tuple_implINS_15__tuple_indicesIJLm0ELm1ELm2EEEEJi9DirectionNS_6vectorIbNS_9allocatorIbEEEEEEC1ERKS8_, symObjAddr: 0xE130, symBinAddr: 0x100011440, symSize: 0x34 }
  - { offsetInCU: 0x4C9CA, offset: 0x4C9CA, size: 0x8, addend: 0x0, symName: __ZNSt3__112__tuple_implINS_15__tuple_indicesIJLm0ELm1ELm2EEEEJi9DirectionNS_6vectorIbNS_9allocatorIbEEEEEEC2ERKS8_, symObjAddr: 0xE164, symBinAddr: 0x100011474, symSize: 0x54 }
  - { offsetInCU: 0x4CA00, offset: 0x4CA00, size: 0x8, addend: 0x0, symName: __ZNSt3__112__tuple_leafILm2ENS_6vectorIbNS_9allocatorIbEEEELb0EEC2ERKS5_, symObjAddr: 0xE1B8, symBinAddr: 0x1000114C8, symSize: 0x34 }
  - { offsetInCU: 0x4CA39, offset: 0x4CA39, size: 0x8, addend: 0x0, symName: __ZNSt3__112__tuple_leafILm0EiLb0EE3getB7v160006Ev, symObjAddr: 0xE1EC, symBinAddr: 0x1000114FC, symSize: 0x14 }
  - { offsetInCU: 0x4CA5F, offset: 0x4CA5F, size: 0x8, addend: 0x0, symName: __ZNSt3__112__tuple_leafILm1E9DirectionLb0EE3getB7v160006Ev, symObjAddr: 0xE200, symBinAddr: 0x100011510, symSize: 0x14 }
  - { offsetInCU: 0x4CA85, offset: 0x4CA85, size: 0x8, addend: 0x0, symName: __ZNSt3__112__tuple_leafILm2ENS_6vectorIbNS_9allocatorIbEEEELb0EE3getB7v160006Ev, symObjAddr: 0xE214, symBinAddr: 0x100011524, symSize: 0x14 }
  - { offsetInCU: 0x4CAAB, offset: 0x4CAAB, size: 0x8, addend: 0x0, symName: __ZNSt3__15tupleIJi9DirectionNS_6vectorIbNS_9allocatorIbEEEEEED2Ev, symObjAddr: 0xE228, symBinAddr: 0x100011538, symSize: 0x2C }
  - { offsetInCU: 0x4CAD8, offset: 0x4CAD8, size: 0x8, addend: 0x0, symName: __ZNSt3__112__tuple_implINS_15__tuple_indicesIJLm0ELm1ELm2EEEEJi9DirectionNS_6vectorIbNS_9allocatorIbEEEEEED1Ev, symObjAddr: 0xE254, symBinAddr: 0x100011564, symSize: 0x2C }
  - { offsetInCU: 0x4CB05, offset: 0x4CB05, size: 0x8, addend: 0x0, symName: __ZNSt3__112__tuple_implINS_15__tuple_indicesIJLm0ELm1ELm2EEEEJi9DirectionNS_6vectorIbNS_9allocatorIbEEEEEED2Ev, symObjAddr: 0xE280, symBinAddr: 0x100011590, symSize: 0x30 }
  - { offsetInCU: 0x4CB32, offset: 0x4CB32, size: 0x8, addend: 0x0, symName: __ZNSt3__112__tuple_leafILm2ENS_6vectorIbNS_9allocatorIbEEEELb0EED2Ev, symObjAddr: 0xE2B0, symBinAddr: 0x1000115C0, symSize: 0x2C }
  - { offsetInCU: 0x4CB5F, offset: 0x4CB5F, size: 0x8, addend: 0x0, symName: __ZNSt16invalid_argumentC2B7v160006EPKc, symObjAddr: 0xE2DC, symBinAddr: 0x1000115EC, symSize: 0x4C }
  - { offsetInCU: 0x4CB97, offset: 0x4CB97, size: 0x8, addend: 0x0, symName: __ZNSt3__112basic_stringIcNS_11char_traitsIcEENS_9allocatorIcEEEC2B7v160006IDnEEPKc, symObjAddr: 0xE328, symBinAddr: 0x100011638, symSize: 0x60 }
  - { offsetInCU: 0x4CBDB, offset: 0x4CBDB, size: 0x8, addend: 0x0, symName: __ZNSt3__117__compressed_pairINS_12basic_stringIcNS_11char_traitsIcEENS_9allocatorIcEEE5__repES5_EC1B7v160006INS_18__default_init_tagESA_EEOT_OT0_, symObjAddr: 0xE388, symBinAddr: 0x100011698, symSize: 0x3C }
  - { offsetInCU: 0x4CC33, offset: 0x4CC33, size: 0x8, addend: 0x0, symName: __ZNSt3__111char_traitsIcE6lengthEPKc, symObjAddr: 0xE3C4, symBinAddr: 0x1000116D4, symSize: 0x34 }
  - { offsetInCU: 0x4CC56, offset: 0x4CC56, size: 0x8, addend: 0x0, symName: __ZNSt3__117__compressed_pairINS_12basic_stringIcNS_11char_traitsIcEENS_9allocatorIcEEE5__repES5_EC2B7v160006INS_18__default_init_tagESA_EEOT_OT0_, symObjAddr: 0xE408, symBinAddr: 0x100011718, symSize: 0x3C }
  - { offsetInCU: 0x4CCAE, offset: 0x4CCAE, size: 0x8, addend: 0x0, symName: __ZNSt3__122__compressed_pair_elemINS_12basic_stringIcNS_11char_traitsIcEENS_9allocatorIcEEE5__repELi0ELb0EEC2B7v160006ENS_18__default_init_tagE, symObjAddr: 0xE444, symBinAddr: 0x100011754, symSize: 0x14 }
  - { offsetInCU: 0x4CCE2, offset: 0x4CCE2, size: 0x8, addend: 0x0, symName: __ZNSt3__122__compressed_pair_elemINS_9allocatorIcEELi1ELb1EEC2B7v160006ENS_18__default_init_tagE, symObjAddr: 0xE458, symBinAddr: 0x100011768, symSize: 0x2C }
  - { offsetInCU: 0x4CD16, offset: 0x4CD16, size: 0x8, addend: 0x0, symName: __ZNSt3__19allocatorIcEC2B7v160006Ev, symObjAddr: 0xE484, symBinAddr: 0x100011794, symSize: 0x2C }
  - { offsetInCU: 0x4CD40, offset: 0x4CD40, size: 0x8, addend: 0x0, symName: __ZNSt3__116__non_trivial_ifILb1ENS_9allocatorIcEEEC2B7v160006Ev, symObjAddr: 0xE4B0, symBinAddr: 0x1000117C0, symSize: 0x14 }
  - { offsetInCU: 0x4CD6A, offset: 0x4CD6A, size: 0x8, addend: 0x0, symName: __ZNSt3__112basic_stringIcNS_11char_traitsIcEENS_9allocatorIcEEEC2B7v160006Ev, symObjAddr: 0xE4E8, symBinAddr: 0x1000117F8, symSize: 0x50 }
  - { offsetInCU: 0x4CD94, offset: 0x4CD94, size: 0x8, addend: 0x0, symName: __ZNSt3__112basic_stringIcNS_11char_traitsIcEENS_9allocatorIcEEE14__default_initB7v160006Ev, symObjAddr: 0xE538, symBinAddr: 0x100011848, symSize: 0x40 }
  - { offsetInCU: 0x4CDBA, offset: 0x4CDBA, size: 0x8, addend: 0x0, symName: __ZNSt3__117__compressed_pairINS_12basic_stringIcNS_11char_traitsIcEENS_9allocatorIcEEE5__repES5_E5firstB7v160006Ev, symObjAddr: 0xE578, symBinAddr: 0x100011888, symSize: 0x24 }
  - { offsetInCU: 0x4CDE0, offset: 0x4CDE0, size: 0x8, addend: 0x0, symName: __ZNSt3__122__compressed_pair_elemINS_12basic_stringIcNS_11char_traitsIcEENS_9allocatorIcEEE5__repELi0ELb0EE5__getB7v160006Ev, symObjAddr: 0xE59C, symBinAddr: 0x1000118AC, symSize: 0x14 }
  - { offsetInCU: 0x4CE29, offset: 0x4CE29, size: 0x8, addend: 0x0, symName: __ZNKSt3__113basic_ostreamIcNS_11char_traitsIcEEE6sentrycvbB7v160006Ev, symObjAddr: 0xE79C, symBinAddr: 0x100011AAC, symSize: 0x1C }
  - { offsetInCU: 0x4CE4F, offset: 0x4CE4F, size: 0x8, addend: 0x0, symName: __ZNSt3__119ostreambuf_iteratorIcNS_11char_traitsIcEEEC1B7v160006ERNS_13basic_ostreamIcS2_EE, symObjAddr: 0xE9F8, symBinAddr: 0x100011D08, symSize: 0x34 }
  - { offsetInCU: 0x4CE87, offset: 0x4CE87, size: 0x8, addend: 0x0, symName: __ZNKSt3__18ios_base5flagsB7v160006Ev, symObjAddr: 0xEA2C, symBinAddr: 0x100011D3C, symSize: 0x18 }
  - { offsetInCU: 0x4CEAF, offset: 0x4CEAF, size: 0x8, addend: 0x0, symName: __ZNKSt3__19basic_iosIcNS_11char_traitsIcEEE4fillB7v160006Ev, symObjAddr: 0xEA44, symBinAddr: 0x100011D54, symSize: 0x64 }
  - { offsetInCU: 0x4CED7, offset: 0x4CED7, size: 0x8, addend: 0x0, symName: __ZNKSt3__119ostreambuf_iteratorIcNS_11char_traitsIcEEE6failedB7v160006Ev, symObjAddr: 0xEAA8, symBinAddr: 0x100011DB8, symSize: 0x24 }
  - { offsetInCU: 0x4CEFD, offset: 0x4CEFD, size: 0x8, addend: 0x0, symName: __ZNSt3__19basic_iosIcNS_11char_traitsIcEEE8setstateB7v160006Ej, symObjAddr: 0xEACC, symBinAddr: 0x100011DDC, symSize: 0x2C }
  - { offsetInCU: 0x4CF32, offset: 0x4CF32, size: 0x8, addend: 0x0, symName: __ZNKSt3__18ios_base5widthB7v160006Ev, symObjAddr: 0xEAF8, symBinAddr: 0x100011E08, symSize: 0x18 }
  - { offsetInCU: 0x4CF5A, offset: 0x4CF5A, size: 0x8, addend: 0x0, symName: __ZNSt3__115basic_streambufIcNS_11char_traitsIcEEE5sputnB7v160006EPKcl, symObjAddr: 0xEB10, symBinAddr: 0x100011E20, symSize: 0x3C }
  - { offsetInCU: 0x4CF9C, offset: 0x4CF9C, size: 0x8, addend: 0x0, symName: __ZNSt3__112basic_stringIcNS_11char_traitsIcEENS_9allocatorIcEEEC1B7v160006Emc, symObjAddr: 0xEB4C, symBinAddr: 0x100011E5C, symSize: 0x3C }
  - { offsetInCU: 0x4CFE4, offset: 0x4CFE4, size: 0x8, addend: 0x0, symName: __ZNSt3__112basic_stringIcNS_11char_traitsIcEENS_9allocatorIcEEE4dataB7v160006Ev, symObjAddr: 0xEB88, symBinAddr: 0x100011E98, symSize: 0x28 }
  - { offsetInCU: 0x4D00A, offset: 0x4D00A, size: 0x8, addend: 0x0, symName: __ZNSt3__18ios_base5widthB7v160006El, symObjAddr: 0xEBB0, symBinAddr: 0x100011EC0, symSize: 0x2C }
  - { offsetInCU: 0x4D050, offset: 0x4D050, size: 0x8, addend: 0x0, symName: __ZNSt3__112basic_stringIcNS_11char_traitsIcEENS_9allocatorIcEEEC2B7v160006Emc, symObjAddr: 0xEBDC, symBinAddr: 0x100011EEC, symSize: 0x54 }
  - { offsetInCU: 0x4D098, offset: 0x4D098, size: 0x8, addend: 0x0, symName: __ZNSt3__112basic_stringIcNS_11char_traitsIcEENS_9allocatorIcEEE13__get_pointerB7v160006Ev, symObjAddr: 0xEC44, symBinAddr: 0x100011F54, symSize: 0x54 }
  - { offsetInCU: 0x4D0BE, offset: 0x4D0BE, size: 0x8, addend: 0x0, symName: __ZNKSt3__112basic_stringIcNS_11char_traitsIcEENS_9allocatorIcEEE9__is_longB7v160006Ev, symObjAddr: 0xEC98, symBinAddr: 0x100011FA8, symSize: 0x38 }
  - { offsetInCU: 0x4D0E4, offset: 0x4D0E4, size: 0x8, addend: 0x0, symName: __ZNSt3__112basic_stringIcNS_11char_traitsIcEENS_9allocatorIcEEE18__get_long_pointerB7v160006Ev, symObjAddr: 0xECD0, symBinAddr: 0x100011FE0, symSize: 0x28 }
  - { offsetInCU: 0x4D10A, offset: 0x4D10A, size: 0x8, addend: 0x0, symName: __ZNSt3__112basic_stringIcNS_11char_traitsIcEENS_9allocatorIcEEE19__get_short_pointerB7v160006Ev, symObjAddr: 0xECF8, symBinAddr: 0x100012008, symSize: 0x28 }
  - { offsetInCU: 0x4D130, offset: 0x4D130, size: 0x8, addend: 0x0, symName: __ZNKSt3__117__compressed_pairINS_12basic_stringIcNS_11char_traitsIcEENS_9allocatorIcEEE5__repES5_E5firstB7v160006Ev, symObjAddr: 0xED20, symBinAddr: 0x100012030, symSize: 0x24 }
  - { offsetInCU: 0x4D156, offset: 0x4D156, size: 0x8, addend: 0x0, symName: __ZNKSt3__122__compressed_pair_elemINS_12basic_stringIcNS_11char_traitsIcEENS_9allocatorIcEEE5__repELi0ELb0EE5__getB7v160006Ev, symObjAddr: 0xED44, symBinAddr: 0x100012054, symSize: 0x14 }
  - { offsetInCU: 0x4D17C, offset: 0x4D17C, size: 0x8, addend: 0x0, symName: __ZNSt3__114pointer_traitsIPcE10pointer_toB7v160006ERc, symObjAddr: 0xED58, symBinAddr: 0x100012068, symSize: 0x14 }
  - { offsetInCU: 0x4D19F, offset: 0x4D19F, size: 0x8, addend: 0x0, symName: __ZNSt3__119ostreambuf_iteratorIcNS_11char_traitsIcEEEC2B7v160006ERNS_13basic_ostreamIcS2_EE, symObjAddr: 0xED6C, symBinAddr: 0x10001207C, symSize: 0x54 }
  - { offsetInCU: 0x4D1D7, offset: 0x4D1D7, size: 0x8, addend: 0x0, symName: __ZNKSt3__19basic_iosIcNS_11char_traitsIcEEE5rdbufB7v160006Ev, symObjAddr: 0xEDC0, symBinAddr: 0x1000120D0, symSize: 0x24 }
  - { offsetInCU: 0x4D1FF, offset: 0x4D1FF, size: 0x8, addend: 0x0, symName: __ZNKSt3__18ios_base5rdbufB7v160006Ev, symObjAddr: 0xEDE4, symBinAddr: 0x1000120F4, symSize: 0x18 }
  - { offsetInCU: 0x4D225, offset: 0x4D225, size: 0x8, addend: 0x0, symName: __ZNSt3__111char_traitsIcE11eq_int_typeEii, symObjAddr: 0xEDFC, symBinAddr: 0x10001210C, symSize: 0x28 }
  - { offsetInCU: 0x4D256, offset: 0x4D256, size: 0x8, addend: 0x0, symName: __ZNSt3__111char_traitsIcE3eofEv, symObjAddr: 0xEE24, symBinAddr: 0x100012134, symSize: 0x8 }
  - { offsetInCU: 0x4D26A, offset: 0x4D26A, size: 0x8, addend: 0x0, symName: __ZNKSt3__19basic_iosIcNS_11char_traitsIcEEE5widenB7v160006Ec, symObjAddr: 0xEE2C, symBinAddr: 0x10001213C, symSize: 0x84 }
  - { offsetInCU: 0x4D2DA, offset: 0x4D2DA, size: 0x8, addend: 0x0, symName: __ZNKSt3__15ctypeIcE5widenB7v160006Ec, symObjAddr: 0xEEDC, symBinAddr: 0x1000121EC, symSize: 0x38 }
  - { offsetInCU: 0x4D30F, offset: 0x4D30F, size: 0x8, addend: 0x0, symName: __ZNSt3__18ios_base8setstateB7v160006Ej, symObjAddr: 0xEF14, symBinAddr: 0x100012224, symSize: 0x34 }
  - { offsetInCU: 0x4D346, offset: 0x4D346, size: 0x8, addend: 0x0, symName: __ZNKSt3__112basic_stringIcNS_11char_traitsIcEENS_9allocatorIcEEE4dataB7v160006Ev, symObjAddr: 0xEF48, symBinAddr: 0x100012258, symSize: 0x28 }
  - { offsetInCU: 0x4D36C, offset: 0x4D36C, size: 0x8, addend: 0x0, symName: __ZNKSt3__112basic_stringIcNS_11char_traitsIcEENS_9allocatorIcEEE4sizeB7v160006Ev, symObjAddr: 0xEF70, symBinAddr: 0x100012280, symSize: 0x54 }
  - { offsetInCU: 0x4D392, offset: 0x4D392, size: 0x8, addend: 0x0, symName: __ZNKSt3__112basic_stringIcNS_11char_traitsIcEENS_9allocatorIcEEE13__get_pointerB7v160006Ev, symObjAddr: 0xEFD8, symBinAddr: 0x1000122E8, symSize: 0x54 }
  - { offsetInCU: 0x4D3B8, offset: 0x4D3B8, size: 0x8, addend: 0x0, symName: __ZNKSt3__112basic_stringIcNS_11char_traitsIcEENS_9allocatorIcEEE18__get_long_pointerB7v160006Ev, symObjAddr: 0xF02C, symBinAddr: 0x10001233C, symSize: 0x28 }
  - { offsetInCU: 0x4D3DE, offset: 0x4D3DE, size: 0x8, addend: 0x0, symName: __ZNKSt3__112basic_stringIcNS_11char_traitsIcEENS_9allocatorIcEEE19__get_short_pointerB7v160006Ev, symObjAddr: 0xF054, symBinAddr: 0x100012364, symSize: 0x28 }
  - { offsetInCU: 0x4D404, offset: 0x4D404, size: 0x8, addend: 0x0, symName: __ZNSt3__114pointer_traitsIPKcE10pointer_toB7v160006ERS1_, symObjAddr: 0xF07C, symBinAddr: 0x10001238C, symSize: 0x14 }
  - { offsetInCU: 0x4D427, offset: 0x4D427, size: 0x8, addend: 0x0, symName: __ZNKSt3__112basic_stringIcNS_11char_traitsIcEENS_9allocatorIcEEE15__get_long_sizeB7v160006Ev, symObjAddr: 0xF090, symBinAddr: 0x1000123A0, symSize: 0x28 }
  - { offsetInCU: 0x4D44D, offset: 0x4D44D, size: 0x8, addend: 0x0, symName: __ZNKSt3__112basic_stringIcNS_11char_traitsIcEENS_9allocatorIcEEE16__get_short_sizeB7v160006Ev, symObjAddr: 0xF0B8, symBinAddr: 0x1000123C8, symSize: 0x34 }
  - { offsetInCU: 0x4D473, offset: 0x4D473, size: 0x8, addend: 0x0, symName: __ZNSt3__16vectorIiNS_9allocatorIiEEEC2B7v160006Ev, symObjAddr: 0xF0EC, symBinAddr: 0x1000123FC, symSize: 0x58 }
  - { offsetInCU: 0x4D4A3, offset: 0x4D4A3, size: 0x8, addend: 0x0, symName: __ZNSt3__117__compressed_pairIPiNS_9allocatorIiEEEC1B7v160006IDnNS_18__default_init_tagEEEOT_OT0_, symObjAddr: 0xF144, symBinAddr: 0x100012454, symSize: 0x3C }
  - { offsetInCU: 0x4D4FB, offset: 0x4D4FB, size: 0x8, addend: 0x0, symName: __ZNSt3__117__compressed_pairIPiNS_9allocatorIiEEEC2B7v160006IDnNS_18__default_init_tagEEEOT_OT0_, symObjAddr: 0xF190, symBinAddr: 0x1000124A0, symSize: 0x40 }
  - { offsetInCU: 0x4D553, offset: 0x4D553, size: 0x8, addend: 0x0, symName: __ZNSt3__122__compressed_pair_elemIPiLi0ELb0EEC2B7v160006IDnvEEOT_, symObjAddr: 0xF1D0, symBinAddr: 0x1000124E0, symSize: 0x1C }
  - { offsetInCU: 0x4D595, offset: 0x4D595, size: 0x8, addend: 0x0, symName: __ZNSt3__122__compressed_pair_elemINS_9allocatorIiEELi1ELb1EEC2B7v160006ENS_18__default_init_tagE, symObjAddr: 0xF1EC, symBinAddr: 0x1000124FC, symSize: 0x2C }
  - { offsetInCU: 0x4D5C9, offset: 0x4D5C9, size: 0x8, addend: 0x0, symName: __ZNSt3__19allocatorIiEC2B7v160006Ev, symObjAddr: 0xF218, symBinAddr: 0x100012528, symSize: 0x2C }
  - { offsetInCU: 0x4D5F3, offset: 0x4D5F3, size: 0x8, addend: 0x0, symName: __ZNSt3__116__non_trivial_ifILb1ENS_9allocatorIiEEEC2B7v160006Ev, symObjAddr: 0xF244, symBinAddr: 0x100012554, symSize: 0x14 }
  - { offsetInCU: 0x4D61D, offset: 0x4D61D, size: 0x8, addend: 0x0, symName: __ZNSt3__16vectorIiNS_9allocatorIiEEED2B7v160006Ev, symObjAddr: 0xF258, symBinAddr: 0x100012568, symSize: 0x44 }
  - { offsetInCU: 0x4D647, offset: 0x4D647, size: 0x8, addend: 0x0, symName: __ZNSt3__16vectorIiNS_9allocatorIiEEE16__destroy_vectorC1ERS3_, symObjAddr: 0xF29C, symBinAddr: 0x1000125AC, symSize: 0x34 }
  - { offsetInCU: 0x4D680, offset: 0x4D680, size: 0x8, addend: 0x0, symName: __ZNSt3__16vectorIiNS_9allocatorIiEEE16__destroy_vectorclB7v160006Ev, symObjAddr: 0xF2D0, symBinAddr: 0x1000125E0, symSize: 0x9C }
  - { offsetInCU: 0x4D6A6, offset: 0x4D6A6, size: 0x8, addend: 0x0, symName: __ZNSt3__16vectorIiNS_9allocatorIiEEE16__destroy_vectorC2ERS3_, symObjAddr: 0xF36C, symBinAddr: 0x10001267C, symSize: 0x20 }
  - { offsetInCU: 0x4D6DF, offset: 0x4D6DF, size: 0x8, addend: 0x0, symName: __ZNKSt3__16vectorIiNS_9allocatorIiEEE17__annotate_deleteB7v160006Ev, symObjAddr: 0xF38C, symBinAddr: 0x10001269C, symSize: 0xB8 }
  - { offsetInCU: 0x4D705, offset: 0x4D705, size: 0x8, addend: 0x0, symName: __ZNSt3__16vectorIiNS_9allocatorIiEEE7__clearB7v160006Ev, symObjAddr: 0xF454, symBinAddr: 0x100012764, symSize: 0x28 }
  - { offsetInCU: 0x4D72B, offset: 0x4D72B, size: 0x8, addend: 0x0, symName: __ZNSt3__16vectorIiNS_9allocatorIiEEE7__allocB7v160006Ev, symObjAddr: 0xF47C, symBinAddr: 0x10001278C, symSize: 0x28 }
  - { offsetInCU: 0x4D751, offset: 0x4D751, size: 0x8, addend: 0x0, symName: __ZNKSt3__16vectorIiNS_9allocatorIiEEE8capacityB7v160006Ev, symObjAddr: 0xF4A4, symBinAddr: 0x1000127B4, symSize: 0x40 }
  - { offsetInCU: 0x4D777, offset: 0x4D777, size: 0x8, addend: 0x0, symName: __ZNKSt3__16vectorIiNS_9allocatorIiEEE31__annotate_contiguous_containerB7v160006EPKvS5_S5_S5_, symObjAddr: 0xF4E4, symBinAddr: 0x1000127F4, symSize: 0x20 }
  - { offsetInCU: 0x4D7CD, offset: 0x4D7CD, size: 0x8, addend: 0x0, symName: __ZNKSt3__16vectorIiNS_9allocatorIiEEE4dataB7v160006Ev, symObjAddr: 0xF504, symBinAddr: 0x100012814, symSize: 0x28 }
  - { offsetInCU: 0x4D7F3, offset: 0x4D7F3, size: 0x8, addend: 0x0, symName: __ZNSt3__16vectorIiNS_9allocatorIiEEE22__base_destruct_at_endB7v160006EPi, symObjAddr: 0xF540, symBinAddr: 0x100012850, symSize: 0x8C }
  - { offsetInCU: 0x4D837, offset: 0x4D837, size: 0x8, addend: 0x0, symName: __ZNSt3__117__compressed_pairIPiNS_9allocatorIiEEE6secondB7v160006Ev, symObjAddr: 0xF5CC, symBinAddr: 0x1000128DC, symSize: 0x24 }
  - { offsetInCU: 0x4D85D, offset: 0x4D85D, size: 0x8, addend: 0x0, symName: __ZNKSt3__16vectorIiNS_9allocatorIiEEE9__end_capB7v160006Ev, symObjAddr: 0xF5F0, symBinAddr: 0x100012900, symSize: 0x28 }
  - { offsetInCU: 0x4D883, offset: 0x4D883, size: 0x8, addend: 0x0, symName: __ZNKSt3__117__compressed_pairIPiNS_9allocatorIiEEE5firstB7v160006Ev, symObjAddr: 0xF618, symBinAddr: 0x100012928, symSize: 0x24 }
  - { offsetInCU: 0x4D8A9, offset: 0x4D8A9, size: 0x8, addend: 0x0, symName: __ZNKSt3__122__compressed_pair_elemIPiLi0ELb0EE5__getB7v160006Ev, symObjAddr: 0xF63C, symBinAddr: 0x10001294C, symSize: 0x14 }
  - { offsetInCU: 0x4D8CF, offset: 0x4D8CF, size: 0x8, addend: 0x0, symName: __ZNKSt3__16vectorIiNS_9allocatorIiEEE11__make_iterB7v160006EPKi, symObjAddr: 0xF650, symBinAddr: 0x100012960, symSize: 0x34 }
  - { offsetInCU: 0x4D904, offset: 0x4D904, size: 0x8, addend: 0x0, symName: __ZNSt3__111__wrap_iterIPKiEC1B7v160006EPKvS2_, symObjAddr: 0xF684, symBinAddr: 0x100012994, symSize: 0x3C }
  - { offsetInCU: 0x4D94A, offset: 0x4D94A, size: 0x8, addend: 0x0, symName: __ZNSt3__111__wrap_iterIPKiEC2B7v160006EPKvS2_, symObjAddr: 0xF6C0, symBinAddr: 0x1000129D0, symSize: 0x24 }
  - { offsetInCU: 0x4D990, offset: 0x4D990, size: 0x8, addend: 0x0, symName: __ZNSt3__16vectorIiNS_9allocatorIiEEEC2ERKS3_, symObjAddr: 0xF6E4, symBinAddr: 0x1000129F4, symSize: 0x110 }
  - { offsetInCU: 0x4D9FA, offset: 0x4D9FA, size: 0x8, addend: 0x0, symName: __ZNSt3__116allocator_traitsINS_9allocatorIiEEE37select_on_container_copy_constructionB7v160006IS2_vvEES2_RKS2_, symObjAddr: 0xF7F4, symBinAddr: 0x100012B04, symSize: 0x10 }
  - { offsetInCU: 0x4DA29, offset: 0x4DA29, size: 0x8, addend: 0x0, symName: __ZNKSt3__16vectorIiNS_9allocatorIiEEE7__allocB7v160006Ev, symObjAddr: 0xF804, symBinAddr: 0x100012B14, symSize: 0x28 }
  - { offsetInCU: 0x4DA55, offset: 0x4DA55, size: 0x8, addend: 0x0, symName: __ZNSt3__117__compressed_pairIPiNS_9allocatorIiEEEC1B7v160006IDnS3_EEOT_OT0_, symObjAddr: 0xF82C, symBinAddr: 0x100012B3C, symSize: 0x3C }
  - { offsetInCU: 0x4DAAD, offset: 0x4DAAD, size: 0x8, addend: 0x0, symName: __ZNSt3__16vectorIiNS_9allocatorIiEEE11__vallocateB7v160006Em, symObjAddr: 0xF8A8, symBinAddr: 0x100012BB8, symSize: 0xAC }
  - { offsetInCU: 0x4DAF1, offset: 0x4DAF1, size: 0x8, addend: 0x0, symName: __ZNSt3__16vectorIiNS_9allocatorIiEEE18__construct_at_endIPiLi0EEEvT_S6_m, symObjAddr: 0xF954, symBinAddr: 0x100012C64, symSize: 0x8C }
  - { offsetInCU: 0x4DB64, offset: 0x4DB64, size: 0x8, addend: 0x0, symName: __ZNSt3__128__exception_guard_exceptionsINS_6vectorIiNS_9allocatorIiEEE16__destroy_vectorEE10__completeB7v160006Ev, symObjAddr: 0xF9E0, symBinAddr: 0x100012CF0, symSize: 0x1C }
  - { offsetInCU: 0x4DB8A, offset: 0x4DB8A, size: 0x8, addend: 0x0, symName: __ZNSt3__128__exception_guard_exceptionsINS_6vectorIiNS_9allocatorIiEEE16__destroy_vectorEED1B7v160006Ev, symObjAddr: 0xF9FC, symBinAddr: 0x100012D0C, symSize: 0x2C }
  - { offsetInCU: 0x4DBB4, offset: 0x4DBB4, size: 0x8, addend: 0x0, symName: __ZNKSt3__117__compressed_pairIPiNS_9allocatorIiEEE6secondB7v160006Ev, symObjAddr: 0xFA28, symBinAddr: 0x100012D38, symSize: 0x24 }
  - { offsetInCU: 0x4DBDA, offset: 0x4DBDA, size: 0x8, addend: 0x0, symName: __ZNKSt3__122__compressed_pair_elemINS_9allocatorIiEELi1ELb1EE5__getB7v160006Ev, symObjAddr: 0xFA4C, symBinAddr: 0x100012D5C, symSize: 0x14 }
  - { offsetInCU: 0x4DC00, offset: 0x4DC00, size: 0x8, addend: 0x0, symName: __ZNSt3__117__compressed_pairIPiNS_9allocatorIiEEEC2B7v160006IDnS3_EEOT_OT0_, symObjAddr: 0xFA60, symBinAddr: 0x100012D70, symSize: 0x44 }
  - { offsetInCU: 0x4DC58, offset: 0x4DC58, size: 0x8, addend: 0x0, symName: __ZNSt3__122__compressed_pair_elemINS_9allocatorIiEELi1ELb1EEC2B7v160006IS2_vEEOT_, symObjAddr: 0xFAA4, symBinAddr: 0x100012DB4, symSize: 0x18 }
  - { offsetInCU: 0x4DC9A, offset: 0x4DC9A, size: 0x8, addend: 0x0, symName: __ZNSt3__128__exception_guard_exceptionsINS_6vectorIiNS_9allocatorIiEEE16__destroy_vectorEEC1B7v160006ES5_, symObjAddr: 0xFABC, symBinAddr: 0x100012DCC, symSize: 0x34 }
  - { offsetInCU: 0x4DCD2, offset: 0x4DCD2, size: 0x8, addend: 0x0, symName: __ZNSt3__128__exception_guard_exceptionsINS_6vectorIiNS_9allocatorIiEEE16__destroy_vectorEEC2B7v160006ES5_, symObjAddr: 0xFAF0, symBinAddr: 0x100012E00, symSize: 0x24 }
  - { offsetInCU: 0x4DD0A, offset: 0x4DD0A, size: 0x8, addend: 0x0, symName: __ZNKSt3__16vectorIiNS_9allocatorIiEEE8max_sizeEv, symObjAddr: 0xFB14, symBinAddr: 0x100012E24, symSize: 0x60 }
  - { offsetInCU: 0x4DD32, offset: 0x4DD32, size: 0x8, addend: 0x0, symName: __ZNKSt3__16vectorIiNS_9allocatorIiEEE20__throw_length_errorB7v160006Ev, symObjAddr: 0xFB74, symBinAddr: 0x100012E84, symSize: 0x1C }
  - { offsetInCU: 0x4DD58, offset: 0x4DD58, size: 0x8, addend: 0x0, symName: __ZNSt3__16vectorIiNS_9allocatorIiEEE9__end_capB7v160006Ev, symObjAddr: 0xFBD0, symBinAddr: 0x100012EE0, symSize: 0x28 }
  - { offsetInCU: 0x4DD7E, offset: 0x4DD7E, size: 0x8, addend: 0x0, symName: __ZNKSt3__16vectorIiNS_9allocatorIiEEE14__annotate_newB7v160006Em, symObjAddr: 0xFBF8, symBinAddr: 0x100012F08, symSize: 0xAC }
  - { offsetInCU: 0x4DDB3, offset: 0x4DDB3, size: 0x8, addend: 0x0, symName: __ZNSt3__116allocator_traitsINS_9allocatorIiEEE8max_sizeB7v160006IS2_vEEmRKS2_, symObjAddr: 0xFCD0, symBinAddr: 0x100012FE0, symSize: 0x24 }
  - { offsetInCU: 0x4DDE1, offset: 0x4DDE1, size: 0x8, addend: 0x0, symName: __ZNSt3__114numeric_limitsIlE3maxB7v160006Ev, symObjAddr: 0xFCF4, symBinAddr: 0x100013004, symSize: 0x14 }
  - { offsetInCU: 0x4DE00, offset: 0x4DE00, size: 0x8, addend: 0x0, symName: __ZNKSt3__16__lessImmEclB7v160006ERKmS3_, symObjAddr: 0xFD5C, symBinAddr: 0x10001306C, symSize: 0x34 }
  - { offsetInCU: 0x4DE42, offset: 0x4DE42, size: 0x8, addend: 0x0, symName: __ZNKSt3__19allocatorIiE8max_sizeB7v160006Ev, symObjAddr: 0xFD90, symBinAddr: 0x1000130A0, symSize: 0x14 }
  - { offsetInCU: 0x4DE68, offset: 0x4DE68, size: 0x8, addend: 0x0, symName: __ZNSt3__123__libcpp_numeric_limitsIlLb1EE3maxB7v160006Ev, symObjAddr: 0xFDA4, symBinAddr: 0x1000130B4, symSize: 0x8 }
  - { offsetInCU: 0x4DE7C, offset: 0x4DE7C, size: 0x8, addend: 0x0, symName: __ZNSt12length_errorC1B7v160006EPKc, symObjAddr: 0xFE10, symBinAddr: 0x100013120, symSize: 0x34 }
  - { offsetInCU: 0x4DEB4, offset: 0x4DEB4, size: 0x8, addend: 0x0, symName: __ZNSt12length_errorC2B7v160006EPKc, symObjAddr: 0xFE44, symBinAddr: 0x100013154, symSize: 0x4C }
  - { offsetInCU: 0x4DEEC, offset: 0x4DEEC, size: 0x8, addend: 0x0, symName: __ZNSt3__19allocatorIiE8allocateB7v160006Em, symObjAddr: 0xFE90, symBinAddr: 0x1000131A0, symSize: 0x58 }
  - { offsetInCU: 0x4DF20, offset: 0x4DF20, size: 0x8, addend: 0x0, symName: __ZNSt3__117__compressed_pairIPiNS_9allocatorIiEEE5firstB7v160006Ev, symObjAddr: 0xFFCC, symBinAddr: 0x1000132DC, symSize: 0x24 }
  - { offsetInCU: 0x4DF46, offset: 0x4DF46, size: 0x8, addend: 0x0, symName: __ZNSt3__122__compressed_pair_elemIPiLi0ELb0EE5__getB7v160006Ev, symObjAddr: 0xFFF0, symBinAddr: 0x100013300, symSize: 0x14 }
  - { offsetInCU: 0x4DF88, offset: 0x4DF88, size: 0x8, addend: 0x0, symName: __ZNSt3__16vectorIiNS_9allocatorIiEEE21_ConstructTransactionC1B7v160006ERS3_m, symObjAddr: 0x10004, symBinAddr: 0x100013314, symSize: 0x3C }
  - { offsetInCU: 0x4DFD0, offset: 0x4DFD0, size: 0x8, addend: 0x0, symName: __ZNSt3__16vectorIiNS_9allocatorIiEEE21_ConstructTransactionD1B7v160006Ev, symObjAddr: 0x10134, symBinAddr: 0x100013444, symSize: 0x2C }
  - { offsetInCU: 0x4DFFA, offset: 0x4DFFA, size: 0x8, addend: 0x0, symName: __ZNSt3__16vectorIiNS_9allocatorIiEEE21_ConstructTransactionC2B7v160006ERS3_m, symObjAddr: 0x10160, symBinAddr: 0x100013470, symSize: 0x44 }
  - { offsetInCU: 0x4E042, offset: 0x4E042, size: 0x8, addend: 0x0, symName: __ZNSt3__129_AllocatorDestroyRangeReverseINS_9allocatorIiEEPiEC1B7v160006ERS2_RS3_S6_, symObjAddr: 0x101F0, symBinAddr: 0x100013500, symSize: 0x44 }
  - { offsetInCU: 0x4E099, offset: 0x4E099, size: 0x8, addend: 0x0, symName: __ZNSt3__116allocator_traitsINS_9allocatorIiEEE9constructB7v160006IiJRiEvEEvRS2_PT_DpOT0_, symObjAddr: 0x10234, symBinAddr: 0x100013544, symSize: 0x34 }
  - { offsetInCU: 0x4E0F0, offset: 0x4E0F0, size: 0x8, addend: 0x0, symName: __ZNSt3__128__exception_guard_exceptionsINS_29_AllocatorDestroyRangeReverseINS_9allocatorIiEEPiEEE10__completeB7v160006Ev, symObjAddr: 0x10268, symBinAddr: 0x100013578, symSize: 0x1C }
  - { offsetInCU: 0x4E116, offset: 0x4E116, size: 0x8, addend: 0x0, symName: __ZNSt3__128__exception_guard_exceptionsINS_29_AllocatorDestroyRangeReverseINS_9allocatorIiEEPiEEED1B7v160006Ev, symObjAddr: 0x10284, symBinAddr: 0x100013594, symSize: 0x2C }
  - { offsetInCU: 0x4E140, offset: 0x4E140, size: 0x8, addend: 0x0, symName: __ZNSt3__128__exception_guard_exceptionsINS_29_AllocatorDestroyRangeReverseINS_9allocatorIiEEPiEEEC1B7v160006ES5_, symObjAddr: 0x102B0, symBinAddr: 0x1000135C0, symSize: 0x34 }
  - { offsetInCU: 0x4E179, offset: 0x4E179, size: 0x8, addend: 0x0, symName: __ZNSt3__128__exception_guard_exceptionsINS_29_AllocatorDestroyRangeReverseINS_9allocatorIiEEPiEEEC2B7v160006ES5_, symObjAddr: 0x102E4, symBinAddr: 0x1000135F4, symSize: 0x30 }
  - { offsetInCU: 0x4E1B2, offset: 0x4E1B2, size: 0x8, addend: 0x0, symName: __ZNSt3__129_AllocatorDestroyRangeReverseINS_9allocatorIiEEPiEC2B7v160006ERS2_RS3_S6_, symObjAddr: 0x10314, symBinAddr: 0x100013624, symSize: 0x38 }
  - { offsetInCU: 0x4E209, offset: 0x4E209, size: 0x8, addend: 0x0, symName: __ZNSt3__19allocatorIiE9constructB7v160006IiJRiEEEvPT_DpOT0_, symObjAddr: 0x1034C, symBinAddr: 0x10001365C, symSize: 0x28 }
  - { offsetInCU: 0x4E25F, offset: 0x4E25F, size: 0x8, addend: 0x0, symName: __ZNSt3__128__exception_guard_exceptionsINS_29_AllocatorDestroyRangeReverseINS_9allocatorIiEEPiEEED2B7v160006Ev, symObjAddr: 0x10374, symBinAddr: 0x100013684, symSize: 0x50 }
  - { offsetInCU: 0x4E289, offset: 0x4E289, size: 0x8, addend: 0x0, symName: __ZNKSt3__129_AllocatorDestroyRangeReverseINS_9allocatorIiEEPiEclB7v160006Ev, symObjAddr: 0x103C4, symBinAddr: 0x1000136D4, symSize: 0x68 }
  - { offsetInCU: 0x4E2AF, offset: 0x4E2AF, size: 0x8, addend: 0x0, symName: __ZNSt3__116reverse_iteratorIPiEC1B7v160006ES1_, symObjAddr: 0x1049C, symBinAddr: 0x1000137AC, symSize: 0x34 }
  - { offsetInCU: 0x4E2E7, offset: 0x4E2E7, size: 0x8, addend: 0x0, symName: __ZNSt3__116reverse_iteratorIPiEppB7v160006Ev, symObjAddr: 0x1053C, symBinAddr: 0x10001384C, symSize: 0x20 }
  - { offsetInCU: 0x4E30D, offset: 0x4E30D, size: 0x8, addend: 0x0, symName: __ZNKSt3__116reverse_iteratorIPiE4baseB7v160006Ev, symObjAddr: 0x1055C, symBinAddr: 0x10001386C, symSize: 0x18 }
  - { offsetInCU: 0x4E339, offset: 0x4E339, size: 0x8, addend: 0x0, symName: __ZNSt3__119__to_address_helperINS_16reverse_iteratorIPiEEvE6__callB7v160006ERKS3_, symObjAddr: 0x10574, symBinAddr: 0x100013884, symSize: 0x38 }
  - { offsetInCU: 0x4E35C, offset: 0x4E35C, size: 0x8, addend: 0x0, symName: __ZNKSt3__116reverse_iteratorIPiEptB7v160006Ev, symObjAddr: 0x105AC, symBinAddr: 0x1000138BC, symSize: 0x24 }
  - { offsetInCU: 0x4E382, offset: 0x4E382, size: 0x8, addend: 0x0, symName: __ZNKSt3__116reverse_iteratorIPiEdeB7v160006Ev, symObjAddr: 0x105D0, symBinAddr: 0x1000138E0, symSize: 0x28 }
  - { offsetInCU: 0x4E3B6, offset: 0x4E3B6, size: 0x8, addend: 0x0, symName: __ZNSt3__116reverse_iteratorIPiEC2B7v160006ES1_, symObjAddr: 0x105F8, symBinAddr: 0x100013908, symSize: 0x28 }
  - { offsetInCU: 0x4E3EE, offset: 0x4E3EE, size: 0x8, addend: 0x0, symName: __ZNSt3__16vectorIiNS_9allocatorIiEEE21_ConstructTransactionD2B7v160006Ev, symObjAddr: 0x10620, symBinAddr: 0x100013930, symSize: 0x20 }
  - { offsetInCU: 0x4E418, offset: 0x4E418, size: 0x8, addend: 0x0, symName: __ZNSt3__128__exception_guard_exceptionsINS_6vectorIiNS_9allocatorIiEEE16__destroy_vectorEED2B7v160006Ev, symObjAddr: 0x10640, symBinAddr: 0x100013950, symSize: 0x50 }
  - { offsetInCU: 0x4E442, offset: 0x4E442, size: 0x8, addend: 0x0, symName: __ZNSt3__16vectorINS0_IiNS_9allocatorIiEEEENS1_IS3_EEEC2B7v160006Ev, symObjAddr: 0x10690, symBinAddr: 0x1000139A0, symSize: 0x58 }
  - { offsetInCU: 0x4E46C, offset: 0x4E46C, size: 0x8, addend: 0x0, symName: __ZNSt3__117__compressed_pairIPNS_6vectorIiNS_9allocatorIiEEEENS2_IS4_EEEC1B7v160006IDnNS_18__default_init_tagEEEOT_OT0_, symObjAddr: 0x106E8, symBinAddr: 0x1000139F8, symSize: 0x3C }
  - { offsetInCU: 0x4E4C4, offset: 0x4E4C4, size: 0x8, addend: 0x0, symName: __ZNSt3__117__compressed_pairIPNS_6vectorIiNS_9allocatorIiEEEENS2_IS4_EEEC2B7v160006IDnNS_18__default_init_tagEEEOT_OT0_, symObjAddr: 0x10734, symBinAddr: 0x100013A44, symSize: 0x40 }
  - { offsetInCU: 0x4E51C, offset: 0x4E51C, size: 0x8, addend: 0x0, symName: __ZNSt3__122__compressed_pair_elemIPNS_6vectorIiNS_9allocatorIiEEEELi0ELb0EEC2B7v160006IDnvEEOT_, symObjAddr: 0x10774, symBinAddr: 0x100013A84, symSize: 0x1C }
  - { offsetInCU: 0x4E55E, offset: 0x4E55E, size: 0x8, addend: 0x0, symName: __ZNSt3__122__compressed_pair_elemINS_9allocatorINS_6vectorIiNS1_IiEEEEEELi1ELb1EEC2B7v160006ENS_18__default_init_tagE, symObjAddr: 0x10790, symBinAddr: 0x100013AA0, symSize: 0x2C }
  - { offsetInCU: 0x4E592, offset: 0x4E592, size: 0x8, addend: 0x0, symName: __ZNSt3__19allocatorINS_6vectorIiNS0_IiEEEEEC2B7v160006Ev, symObjAddr: 0x107BC, symBinAddr: 0x100013ACC, symSize: 0x2C }
  - { offsetInCU: 0x4E5BC, offset: 0x4E5BC, size: 0x8, addend: 0x0, symName: __ZNSt3__116__non_trivial_ifILb1ENS_9allocatorINS_6vectorIiNS1_IiEEEEEEEC2B7v160006Ev, symObjAddr: 0x107E8, symBinAddr: 0x100013AF8, symSize: 0x14 }
  - { offsetInCU: 0x4E5E6, offset: 0x4E5E6, size: 0x8, addend: 0x0, symName: __ZNSt3__16vectorI3RGBNS_9allocatorIS1_EEEC2B7v160006Ev, symObjAddr: 0x107FC, symBinAddr: 0x100013B0C, symSize: 0x58 }
  - { offsetInCU: 0x4E610, offset: 0x4E610, size: 0x8, addend: 0x0, symName: __ZNSt3__117__compressed_pairIP3RGBNS_9allocatorIS1_EEEC1B7v160006IDnNS_18__default_init_tagEEEOT_OT0_, symObjAddr: 0x10854, symBinAddr: 0x100013B64, symSize: 0x3C }
  - { offsetInCU: 0x4E668, offset: 0x4E668, size: 0x8, addend: 0x0, symName: __ZNSt3__117__compressed_pairIP3RGBNS_9allocatorIS1_EEEC2B7v160006IDnNS_18__default_init_tagEEEOT_OT0_, symObjAddr: 0x108A0, symBinAddr: 0x100013BB0, symSize: 0x40 }
  - { offsetInCU: 0x4E6C0, offset: 0x4E6C0, size: 0x8, addend: 0x0, symName: __ZNSt3__122__compressed_pair_elemIP3RGBLi0ELb0EEC2B7v160006IDnvEEOT_, symObjAddr: 0x108E0, symBinAddr: 0x100013BF0, symSize: 0x1C }
  - { offsetInCU: 0x4E702, offset: 0x4E702, size: 0x8, addend: 0x0, symName: __ZNSt3__122__compressed_pair_elemINS_9allocatorI3RGBEELi1ELb1EEC2B7v160006ENS_18__default_init_tagE, symObjAddr: 0x108FC, symBinAddr: 0x100013C0C, symSize: 0x2C }
  - { offsetInCU: 0x4E736, offset: 0x4E736, size: 0x8, addend: 0x0, symName: __ZNSt3__19allocatorI3RGBEC2B7v160006Ev, symObjAddr: 0x10928, symBinAddr: 0x100013C38, symSize: 0x2C }
  - { offsetInCU: 0x4E760, offset: 0x4E760, size: 0x8, addend: 0x0, symName: __ZNSt3__116__non_trivial_ifILb1ENS_9allocatorI3RGBEEEC2B7v160006Ev, symObjAddr: 0x10954, symBinAddr: 0x100013C64, symSize: 0x14 }
  - { offsetInCU: 0x4E78A, offset: 0x4E78A, size: 0x8, addend: 0x0, symName: __ZNSt3__16vectorINS_6bitsetILm1EEENS_9allocatorIS2_EEEC2B7v160006Ev, symObjAddr: 0x10968, symBinAddr: 0x100013C78, symSize: 0x58 }
  - { offsetInCU: 0x4E7B4, offset: 0x4E7B4, size: 0x8, addend: 0x0, symName: __ZNSt3__117__compressed_pairIPNS_6bitsetILm1EEENS_9allocatorIS2_EEEC1B7v160006IDnNS_18__default_init_tagEEEOT_OT0_, symObjAddr: 0x109C0, symBinAddr: 0x100013CD0, symSize: 0x3C }
  - { offsetInCU: 0x4E80C, offset: 0x4E80C, size: 0x8, addend: 0x0, symName: __ZNSt3__117__compressed_pairIPNS_6bitsetILm1EEENS_9allocatorIS2_EEEC2B7v160006IDnNS_18__default_init_tagEEEOT_OT0_, symObjAddr: 0x10A0C, symBinAddr: 0x100013D1C, symSize: 0x40 }
  - { offsetInCU: 0x4E864, offset: 0x4E864, size: 0x8, addend: 0x0, symName: __ZNSt3__122__compressed_pair_elemIPNS_6bitsetILm1EEELi0ELb0EEC2B7v160006IDnvEEOT_, symObjAddr: 0x10A4C, symBinAddr: 0x100013D5C, symSize: 0x1C }
  - { offsetInCU: 0x4E8A6, offset: 0x4E8A6, size: 0x8, addend: 0x0, symName: __ZNSt3__122__compressed_pair_elemINS_9allocatorINS_6bitsetILm1EEEEELi1ELb1EEC2B7v160006ENS_18__default_init_tagE, symObjAddr: 0x10A68, symBinAddr: 0x100013D78, symSize: 0x2C }
  - { offsetInCU: 0x4E8DA, offset: 0x4E8DA, size: 0x8, addend: 0x0, symName: __ZNSt3__19allocatorINS_6bitsetILm1EEEEC2B7v160006Ev, symObjAddr: 0x10A94, symBinAddr: 0x100013DA4, symSize: 0x2C }
  - { offsetInCU: 0x4E904, offset: 0x4E904, size: 0x8, addend: 0x0, symName: __ZNSt3__116__non_trivial_ifILb1ENS_9allocatorINS_6bitsetILm1EEEEEEC2B7v160006Ev, symObjAddr: 0x10AC0, symBinAddr: 0x100013DD0, symSize: 0x14 }
  - { offsetInCU: 0x4E92E, offset: 0x4E92E, size: 0x8, addend: 0x0, symName: __ZNSt3__16vectorIbNS_9allocatorIbEEEC2B7v160006Ev, symObjAddr: 0x10AD4, symBinAddr: 0x100013DE4, symSize: 0x4C }
  - { offsetInCU: 0x4E95A, offset: 0x4E95A, size: 0x8, addend: 0x0, symName: __ZNSt3__117__compressed_pairImNS_9allocatorImEEEC1B7v160006IiNS_18__default_init_tagEEEOT_OT0_, symObjAddr: 0x10B20, symBinAddr: 0x100013E30, symSize: 0x3C }
  - { offsetInCU: 0x4E9B2, offset: 0x4E9B2, size: 0x8, addend: 0x0, symName: __ZNSt3__117__compressed_pairImNS_9allocatorImEEEC2B7v160006IiNS_18__default_init_tagEEEOT_OT0_, symObjAddr: 0x10B5C, symBinAddr: 0x100013E6C, symSize: 0x40 }
  - { offsetInCU: 0x4EA0A, offset: 0x4EA0A, size: 0x8, addend: 0x0, symName: __ZNSt3__122__compressed_pair_elemImLi0ELb0EEC2B7v160006IivEEOT_, symObjAddr: 0x10B9C, symBinAddr: 0x100013EAC, symSize: 0x24 }
  - { offsetInCU: 0x4EA4C, offset: 0x4EA4C, size: 0x8, addend: 0x0, symName: __ZNSt3__122__compressed_pair_elemINS_9allocatorImEELi1ELb1EEC2B7v160006ENS_18__default_init_tagE, symObjAddr: 0x10BC0, symBinAddr: 0x100013ED0, symSize: 0x2C }
  - { offsetInCU: 0x4EA80, offset: 0x4EA80, size: 0x8, addend: 0x0, symName: __ZNSt3__19allocatorImEC2B7v160006Ev, symObjAddr: 0x10BEC, symBinAddr: 0x100013EFC, symSize: 0x2C }
  - { offsetInCU: 0x4EAAA, offset: 0x4EAAA, size: 0x8, addend: 0x0, symName: __ZNSt3__116__non_trivial_ifILb1ENS_9allocatorImEEEC2B7v160006Ev, symObjAddr: 0x10C18, symBinAddr: 0x100013F28, symSize: 0x14 }
  - { offsetInCU: 0x4EAD4, offset: 0x4EAD4, size: 0x8, addend: 0x0, symName: __ZNSt3__16vectorINS_5tupleIJi9DirectionNS0_IbNS_9allocatorIbEEEEEEENS3_IS6_EEEC2B7v160006Ev, symObjAddr: 0x10C2C, symBinAddr: 0x100013F3C, symSize: 0x58 }
  - { offsetInCU: 0x4EAFE, offset: 0x4EAFE, size: 0x8, addend: 0x0, symName: __ZNSt3__117__compressed_pairIPNS_5tupleIJi9DirectionNS_6vectorIbNS_9allocatorIbEEEEEEENS4_IS7_EEEC1B7v160006IDnNS_18__default_init_tagEEEOT_OT0_, symObjAddr: 0x10C84, symBinAddr: 0x100013F94, symSize: 0x3C }
  - { offsetInCU: 0x4EB56, offset: 0x4EB56, size: 0x8, addend: 0x0, symName: __ZNSt3__117__compressed_pairIPNS_5tupleIJi9DirectionNS_6vectorIbNS_9allocatorIbEEEEEEENS4_IS7_EEEC2B7v160006IDnNS_18__default_init_tagEEEOT_OT0_, symObjAddr: 0x10CD0, symBinAddr: 0x100013FE0, symSize: 0x40 }
  - { offsetInCU: 0x4EBAE, offset: 0x4EBAE, size: 0x8, addend: 0x0, symName: __ZNSt3__122__compressed_pair_elemIPNS_5tupleIJi9DirectionNS_6vectorIbNS_9allocatorIbEEEEEEELi0ELb0EEC2B7v160006IDnvEEOT_, symObjAddr: 0x10D10, symBinAddr: 0x100014020, symSize: 0x1C }
  - { offsetInCU: 0x4EBF0, offset: 0x4EBF0, size: 0x8, addend: 0x0, symName: __ZNSt3__122__compressed_pair_elemINS_9allocatorINS_5tupleIJi9DirectionNS_6vectorIbNS1_IbEEEEEEEEELi1ELb1EEC2B7v160006ENS_18__default_init_tagE, symObjAddr: 0x10D2C, symBinAddr: 0x10001403C, symSize: 0x2C }
  - { offsetInCU: 0x4EC24, offset: 0x4EC24, size: 0x8, addend: 0x0, symName: __ZNSt3__19allocatorINS_5tupleIJi9DirectionNS_6vectorIbNS0_IbEEEEEEEEC2B7v160006Ev, symObjAddr: 0x10D58, symBinAddr: 0x100014068, symSize: 0x2C }
  - { offsetInCU: 0x4EC4E, offset: 0x4EC4E, size: 0x8, addend: 0x0, symName: __ZNSt3__116__non_trivial_ifILb1ENS_9allocatorINS_5tupleIJi9DirectionNS_6vectorIbNS1_IbEEEEEEEEEEC2B7v160006Ev, symObjAddr: 0x10D84, symBinAddr: 0x100014094, symSize: 0x14 }
  - { offsetInCU: 0x4EC78, offset: 0x4EC78, size: 0x8, addend: 0x0, symName: __ZNSt3__16vectorINS0_IiNS_9allocatorIiEEEENS1_IS3_EEED2B7v160006Ev, symObjAddr: 0x10D98, symBinAddr: 0x1000140A8, symSize: 0x44 }
  - { offsetInCU: 0x4ECA2, offset: 0x4ECA2, size: 0x8, addend: 0x0, symName: __ZNSt3__16vectorINS0_IiNS_9allocatorIiEEEENS1_IS3_EEE16__destroy_vectorC1ERS5_, symObjAddr: 0x10DDC, symBinAddr: 0x1000140EC, symSize: 0x34 }
  - { offsetInCU: 0x4ECDB, offset: 0x4ECDB, size: 0x8, addend: 0x0, symName: __ZNSt3__16vectorINS0_IiNS_9allocatorIiEEEENS1_IS3_EEE16__destroy_vectorclB7v160006Ev, symObjAddr: 0x10E10, symBinAddr: 0x100014120, symSize: 0x9C }
  - { offsetInCU: 0x4ED01, offset: 0x4ED01, size: 0x8, addend: 0x0, symName: __ZNSt3__16vectorINS0_IiNS_9allocatorIiEEEENS1_IS3_EEE16__destroy_vectorC2ERS5_, symObjAddr: 0x10EAC, symBinAddr: 0x1000141BC, symSize: 0x20 }
  - { offsetInCU: 0x4ED3A, offset: 0x4ED3A, size: 0x8, addend: 0x0, symName: __ZNKSt3__16vectorINS0_IiNS_9allocatorIiEEEENS1_IS3_EEE17__annotate_deleteB7v160006Ev, symObjAddr: 0x10ECC, symBinAddr: 0x1000141DC, symSize: 0xD4 }
  - { offsetInCU: 0x4ED60, offset: 0x4ED60, size: 0x8, addend: 0x0, symName: __ZNSt3__16vectorINS0_IiNS_9allocatorIiEEEENS1_IS3_EEE7__clearB7v160006Ev, symObjAddr: 0x10FB0, symBinAddr: 0x1000142C0, symSize: 0x28 }
  - { offsetInCU: 0x4ED86, offset: 0x4ED86, size: 0x8, addend: 0x0, symName: __ZNSt3__116allocator_traitsINS_9allocatorINS_6vectorIiNS1_IiEEEEEEE10deallocateB7v160006ERS5_PS4_m, symObjAddr: 0x10FD8, symBinAddr: 0x1000142E8, symSize: 0x34 }
  - { offsetInCU: 0x4EDC8, offset: 0x4EDC8, size: 0x8, addend: 0x0, symName: __ZNSt3__16vectorINS0_IiNS_9allocatorIiEEEENS1_IS3_EEE7__allocB7v160006Ev, symObjAddr: 0x1100C, symBinAddr: 0x10001431C, symSize: 0x28 }
  - { offsetInCU: 0x4EDEE, offset: 0x4EDEE, size: 0x8, addend: 0x0, symName: __ZNKSt3__16vectorINS0_IiNS_9allocatorIiEEEENS1_IS3_EEE8capacityB7v160006Ev, symObjAddr: 0x11034, symBinAddr: 0x100014344, symSize: 0x40 }
  - { offsetInCU: 0x4EE14, offset: 0x4EE14, size: 0x8, addend: 0x0, symName: __ZNKSt3__16vectorINS0_IiNS_9allocatorIiEEEENS1_IS3_EEE31__annotate_contiguous_containerB7v160006EPKvS7_S7_S7_, symObjAddr: 0x11074, symBinAddr: 0x100014384, symSize: 0x20 }
  - { offsetInCU: 0x4EE6A, offset: 0x4EE6A, size: 0x8, addend: 0x0, symName: __ZNKSt3__16vectorINS0_IiNS_9allocatorIiEEEENS1_IS3_EEE4dataB7v160006Ev, symObjAddr: 0x11094, symBinAddr: 0x1000143A4, symSize: 0x28 }
  - { offsetInCU: 0x4EE90, offset: 0x4EE90, size: 0x8, addend: 0x0, symName: __ZNSt3__16vectorINS0_IiNS_9allocatorIiEEEENS1_IS3_EEE22__base_destruct_at_endB7v160006EPS3_, symObjAddr: 0x110D0, symBinAddr: 0x1000143E0, symSize: 0x8C }
  - { offsetInCU: 0x4EED4, offset: 0x4EED4, size: 0x8, addend: 0x0, symName: __ZNSt3__116allocator_traitsINS_9allocatorINS_6vectorIiNS1_IiEEEEEEE7destroyB7v160006IS4_vEEvRS5_PT_, symObjAddr: 0x1115C, symBinAddr: 0x10001446C, symSize: 0x2C }
  - { offsetInCU: 0x4EF11, offset: 0x4EF11, size: 0x8, addend: 0x0, symName: __ZNSt3__19allocatorINS_6vectorIiNS0_IiEEEEE7destroyB7v160006EPS3_, symObjAddr: 0x11188, symBinAddr: 0x100014498, symSize: 0x28 }
  - { offsetInCU: 0x4EF45, offset: 0x4EF45, size: 0x8, addend: 0x0, symName: __ZNSt3__19allocatorINS_6vectorIiNS0_IiEEEEE10deallocateB7v160006EPS3_m, symObjAddr: 0x111B0, symBinAddr: 0x1000144C0, symSize: 0x44 }
  - { offsetInCU: 0x4EF87, offset: 0x4EF87, size: 0x8, addend: 0x0, symName: __ZNSt3__117__compressed_pairIPNS_6vectorIiNS_9allocatorIiEEEENS2_IS4_EEE6secondB7v160006Ev, symObjAddr: 0x111F4, symBinAddr: 0x100014504, symSize: 0x24 }
  - { offsetInCU: 0x4EFAD, offset: 0x4EFAD, size: 0x8, addend: 0x0, symName: __ZNSt3__122__compressed_pair_elemINS_9allocatorINS_6vectorIiNS1_IiEEEEEELi1ELb1EE5__getB7v160006Ev, symObjAddr: 0x11218, symBinAddr: 0x100014528, symSize: 0x14 }
  - { offsetInCU: 0x4EFD3, offset: 0x4EFD3, size: 0x8, addend: 0x0, symName: __ZNKSt3__16vectorINS0_IiNS_9allocatorIiEEEENS1_IS3_EEE9__end_capB7v160006Ev, symObjAddr: 0x1122C, symBinAddr: 0x10001453C, symSize: 0x28 }
  - { offsetInCU: 0x4EFF9, offset: 0x4EFF9, size: 0x8, addend: 0x0, symName: __ZNKSt3__117__compressed_pairIPNS_6vectorIiNS_9allocatorIiEEEENS2_IS4_EEE5firstB7v160006Ev, symObjAddr: 0x11254, symBinAddr: 0x100014564, symSize: 0x24 }
  - { offsetInCU: 0x4F01F, offset: 0x4F01F, size: 0x8, addend: 0x0, symName: __ZNKSt3__122__compressed_pair_elemIPNS_6vectorIiNS_9allocatorIiEEEELi0ELb0EE5__getB7v160006Ev, symObjAddr: 0x11278, symBinAddr: 0x100014588, symSize: 0x14 }
  - { offsetInCU: 0x4F045, offset: 0x4F045, size: 0x8, addend: 0x0, symName: __ZNSt3__16vectorI3RGBNS_9allocatorIS1_EEED2B7v160006Ev, symObjAddr: 0x1128C, symBinAddr: 0x10001459C, symSize: 0x44 }
  - { offsetInCU: 0x4F06F, offset: 0x4F06F, size: 0x8, addend: 0x0, symName: __ZNSt3__16vectorI3RGBNS_9allocatorIS1_EEE16__destroy_vectorC1ERS4_, symObjAddr: 0x112D0, symBinAddr: 0x1000145E0, symSize: 0x34 }
  - { offsetInCU: 0x4F0A8, offset: 0x4F0A8, size: 0x8, addend: 0x0, symName: __ZNSt3__16vectorI3RGBNS_9allocatorIS1_EEE16__destroy_vectorclB7v160006Ev, symObjAddr: 0x11304, symBinAddr: 0x100014614, symSize: 0x9C }
  - { offsetInCU: 0x4F0CE, offset: 0x4F0CE, size: 0x8, addend: 0x0, symName: __ZNSt3__16vectorI3RGBNS_9allocatorIS1_EEE16__destroy_vectorC2ERS4_, symObjAddr: 0x113A0, symBinAddr: 0x1000146B0, symSize: 0x20 }
  - { offsetInCU: 0x4F107, offset: 0x4F107, size: 0x8, addend: 0x0, symName: __ZNKSt3__16vectorI3RGBNS_9allocatorIS1_EEE17__annotate_deleteB7v160006Ev, symObjAddr: 0x113C0, symBinAddr: 0x1000146D0, symSize: 0xD4 }
  - { offsetInCU: 0x4F12D, offset: 0x4F12D, size: 0x8, addend: 0x0, symName: __ZNSt3__16vectorI3RGBNS_9allocatorIS1_EEE7__clearB7v160006Ev, symObjAddr: 0x114A4, symBinAddr: 0x1000147B4, symSize: 0x28 }
  - { offsetInCU: 0x4F153, offset: 0x4F153, size: 0x8, addend: 0x0, symName: __ZNSt3__116allocator_traitsINS_9allocatorI3RGBEEE10deallocateB7v160006ERS3_PS2_m, symObjAddr: 0x114CC, symBinAddr: 0x1000147DC, symSize: 0x34 }
  - { offsetInCU: 0x4F195, offset: 0x4F195, size: 0x8, addend: 0x0, symName: __ZNSt3__16vectorI3RGBNS_9allocatorIS1_EEE7__allocB7v160006Ev, symObjAddr: 0x11500, symBinAddr: 0x100014810, symSize: 0x28 }
  - { offsetInCU: 0x4F1BB, offset: 0x4F1BB, size: 0x8, addend: 0x0, symName: __ZNKSt3__16vectorI3RGBNS_9allocatorIS1_EEE8capacityB7v160006Ev, symObjAddr: 0x11528, symBinAddr: 0x100014838, symSize: 0x40 }
  - { offsetInCU: 0x4F1E1, offset: 0x4F1E1, size: 0x8, addend: 0x0, symName: __ZNKSt3__16vectorI3RGBNS_9allocatorIS1_EEE31__annotate_contiguous_containerB7v160006EPKvS6_S6_S6_, symObjAddr: 0x11568, symBinAddr: 0x100014878, symSize: 0x20 }
  - { offsetInCU: 0x4F237, offset: 0x4F237, size: 0x8, addend: 0x0, symName: __ZNKSt3__16vectorI3RGBNS_9allocatorIS1_EEE4dataB7v160006Ev, symObjAddr: 0x11588, symBinAddr: 0x100014898, symSize: 0x28 }
  - { offsetInCU: 0x4F25D, offset: 0x4F25D, size: 0x8, addend: 0x0, symName: __ZNSt3__16vectorI3RGBNS_9allocatorIS1_EEE22__base_destruct_at_endB7v160006EPS1_, symObjAddr: 0x115C4, symBinAddr: 0x1000148D4, symSize: 0x8C }
  - { offsetInCU: 0x4F2A1, offset: 0x4F2A1, size: 0x8, addend: 0x0, symName: __ZNSt3__116allocator_traitsINS_9allocatorI3RGBEEE7destroyB7v160006IS2_vEEvRS3_PT_, symObjAddr: 0x11650, symBinAddr: 0x100014960, symSize: 0x2C }
  - { offsetInCU: 0x4F2DE, offset: 0x4F2DE, size: 0x8, addend: 0x0, symName: __ZNSt3__19allocatorI3RGBE7destroyB7v160006EPS1_, symObjAddr: 0x1167C, symBinAddr: 0x10001498C, symSize: 0x14 }
  - { offsetInCU: 0x4F312, offset: 0x4F312, size: 0x8, addend: 0x0, symName: __ZNSt3__19allocatorI3RGBE10deallocateB7v160006EPS1_m, symObjAddr: 0x11690, symBinAddr: 0x1000149A0, symSize: 0x44 }
  - { offsetInCU: 0x4F354, offset: 0x4F354, size: 0x8, addend: 0x0, symName: __ZNSt3__117__compressed_pairIP3RGBNS_9allocatorIS1_EEE6secondB7v160006Ev, symObjAddr: 0x116D4, symBinAddr: 0x1000149E4, symSize: 0x24 }
  - { offsetInCU: 0x4F37A, offset: 0x4F37A, size: 0x8, addend: 0x0, symName: __ZNSt3__122__compressed_pair_elemINS_9allocatorI3RGBEELi1ELb1EE5__getB7v160006Ev, symObjAddr: 0x116F8, symBinAddr: 0x100014A08, symSize: 0x14 }
  - { offsetInCU: 0x4F3A0, offset: 0x4F3A0, size: 0x8, addend: 0x0, symName: __ZNKSt3__16vectorI3RGBNS_9allocatorIS1_EEE9__end_capB7v160006Ev, symObjAddr: 0x1170C, symBinAddr: 0x100014A1C, symSize: 0x28 }
  - { offsetInCU: 0x4F3C6, offset: 0x4F3C6, size: 0x8, addend: 0x0, symName: __ZNKSt3__117__compressed_pairIP3RGBNS_9allocatorIS1_EEE5firstB7v160006Ev, symObjAddr: 0x11734, symBinAddr: 0x100014A44, symSize: 0x24 }
  - { offsetInCU: 0x4F3EC, offset: 0x4F3EC, size: 0x8, addend: 0x0, symName: __ZNKSt3__122__compressed_pair_elemIP3RGBLi0ELb0EE5__getB7v160006Ev, symObjAddr: 0x11758, symBinAddr: 0x100014A68, symSize: 0x14 }
  - { offsetInCU: 0x4F412, offset: 0x4F412, size: 0x8, addend: 0x0, symName: __ZNSt3__16vectorINS_6bitsetILm1EEENS_9allocatorIS2_EEED2B7v160006Ev, symObjAddr: 0x1176C, symBinAddr: 0x100014A7C, symSize: 0x44 }
  - { offsetInCU: 0x4F43C, offset: 0x4F43C, size: 0x8, addend: 0x0, symName: __ZNSt3__16vectorINS_6bitsetILm1EEENS_9allocatorIS2_EEE16__destroy_vectorC1ERS5_, symObjAddr: 0x117B0, symBinAddr: 0x100014AC0, symSize: 0x34 }
  - { offsetInCU: 0x4F475, offset: 0x4F475, size: 0x8, addend: 0x0, symName: __ZNSt3__16vectorINS_6bitsetILm1EEENS_9allocatorIS2_EEE16__destroy_vectorclB7v160006Ev, symObjAddr: 0x117E4, symBinAddr: 0x100014AF4, symSize: 0x9C }
  - { offsetInCU: 0x4F49B, offset: 0x4F49B, size: 0x8, addend: 0x0, symName: __ZNSt3__16vectorINS_6bitsetILm1EEENS_9allocatorIS2_EEE16__destroy_vectorC2ERS5_, symObjAddr: 0x11880, symBinAddr: 0x100014B90, symSize: 0x20 }
  - { offsetInCU: 0x4F4D4, offset: 0x4F4D4, size: 0x8, addend: 0x0, symName: __ZNKSt3__16vectorINS_6bitsetILm1EEENS_9allocatorIS2_EEE17__annotate_deleteB7v160006Ev, symObjAddr: 0x118A0, symBinAddr: 0x100014BB0, symSize: 0xB8 }
  - { offsetInCU: 0x4F4FA, offset: 0x4F4FA, size: 0x8, addend: 0x0, symName: __ZNSt3__16vectorINS_6bitsetILm1EEENS_9allocatorIS2_EEE7__clearB7v160006Ev, symObjAddr: 0x11968, symBinAddr: 0x100014C78, symSize: 0x28 }
  - { offsetInCU: 0x4F520, offset: 0x4F520, size: 0x8, addend: 0x0, symName: __ZNSt3__116allocator_traitsINS_9allocatorINS_6bitsetILm1EEEEEE10deallocateB7v160006ERS4_PS3_m, symObjAddr: 0x11990, symBinAddr: 0x100014CA0, symSize: 0x34 }
  - { offsetInCU: 0x4F562, offset: 0x4F562, size: 0x8, addend: 0x0, symName: __ZNSt3__16vectorINS_6bitsetILm1EEENS_9allocatorIS2_EEE7__allocB7v160006Ev, symObjAddr: 0x119C4, symBinAddr: 0x100014CD4, symSize: 0x28 }
  - { offsetInCU: 0x4F588, offset: 0x4F588, size: 0x8, addend: 0x0, symName: __ZNKSt3__16vectorINS_6bitsetILm1EEENS_9allocatorIS2_EEE8capacityB7v160006Ev, symObjAddr: 0x119EC, symBinAddr: 0x100014CFC, symSize: 0x40 }
  - { offsetInCU: 0x4F5AE, offset: 0x4F5AE, size: 0x8, addend: 0x0, symName: __ZNKSt3__16vectorINS_6bitsetILm1EEENS_9allocatorIS2_EEE31__annotate_contiguous_containerB7v160006EPKvS7_S7_S7_, symObjAddr: 0x11A2C, symBinAddr: 0x100014D3C, symSize: 0x20 }
  - { offsetInCU: 0x4F604, offset: 0x4F604, size: 0x8, addend: 0x0, symName: __ZNKSt3__16vectorINS_6bitsetILm1EEENS_9allocatorIS2_EEE4dataB7v160006Ev, symObjAddr: 0x11A4C, symBinAddr: 0x100014D5C, symSize: 0x28 }
  - { offsetInCU: 0x4F62A, offset: 0x4F62A, size: 0x8, addend: 0x0, symName: __ZNSt3__16vectorINS_6bitsetILm1EEENS_9allocatorIS2_EEE22__base_destruct_at_endB7v160006EPS2_, symObjAddr: 0x11A88, symBinAddr: 0x100014D98, symSize: 0x8C }
  - { offsetInCU: 0x4F66E, offset: 0x4F66E, size: 0x8, addend: 0x0, symName: __ZNSt3__116allocator_traitsINS_9allocatorINS_6bitsetILm1EEEEEE7destroyB7v160006IS3_vEEvRS4_PT_, symObjAddr: 0x11B14, symBinAddr: 0x100014E24, symSize: 0x2C }
  - { offsetInCU: 0x4F6AB, offset: 0x4F6AB, size: 0x8, addend: 0x0, symName: __ZNSt3__19allocatorINS_6bitsetILm1EEEE7destroyB7v160006EPS2_, symObjAddr: 0x11B40, symBinAddr: 0x100014E50, symSize: 0x14 }
  - { offsetInCU: 0x4F6DF, offset: 0x4F6DF, size: 0x8, addend: 0x0, symName: __ZNSt3__19allocatorINS_6bitsetILm1EEEE10deallocateB7v160006EPS2_m, symObjAddr: 0x11B54, symBinAddr: 0x100014E64, symSize: 0x40 }
  - { offsetInCU: 0x4F721, offset: 0x4F721, size: 0x8, addend: 0x0, symName: __ZNSt3__117__compressed_pairIPNS_6bitsetILm1EEENS_9allocatorIS2_EEE6secondB7v160006Ev, symObjAddr: 0x11B94, symBinAddr: 0x100014EA4, symSize: 0x24 }
  - { offsetInCU: 0x4F747, offset: 0x4F747, size: 0x8, addend: 0x0, symName: __ZNSt3__122__compressed_pair_elemINS_9allocatorINS_6bitsetILm1EEEEELi1ELb1EE5__getB7v160006Ev, symObjAddr: 0x11BB8, symBinAddr: 0x100014EC8, symSize: 0x14 }
  - { offsetInCU: 0x4F76D, offset: 0x4F76D, size: 0x8, addend: 0x0, symName: __ZNKSt3__16vectorINS_6bitsetILm1EEENS_9allocatorIS2_EEE9__end_capB7v160006Ev, symObjAddr: 0x11BCC, symBinAddr: 0x100014EDC, symSize: 0x28 }
  - { offsetInCU: 0x4F793, offset: 0x4F793, size: 0x8, addend: 0x0, symName: __ZNKSt3__117__compressed_pairIPNS_6bitsetILm1EEENS_9allocatorIS2_EEE5firstB7v160006Ev, symObjAddr: 0x11BF4, symBinAddr: 0x100014F04, symSize: 0x24 }
  - { offsetInCU: 0x4F7B9, offset: 0x4F7B9, size: 0x8, addend: 0x0, symName: __ZNKSt3__122__compressed_pair_elemIPNS_6bitsetILm1EEELi0ELb0EE5__getB7v160006Ev, symObjAddr: 0x11C18, symBinAddr: 0x100014F28, symSize: 0x14 }
  - { offsetInCU: 0x4F7DF, offset: 0x4F7DF, size: 0x8, addend: 0x0, symName: __ZNSt3__16vectorIbNS_9allocatorIbEEED2B7v160006Ev, symObjAddr: 0x11C2C, symBinAddr: 0x100014F3C, symSize: 0x44 }
  - { offsetInCU: 0x4F809, offset: 0x4F809, size: 0x8, addend: 0x0, symName: __ZNSt3__16vectorIbNS_9allocatorIbEEE16__destroy_vectorC1ERS3_, symObjAddr: 0x11C70, symBinAddr: 0x100014F80, symSize: 0x34 }
  - { offsetInCU: 0x4F842, offset: 0x4F842, size: 0x8, addend: 0x0, symName: __ZNSt3__16vectorIbNS_9allocatorIbEEE16__destroy_vectorclB7v160006Ev, symObjAddr: 0x11CA4, symBinAddr: 0x100014FB4, symSize: 0x84 }
  - { offsetInCU: 0x4F868, offset: 0x4F868, size: 0x8, addend: 0x0, symName: __ZNSt3__16vectorIbNS_9allocatorIbEEE16__destroy_vectorC2ERS3_, symObjAddr: 0x11D28, symBinAddr: 0x100015038, symSize: 0x20 }
  - { offsetInCU: 0x4F8A1, offset: 0x4F8A1, size: 0x8, addend: 0x0, symName: __ZNSt3__16vectorIbNS_9allocatorIbEEE7__allocB7v160006Ev, symObjAddr: 0x11D48, symBinAddr: 0x100015058, symSize: 0x28 }
  - { offsetInCU: 0x4F8C7, offset: 0x4F8C7, size: 0x8, addend: 0x0, symName: __ZNSt3__16vectorIbNS_9allocatorIbEEE5__capB7v160006Ev, symObjAddr: 0x11D70, symBinAddr: 0x100015080, symSize: 0x28 }
  - { offsetInCU: 0x4F8ED, offset: 0x4F8ED, size: 0x8, addend: 0x0, symName: __ZNSt3__117__compressed_pairImNS_9allocatorImEEE6secondB7v160006Ev, symObjAddr: 0x11DA8, symBinAddr: 0x1000150B8, symSize: 0x24 }
  - { offsetInCU: 0x4F913, offset: 0x4F913, size: 0x8, addend: 0x0, symName: __ZNSt3__117__compressed_pairImNS_9allocatorImEEE5firstB7v160006Ev, symObjAddr: 0x11DCC, symBinAddr: 0x1000150DC, symSize: 0x24 }
  - { offsetInCU: 0x4F939, offset: 0x4F939, size: 0x8, addend: 0x0, symName: __ZNSt3__16vectorINS_5tupleIJi9DirectionNS0_IbNS_9allocatorIbEEEEEEENS3_IS6_EEED2B7v160006Ev, symObjAddr: 0x11DF0, symBinAddr: 0x100015100, symSize: 0x44 }
  - { offsetInCU: 0x4F963, offset: 0x4F963, size: 0x8, addend: 0x0, symName: __ZNSt3__16vectorINS_5tupleIJi9DirectionNS0_IbNS_9allocatorIbEEEEEEENS3_IS6_EEE16__destroy_vectorC1ERS8_, symObjAddr: 0x11E34, symBinAddr: 0x100015144, symSize: 0x34 }
  - { offsetInCU: 0x4F99C, offset: 0x4F99C, size: 0x8, addend: 0x0, symName: __ZNSt3__16vectorINS_5tupleIJi9DirectionNS0_IbNS_9allocatorIbEEEEEEENS3_IS6_EEE16__destroy_vectorclB7v160006Ev, symObjAddr: 0x11E68, symBinAddr: 0x100015178, symSize: 0x9C }
  - { offsetInCU: 0x4F9C2, offset: 0x4F9C2, size: 0x8, addend: 0x0, symName: __ZNSt3__16vectorINS_5tupleIJi9DirectionNS0_IbNS_9allocatorIbEEEEEEENS3_IS6_EEE16__destroy_vectorC2ERS8_, symObjAddr: 0x11F04, symBinAddr: 0x100015214, symSize: 0x20 }
  - { offsetInCU: 0x4F9FB, offset: 0x4F9FB, size: 0x8, addend: 0x0, symName: __ZNKSt3__16vectorINS_5tupleIJi9DirectionNS0_IbNS_9allocatorIbEEEEEEENS3_IS6_EEE17__annotate_deleteB7v160006Ev, symObjAddr: 0x11F24, symBinAddr: 0x100015234, symSize: 0xB8 }
  - { offsetInCU: 0x4FA21, offset: 0x4FA21, size: 0x8, addend: 0x0, symName: __ZNSt3__16vectorINS_5tupleIJi9DirectionNS0_IbNS_9allocatorIbEEEEEEENS3_IS6_EEE7__clearB7v160006Ev, symObjAddr: 0x11FEC, symBinAddr: 0x1000152FC, symSize: 0x28 }
  - { offsetInCU: 0x4FA47, offset: 0x4FA47, size: 0x8, addend: 0x0, symName: __ZNSt3__116allocator_traitsINS_9allocatorINS_5tupleIJi9DirectionNS_6vectorIbNS1_IbEEEEEEEEEE10deallocateB7v160006ERS8_PS7_m, symObjAddr: 0x12014, symBinAddr: 0x100015324, symSize: 0x34 }
  - { offsetInCU: 0x4FA89, offset: 0x4FA89, size: 0x8, addend: 0x0, symName: __ZNSt3__16vectorINS_5tupleIJi9DirectionNS0_IbNS_9allocatorIbEEEEEEENS3_IS6_EEE7__allocB7v160006Ev, symObjAddr: 0x12048, symBinAddr: 0x100015358, symSize: 0x28 }
  - { offsetInCU: 0x4FAAF, offset: 0x4FAAF, size: 0x8, addend: 0x0, symName: __ZNKSt3__16vectorINS_5tupleIJi9DirectionNS0_IbNS_9allocatorIbEEEEEEENS3_IS6_EEE8capacityB7v160006Ev, symObjAddr: 0x12070, symBinAddr: 0x100015380, symSize: 0x40 }
  - { offsetInCU: 0x4FAD5, offset: 0x4FAD5, size: 0x8, addend: 0x0, symName: __ZNKSt3__16vectorINS_5tupleIJi9DirectionNS0_IbNS_9allocatorIbEEEEEEENS3_IS6_EEE31__annotate_contiguous_containerB7v160006EPKvSA_SA_SA_, symObjAddr: 0x120B0, symBinAddr: 0x1000153C0, symSize: 0x20 }
  - { offsetInCU: 0x4FB2B, offset: 0x4FB2B, size: 0x8, addend: 0x0, symName: __ZNKSt3__16vectorINS_5tupleIJi9DirectionNS0_IbNS_9allocatorIbEEEEEEENS3_IS6_EEE4dataB7v160006Ev, symObjAddr: 0x120D0, symBinAddr: 0x1000153E0, symSize: 0x28 }
  - { offsetInCU: 0x4FB51, offset: 0x4FB51, size: 0x8, addend: 0x0, symName: __ZNKSt3__16vectorINS_5tupleIJi9DirectionNS0_IbNS_9allocatorIbEEEEEEENS3_IS6_EEE4sizeB7v160006Ev, symObjAddr: 0x120F8, symBinAddr: 0x100015408, symSize: 0x28 }
  - { offsetInCU: 0x4FB77, offset: 0x4FB77, size: 0x8, addend: 0x0, symName: __ZNSt3__16vectorINS_5tupleIJi9DirectionNS0_IbNS_9allocatorIbEEEEEEENS3_IS6_EEE22__base_destruct_at_endB7v160006EPS6_, symObjAddr: 0x12134, symBinAddr: 0x100015444, symSize: 0x8C }
  - { offsetInCU: 0x4FBBB, offset: 0x4FBBB, size: 0x8, addend: 0x0, symName: __ZNSt3__116allocator_traitsINS_9allocatorINS_5tupleIJi9DirectionNS_6vectorIbNS1_IbEEEEEEEEEE7destroyB7v160006IS7_vEEvRS8_PT_, symObjAddr: 0x121C0, symBinAddr: 0x1000154D0, symSize: 0x2C }
  - { offsetInCU: 0x4FBF8, offset: 0x4FBF8, size: 0x8, addend: 0x0, symName: __ZNSt3__19allocatorINS_5tupleIJi9DirectionNS_6vectorIbNS0_IbEEEEEEEE7destroyB7v160006EPS6_, symObjAddr: 0x121EC, symBinAddr: 0x1000154FC, symSize: 0x28 }
  - { offsetInCU: 0x4FC2C, offset: 0x4FC2C, size: 0x8, addend: 0x0, symName: __ZNSt3__19allocatorINS_5tupleIJi9DirectionNS_6vectorIbNS0_IbEEEEEEEE10deallocateB7v160006EPS6_m, symObjAddr: 0x12214, symBinAddr: 0x100015524, symSize: 0x40 }
  - { offsetInCU: 0x4FC6E, offset: 0x4FC6E, size: 0x8, addend: 0x0, symName: __ZNSt3__117__compressed_pairIPNS_5tupleIJi9DirectionNS_6vectorIbNS_9allocatorIbEEEEEEENS4_IS7_EEE6secondB7v160006Ev, symObjAddr: 0x12254, symBinAddr: 0x100015564, symSize: 0x24 }
  - { offsetInCU: 0x4FC94, offset: 0x4FC94, size: 0x8, addend: 0x0, symName: __ZNSt3__122__compressed_pair_elemINS_9allocatorINS_5tupleIJi9DirectionNS_6vectorIbNS1_IbEEEEEEEEELi1ELb1EE5__getB7v160006Ev, symObjAddr: 0x12278, symBinAddr: 0x100015588, symSize: 0x14 }
  - { offsetInCU: 0x4FCBA, offset: 0x4FCBA, size: 0x8, addend: 0x0, symName: __ZNKSt3__16vectorINS_5tupleIJi9DirectionNS0_IbNS_9allocatorIbEEEEEEENS3_IS6_EEE9__end_capB7v160006Ev, symObjAddr: 0x1228C, symBinAddr: 0x10001559C, symSize: 0x28 }
  - { offsetInCU: 0x4FCE0, offset: 0x4FCE0, size: 0x8, addend: 0x0, symName: __ZNKSt3__117__compressed_pairIPNS_5tupleIJi9DirectionNS_6vectorIbNS_9allocatorIbEEEEEEENS4_IS7_EEE5firstB7v160006Ev, symObjAddr: 0x122B4, symBinAddr: 0x1000155C4, symSize: 0x24 }
  - { offsetInCU: 0x4FD06, offset: 0x4FD06, size: 0x8, addend: 0x0, symName: __ZNKSt3__122__compressed_pair_elemIPNS_5tupleIJi9DirectionNS_6vectorIbNS_9allocatorIbEEEEEEELi0ELb0EE5__getB7v160006Ev, symObjAddr: 0x122D8, symBinAddr: 0x1000155E8, symSize: 0x14 }
  - { offsetInCU: 0x4FD2C, offset: 0x4FD2C, size: 0x8, addend: 0x0, symName: __ZNSt3__16vectorIiNS_9allocatorIiEEE6assignIPKiLi0EEEvT_S7_, symObjAddr: 0x122EC, symBinAddr: 0x1000155FC, symSize: 0x17C }
  - { offsetInCU: 0x4FDCB, offset: 0x4FDCB, size: 0x8, addend: 0x0, symName: __ZNKSt16initializer_listIiE5beginB7v160006Ev, symObjAddr: 0x12468, symBinAddr: 0x100015778, symSize: 0x18 }
  - { offsetInCU: 0x4FDF1, offset: 0x4FDF1, size: 0x8, addend: 0x0, symName: __ZNKSt16initializer_listIiE3endB7v160006Ev, symObjAddr: 0x12480, symBinAddr: 0x100015790, symSize: 0x20 }
  - { offsetInCU: 0x4FE17, offset: 0x4FE17, size: 0x8, addend: 0x0, symName: __ZNSt3__16vectorIiNS_9allocatorIiEEE18__construct_at_endIPKiLi0EEEvT_S7_m, symObjAddr: 0x1255C, symBinAddr: 0x10001586C, symSize: 0x8C }
  - { offsetInCU: 0x4FE8A, offset: 0x4FE8A, size: 0x8, addend: 0x0, symName: __ZNSt3__16vectorIiNS_9allocatorIiEEE17__destruct_at_endB7v160006EPi, symObjAddr: 0x125E8, symBinAddr: 0x1000158F8, symSize: 0x60 }
  - { offsetInCU: 0x4FECE, offset: 0x4FECE, size: 0x8, addend: 0x0, symName: __ZNSt3__16vectorIiNS_9allocatorIiEEE13__vdeallocateEv, symObjAddr: 0x12648, symBinAddr: 0x100015958, symSize: 0x8C }
  - { offsetInCU: 0x4FEF6, offset: 0x4FEF6, size: 0x8, addend: 0x0, symName: __ZNKSt3__16vectorIiNS_9allocatorIiEEE11__recommendB7v160006Em, symObjAddr: 0x126D4, symBinAddr: 0x1000159E4, symSize: 0xB4 }
  - { offsetInCU: 0x4FF73, offset: 0x4FF73, size: 0x8, addend: 0x0, symName: __ZNKSt3__114__copy_trivialclB7v160006IKiiLi0EEENS_4pairIPT_PT0_EES5_S5_S7_, symObjAddr: 0x12998, symBinAddr: 0x100015CA8, symSize: 0x48 }
  - { offsetInCU: 0x4FFFE, offset: 0x4FFFE, size: 0x8, addend: 0x0, symName: __ZNSt3__14pairIPKiS2_EC1B7v160006IS2_S2_LPv0EEEOT_OT0_, symObjAddr: 0x12B00, symBinAddr: 0x100015E10, symSize: 0x3C }
  - { offsetInCU: 0x5005C, offset: 0x5005C, size: 0x8, addend: 0x0, symName: __ZNSt3__14pairIPKiS2_EC2B7v160006IS2_S2_LPv0EEEOT_OT0_, symObjAddr: 0x12B3C, symBinAddr: 0x100015E4C, symSize: 0x34 }
  - { offsetInCU: 0x500BA, offset: 0x500BA, size: 0x8, addend: 0x0, symName: __ZNSt3__118__unwrap_iter_implIPKiLb1EE8__unwrapB7v160006ES2_, symObjAddr: 0x12B70, symBinAddr: 0x100015E80, symSize: 0x24 }
  - { offsetInCU: 0x500E3, offset: 0x500E3, size: 0x8, addend: 0x0, symName: __ZNSt3__14pairIPKiPiEC1B7v160006IRS2_S3_LPv0EEEOT_OT0_, symObjAddr: 0x12C64, symBinAddr: 0x100015F74, symSize: 0x3C }
  - { offsetInCU: 0x50141, offset: 0x50141, size: 0x8, addend: 0x0, symName: __ZNSt3__14pairIPKiPiEC2B7v160006IRS2_S3_LPv0EEEOT_OT0_, symObjAddr: 0x12CA0, symBinAddr: 0x100015FB0, symSize: 0x34 }
  - { offsetInCU: 0x5019F, offset: 0x5019F, size: 0x8, addend: 0x0, symName: __ZNSt3__118__unwrap_iter_implIPiLb1EE8__unwrapB7v160006ES1_, symObjAddr: 0x12CD4, symBinAddr: 0x100015FE4, symSize: 0x24 }
  - { offsetInCU: 0x501C2, offset: 0x501C2, size: 0x8, addend: 0x0, symName: __ZNSt3__14pairIPKiPiEC1B7v160006IS2_S3_LPv0EEEOT_OT0_, symObjAddr: 0x12CF8, symBinAddr: 0x100016008, symSize: 0x3C }
  - { offsetInCU: 0x50220, offset: 0x50220, size: 0x8, addend: 0x0, symName: __ZNSt3__14pairIPKiPiEC2B7v160006IS2_S3_LPv0EEEOT_OT0_, symObjAddr: 0x12D34, symBinAddr: 0x100016044, symSize: 0x34 }
  - { offsetInCU: 0x5027E, offset: 0x5027E, size: 0x8, addend: 0x0, symName: __ZNSt3__118__unwrap_iter_implIPKiLb1EE8__rewrapB7v160006ES2_S2_, symObjAddr: 0x12DA4, symBinAddr: 0x1000160B4, symSize: 0x50 }
  - { offsetInCU: 0x502AF, offset: 0x502AF, size: 0x8, addend: 0x0, symName: __ZNSt3__118__unwrap_iter_implIPiLb1EE8__rewrapB7v160006ES1_S1_, symObjAddr: 0x12DF4, symBinAddr: 0x100016104, symSize: 0x50 }
  - { offsetInCU: 0x502E0, offset: 0x502E0, size: 0x8, addend: 0x0, symName: __ZNSt3__16vectorIiNS_9allocatorIiEEE27__invalidate_iterators_pastB7v160006EPi, symObjAddr: 0x12E7C, symBinAddr: 0x10001618C, symSize: 0x14 }
  - { offsetInCU: 0x50317, offset: 0x50317, size: 0x8, addend: 0x0, symName: __ZNKSt3__16vectorIiNS_9allocatorIiEEE17__annotate_shrinkB7v160006Em, symObjAddr: 0x12E90, symBinAddr: 0x1000161A0, symSize: 0xB4 }
  - { offsetInCU: 0x5034C, offset: 0x5034C, size: 0x8, addend: 0x0, symName: __ZNSt3__16vectorIiNS_9allocatorIiEEE5clearB7v160006Ev, symObjAddr: 0x12F44, symBinAddr: 0x100016254, symSize: 0x54 }
  - { offsetInCU: 0x50381, offset: 0x50381, size: 0x8, addend: 0x0, symName: __ZNSt3__16vectorINS0_IiNS_9allocatorIiEEEENS1_IS3_EEE8__appendEm, symObjAddr: 0x13018, symBinAddr: 0x100016328, symSize: 0x108 }
  - { offsetInCU: 0x503DC, offset: 0x503DC, size: 0x8, addend: 0x0, symName: __ZNSt3__16vectorINS0_IiNS_9allocatorIiEEEENS1_IS3_EEE17__destruct_at_endB7v160006EPS3_, symObjAddr: 0x13120, symBinAddr: 0x100016430, symSize: 0x60 }
  - { offsetInCU: 0x50420, offset: 0x50420, size: 0x8, addend: 0x0, symName: __ZNSt3__16vectorINS0_IiNS_9allocatorIiEEEENS1_IS3_EEE9__end_capB7v160006Ev, symObjAddr: 0x13180, symBinAddr: 0x100016490, symSize: 0x28 }
  - { offsetInCU: 0x50446, offset: 0x50446, size: 0x8, addend: 0x0, symName: __ZNSt3__16vectorINS0_IiNS_9allocatorIiEEEENS1_IS3_EEE18__construct_at_endEm, symObjAddr: 0x131A8, symBinAddr: 0x1000164B8, symSize: 0xC8 }
  - { offsetInCU: 0x504B8, offset: 0x504B8, size: 0x8, addend: 0x0, symName: __ZNKSt3__16vectorINS0_IiNS_9allocatorIiEEEENS1_IS3_EEE11__recommendB7v160006Em, symObjAddr: 0x13270, symBinAddr: 0x100016580, symSize: 0xB4 }
  - { offsetInCU: 0x5050D, offset: 0x5050D, size: 0x8, addend: 0x0, symName: __ZNSt3__114__split_bufferINS_6vectorIiNS_9allocatorIiEEEERNS2_IS4_EEEC1EmmS6_, symObjAddr: 0x13324, symBinAddr: 0x100016634, symSize: 0x44 }
  - { offsetInCU: 0x50563, offset: 0x50563, size: 0x8, addend: 0x0, symName: __ZNSt3__114__split_bufferINS_6vectorIiNS_9allocatorIiEEEERNS2_IS4_EEE18__construct_at_endEm, symObjAddr: 0x13368, symBinAddr: 0x100016678, symSize: 0xB4 }
  - { offsetInCU: 0x505A6, offset: 0x505A6, size: 0x8, addend: 0x0, symName: __ZNSt3__114__split_bufferINS_6vectorIiNS_9allocatorIiEEEERNS2_IS4_EEED1Ev, symObjAddr: 0x13534, symBinAddr: 0x100016844, symSize: 0x2C }
  - { offsetInCU: 0x505D2, offset: 0x505D2, size: 0x8, addend: 0x0, symName: __ZNSt3__117__compressed_pairIPNS_6vectorIiNS_9allocatorIiEEEENS2_IS4_EEE5firstB7v160006Ev, symObjAddr: 0x13560, symBinAddr: 0x100016870, symSize: 0x24 }
  - { offsetInCU: 0x505F8, offset: 0x505F8, size: 0x8, addend: 0x0, symName: __ZNSt3__122__compressed_pair_elemIPNS_6vectorIiNS_9allocatorIiEEEELi0ELb0EE5__getB7v160006Ev, symObjAddr: 0x13584, symBinAddr: 0x100016894, symSize: 0x14 }
  - { offsetInCU: 0x5063A, offset: 0x5063A, size: 0x8, addend: 0x0, symName: __ZNSt3__16vectorINS0_IiNS_9allocatorIiEEEENS1_IS3_EEE21_ConstructTransactionC1B7v160006ERS5_m, symObjAddr: 0x13598, symBinAddr: 0x1000168A8, symSize: 0x3C }
  - { offsetInCU: 0x50682, offset: 0x50682, size: 0x8, addend: 0x0, symName: __ZNSt3__116allocator_traitsINS_9allocatorINS_6vectorIiNS1_IiEEEEEEE9constructB7v160006IS4_JEvEEvRS5_PT_DpOT0_, symObjAddr: 0x135D4, symBinAddr: 0x1000168E4, symSize: 0x2C }
  - { offsetInCU: 0x506C4, offset: 0x506C4, size: 0x8, addend: 0x0, symName: __ZNSt3__16vectorINS0_IiNS_9allocatorIiEEEENS1_IS3_EEE21_ConstructTransactionD1B7v160006Ev, symObjAddr: 0x13600, symBinAddr: 0x100016910, symSize: 0x2C }
  - { offsetInCU: 0x506EE, offset: 0x506EE, size: 0x8, addend: 0x0, symName: __ZNSt3__16vectorINS0_IiNS_9allocatorIiEEEENS1_IS3_EEE21_ConstructTransactionC2B7v160006ERS5_m, symObjAddr: 0x1362C, symBinAddr: 0x10001693C, symSize: 0x4C }
  - { offsetInCU: 0x50736, offset: 0x50736, size: 0x8, addend: 0x0, symName: __ZNSt3__19allocatorINS_6vectorIiNS0_IiEEEEE9constructB7v160006IS3_JEEEvPT_DpOT0_, symObjAddr: 0x13678, symBinAddr: 0x100016988, symSize: 0x28 }
  - { offsetInCU: 0x50778, offset: 0x50778, size: 0x8, addend: 0x0, symName: __ZNSt3__16vectorINS0_IiNS_9allocatorIiEEEENS1_IS3_EEE21_ConstructTransactionD2B7v160006Ev, symObjAddr: 0x136A0, symBinAddr: 0x1000169B0, symSize: 0x20 }
  - { offsetInCU: 0x507A2, offset: 0x507A2, size: 0x8, addend: 0x0, symName: __ZNKSt3__16vectorINS0_IiNS_9allocatorIiEEEENS1_IS3_EEE8max_sizeEv, symObjAddr: 0x136C0, symBinAddr: 0x1000169D0, symSize: 0x60 }
  - { offsetInCU: 0x507CA, offset: 0x507CA, size: 0x8, addend: 0x0, symName: __ZNKSt3__16vectorINS0_IiNS_9allocatorIiEEEENS1_IS3_EEE20__throw_length_errorB7v160006Ev, symObjAddr: 0x13720, symBinAddr: 0x100016A30, symSize: 0x1C }
  - { offsetInCU: 0x507FB, offset: 0x507FB, size: 0x8, addend: 0x0, symName: __ZNSt3__116allocator_traitsINS_9allocatorINS_6vectorIiNS1_IiEEEEEEE8max_sizeB7v160006IS5_vEEmRKS5_, symObjAddr: 0x1373C, symBinAddr: 0x100016A4C, symSize: 0x24 }
  - { offsetInCU: 0x50829, offset: 0x50829, size: 0x8, addend: 0x0, symName: __ZNKSt3__16vectorINS0_IiNS_9allocatorIiEEEENS1_IS3_EEE7__allocB7v160006Ev, symObjAddr: 0x13760, symBinAddr: 0x100016A70, symSize: 0x28 }
  - { offsetInCU: 0x5084F, offset: 0x5084F, size: 0x8, addend: 0x0, symName: __ZNKSt3__19allocatorINS_6vectorIiNS0_IiEEEEE8max_sizeB7v160006Ev, symObjAddr: 0x13788, symBinAddr: 0x100016A98, symSize: 0x18 }
  - { offsetInCU: 0x50875, offset: 0x50875, size: 0x8, addend: 0x0, symName: __ZNKSt3__117__compressed_pairIPNS_6vectorIiNS_9allocatorIiEEEENS2_IS4_EEE6secondB7v160006Ev, symObjAddr: 0x137A0, symBinAddr: 0x100016AB0, symSize: 0x24 }
  - { offsetInCU: 0x5089B, offset: 0x5089B, size: 0x8, addend: 0x0, symName: __ZNKSt3__122__compressed_pair_elemINS_9allocatorINS_6vectorIiNS1_IiEEEEEELi1ELb1EE5__getB7v160006Ev, symObjAddr: 0x137C4, symBinAddr: 0x100016AD4, symSize: 0x14 }
  - { offsetInCU: 0x508C1, offset: 0x508C1, size: 0x8, addend: 0x0, symName: __ZNSt3__114__split_bufferINS_6vectorIiNS_9allocatorIiEEEERNS2_IS4_EEEC2EmmS6_, symObjAddr: 0x137D8, symBinAddr: 0x100016AE8, symSize: 0xE0 }
  - { offsetInCU: 0x50934, offset: 0x50934, size: 0x8, addend: 0x0, symName: __ZNSt3__117__compressed_pairIPNS_6vectorIiNS_9allocatorIiEEEERNS2_IS4_EEEC1B7v160006IDnS7_EEOT_OT0_, symObjAddr: 0x138B8, symBinAddr: 0x100016BC8, symSize: 0x3C }
  - { offsetInCU: 0x5098C, offset: 0x5098C, size: 0x8, addend: 0x0, symName: __ZNSt3__114__split_bufferINS_6vectorIiNS_9allocatorIiEEEERNS2_IS4_EEE7__allocB7v160006Ev, symObjAddr: 0x13934, symBinAddr: 0x100016C44, symSize: 0x28 }
  - { offsetInCU: 0x509B2, offset: 0x509B2, size: 0x8, addend: 0x0, symName: __ZNSt3__114__split_bufferINS_6vectorIiNS_9allocatorIiEEEERNS2_IS4_EEE9__end_capB7v160006Ev, symObjAddr: 0x1395C, symBinAddr: 0x100016C6C, symSize: 0x28 }
  - { offsetInCU: 0x509D8, offset: 0x509D8, size: 0x8, addend: 0x0, symName: __ZNSt3__117__compressed_pairIPNS_6vectorIiNS_9allocatorIiEEEERNS2_IS4_EEEC2B7v160006IDnS7_EEOT_OT0_, symObjAddr: 0x13984, symBinAddr: 0x100016C94, symSize: 0x48 }
  - { offsetInCU: 0x50A30, offset: 0x50A30, size: 0x8, addend: 0x0, symName: __ZNSt3__122__compressed_pair_elemIRNS_9allocatorINS_6vectorIiNS1_IiEEEEEELi1ELb0EEC2B7v160006IS6_vEEOT_, symObjAddr: 0x139CC, symBinAddr: 0x100016CDC, symSize: 0x20 }
  - { offsetInCU: 0x50A72, offset: 0x50A72, size: 0x8, addend: 0x0, symName: __ZNSt3__19allocatorINS_6vectorIiNS0_IiEEEEE8allocateB7v160006Em, symObjAddr: 0x139EC, symBinAddr: 0x100016CFC, symSize: 0x5C }
  - { offsetInCU: 0x50AA6, offset: 0x50AA6, size: 0x8, addend: 0x0, symName: __ZNSt3__117__compressed_pairIPNS_6vectorIiNS_9allocatorIiEEEERNS2_IS4_EEE6secondB7v160006Ev, symObjAddr: 0x13A48, symBinAddr: 0x100016D58, symSize: 0x28 }
  - { offsetInCU: 0x50ACC, offset: 0x50ACC, size: 0x8, addend: 0x0, symName: __ZNSt3__122__compressed_pair_elemIRNS_9allocatorINS_6vectorIiNS1_IiEEEEEELi1ELb0EE5__getB7v160006Ev, symObjAddr: 0x13A70, symBinAddr: 0x100016D80, symSize: 0x18 }
  - { offsetInCU: 0x50AF2, offset: 0x50AF2, size: 0x8, addend: 0x0, symName: __ZNSt3__117__compressed_pairIPNS_6vectorIiNS_9allocatorIiEEEERNS2_IS4_EEE5firstB7v160006Ev, symObjAddr: 0x13A88, symBinAddr: 0x100016D98, symSize: 0x24 }
  - { offsetInCU: 0x50B24, offset: 0x50B24, size: 0x8, addend: 0x0, symName: __ZNSt3__114__split_bufferINS_6vectorIiNS_9allocatorIiEEEERNS2_IS4_EEE21_ConstructTransactionC1B7v160006EPPS4_m, symObjAddr: 0x13AAC, symBinAddr: 0x100016DBC, symSize: 0x3C }
  - { offsetInCU: 0x50B6A, offset: 0x50B6A, size: 0x8, addend: 0x0, symName: __ZNSt3__114__split_bufferINS_6vectorIiNS_9allocatorIiEEEERNS2_IS4_EEE21_ConstructTransactionD1B7v160006Ev, symObjAddr: 0x13AE8, symBinAddr: 0x100016DF8, symSize: 0x2C }
  - { offsetInCU: 0x50B94, offset: 0x50B94, size: 0x8, addend: 0x0, symName: __ZNSt3__114__split_bufferINS_6vectorIiNS_9allocatorIiEEEERNS2_IS4_EEE21_ConstructTransactionC2B7v160006EPPS4_m, symObjAddr: 0x13B14, symBinAddr: 0x100016E24, symSize: 0x4C }
  - { offsetInCU: 0x50BDA, offset: 0x50BDA, size: 0x8, addend: 0x0, symName: __ZNSt3__114__split_bufferINS_6vectorIiNS_9allocatorIiEEEERNS2_IS4_EEE21_ConstructTransactionD2B7v160006Ev, symObjAddr: 0x13B60, symBinAddr: 0x100016E70, symSize: 0x20 }
  - { offsetInCU: 0x50C04, offset: 0x50C04, size: 0x8, addend: 0x0, symName: __ZNSt3__116reverse_iteratorIPNS_6vectorIiNS_9allocatorIiEEEEEC1B7v160006ES5_, symObjAddr: 0x13CAC, symBinAddr: 0x100016FBC, symSize: 0x34 }
  - { offsetInCU: 0x50C3C, offset: 0x50C3C, size: 0x8, addend: 0x0, symName: __ZNKSt3__116reverse_iteratorIPNS_6vectorIiNS_9allocatorIiEEEEE4baseB7v160006Ev, symObjAddr: 0x13CE0, symBinAddr: 0x100016FF0, symSize: 0x18 }
  - { offsetInCU: 0x50C62, offset: 0x50C62, size: 0x8, addend: 0x0, symName: __ZNKSt3__16vectorINS0_IiNS_9allocatorIiEEEENS1_IS3_EEE14__annotate_newB7v160006Em, symObjAddr: 0x13D34, symBinAddr: 0x100017044, symSize: 0xC8 }
  - { offsetInCU: 0x50C97, offset: 0x50C97, size: 0x8, addend: 0x0, symName: __ZNSt3__129_AllocatorDestroyRangeReverseINS_9allocatorINS_6vectorIiNS1_IiEEEEEENS_16reverse_iteratorIPS4_EEEC1B7v160006ERS5_RS8_SB_, symObjAddr: 0x13E58, symBinAddr: 0x100017168, symSize: 0x44 }
  - { offsetInCU: 0x50CEE, offset: 0x50CEE, size: 0x8, addend: 0x0, symName: __ZNSt3__116allocator_traitsINS_9allocatorINS_6vectorIiNS1_IiEEEEEEE9constructB7v160006IS4_JS4_EvEEvRS5_PT_DpOT0_, symObjAddr: 0x13EE4, symBinAddr: 0x1000171F4, symSize: 0x34 }
  - { offsetInCU: 0x50D45, offset: 0x50D45, size: 0x8, addend: 0x0, symName: __ZNKSt3__116reverse_iteratorIPNS_6vectorIiNS_9allocatorIiEEEEEdeB7v160006Ev, symObjAddr: 0x13F3C, symBinAddr: 0x10001724C, symSize: 0x28 }
  - { offsetInCU: 0x50D79, offset: 0x50D79, size: 0x8, addend: 0x0, symName: __ZNSt3__116reverse_iteratorIPNS_6vectorIiNS_9allocatorIiEEEEEppB7v160006Ev, symObjAddr: 0x13F64, symBinAddr: 0x100017274, symSize: 0x20 }
  - { offsetInCU: 0x50D9F, offset: 0x50D9F, size: 0x8, addend: 0x0, symName: __ZNSt3__128__exception_guard_exceptionsINS_29_AllocatorDestroyRangeReverseINS_9allocatorINS_6vectorIiNS2_IiEEEEEENS_16reverse_iteratorIPS5_EEEEE10__completeB7v160006Ev, symObjAddr: 0x13F84, symBinAddr: 0x100017294, symSize: 0x1C }
  - { offsetInCU: 0x50DC5, offset: 0x50DC5, size: 0x8, addend: 0x0, symName: __ZNSt3__128__exception_guard_exceptionsINS_29_AllocatorDestroyRangeReverseINS_9allocatorINS_6vectorIiNS2_IiEEEEEENS_16reverse_iteratorIPS5_EEEEED1B7v160006Ev, symObjAddr: 0x13FA0, symBinAddr: 0x1000172B0, symSize: 0x2C }
  - { offsetInCU: 0x50DEF, offset: 0x50DEF, size: 0x8, addend: 0x0, symName: __ZNSt3__128__exception_guard_exceptionsINS_29_AllocatorDestroyRangeReverseINS_9allocatorINS_6vectorIiNS2_IiEEEEEENS_16reverse_iteratorIPS5_EEEEEC1B7v160006ESA_, symObjAddr: 0x13FCC, symBinAddr: 0x1000172DC, symSize: 0x34 }
  - { offsetInCU: 0x50E28, offset: 0x50E28, size: 0x8, addend: 0x0, symName: __ZNSt3__128__exception_guard_exceptionsINS_29_AllocatorDestroyRangeReverseINS_9allocatorINS_6vectorIiNS2_IiEEEEEENS_16reverse_iteratorIPS5_EEEEEC2B7v160006ESA_, symObjAddr: 0x14000, symBinAddr: 0x100017310, symSize: 0x30 }
  - { offsetInCU: 0x50E61, offset: 0x50E61, size: 0x8, addend: 0x0, symName: __ZNSt3__129_AllocatorDestroyRangeReverseINS_9allocatorINS_6vectorIiNS1_IiEEEEEENS_16reverse_iteratorIPS4_EEEC2B7v160006ERS5_RS8_SB_, symObjAddr: 0x14030, symBinAddr: 0x100017340, symSize: 0x38 }
  - { offsetInCU: 0x50EB8, offset: 0x50EB8, size: 0x8, addend: 0x0, symName: __ZNSt3__19allocatorINS_6vectorIiNS0_IiEEEEE9constructB7v160006IS3_JS3_EEEvPT_DpOT0_, symObjAddr: 0x14068, symBinAddr: 0x100017378, symSize: 0x30 }
  - { offsetInCU: 0x50F0E, offset: 0x50F0E, size: 0x8, addend: 0x0, symName: __ZNSt3__16vectorIiNS_9allocatorIiEEEC1B7v160006EOS3_, symObjAddr: 0x14098, symBinAddr: 0x1000173A8, symSize: 0x34 }
  - { offsetInCU: 0x50F49, offset: 0x50F49, size: 0x8, addend: 0x0, symName: __ZNSt3__16vectorIiNS_9allocatorIiEEEC2B7v160006EOS3_, symObjAddr: 0x140CC, symBinAddr: 0x1000173DC, symSize: 0xDC }
  - { offsetInCU: 0x50F8A, offset: 0x50F8A, size: 0x8, addend: 0x0, symName: __ZNSt3__119__to_address_helperINS_16reverse_iteratorIPNS_6vectorIiNS_9allocatorIiEEEEEEvE6__callB7v160006ERKS7_, symObjAddr: 0x141BC, symBinAddr: 0x1000174CC, symSize: 0x38 }
  - { offsetInCU: 0x50FAD, offset: 0x50FAD, size: 0x8, addend: 0x0, symName: __ZNKSt3__116reverse_iteratorIPNS_6vectorIiNS_9allocatorIiEEEEEptB7v160006Ev, symObjAddr: 0x141F4, symBinAddr: 0x100017504, symSize: 0x24 }
  - { offsetInCU: 0x50FD3, offset: 0x50FD3, size: 0x8, addend: 0x0, symName: __ZNSt3__128__exception_guard_exceptionsINS_29_AllocatorDestroyRangeReverseINS_9allocatorINS_6vectorIiNS2_IiEEEEEENS_16reverse_iteratorIPS5_EEEEED2B7v160006Ev, symObjAddr: 0x14218, symBinAddr: 0x100017528, symSize: 0x50 }
  - { offsetInCU: 0x50FFD, offset: 0x50FFD, size: 0x8, addend: 0x0, symName: __ZNKSt3__129_AllocatorDestroyRangeReverseINS_9allocatorINS_6vectorIiNS1_IiEEEEEENS_16reverse_iteratorIPS4_EEEclB7v160006Ev, symObjAddr: 0x14268, symBinAddr: 0x100017578, symSize: 0xB4 }
  - { offsetInCU: 0x51024, offset: 0x51024, size: 0x8, addend: 0x0, symName: __ZNSt3__116reverse_iteratorINS0_IPNS_6vectorIiNS_9allocatorIiEEEEEEEC1B7v160006ES6_, symObjAddr: 0x1438C, symBinAddr: 0x10001769C, symSize: 0x3C }
  - { offsetInCU: 0x5105C, offset: 0x5105C, size: 0x8, addend: 0x0, symName: __ZNSt3__116reverse_iteratorINS0_IPNS_6vectorIiNS_9allocatorIiEEEEEEEppB7v160006Ev, symObjAddr: 0x1444C, symBinAddr: 0x10001775C, symSize: 0x30 }
  - { offsetInCU: 0x51082, offset: 0x51082, size: 0x8, addend: 0x0, symName: __ZNKSt3__116reverse_iteratorINS0_IPNS_6vectorIiNS_9allocatorIiEEEEEEE4baseB7v160006Ev, symObjAddr: 0x1447C, symBinAddr: 0x10001778C, symSize: 0x24 }
  - { offsetInCU: 0x510AE, offset: 0x510AE, size: 0x8, addend: 0x0, symName: __ZNSt3__119__to_address_helperINS_16reverse_iteratorINS1_IPNS_6vectorIiNS_9allocatorIiEEEEEEEEvE6__callB7v160006ERKS8_, symObjAddr: 0x144A0, symBinAddr: 0x1000177B0, symSize: 0x38 }
  - { offsetInCU: 0x510D1, offset: 0x510D1, size: 0x8, addend: 0x0, symName: __ZNKSt3__116reverse_iteratorINS0_IPNS_6vectorIiNS_9allocatorIiEEEEEEEptB7v160006Ev, symObjAddr: 0x144D8, symBinAddr: 0x1000177E8, symSize: 0x24 }
  - { offsetInCU: 0x510F7, offset: 0x510F7, size: 0x8, addend: 0x0, symName: __ZNKSt3__116reverse_iteratorINS0_IPNS_6vectorIiNS_9allocatorIiEEEEEEEdeB7v160006Ev, symObjAddr: 0x144FC, symBinAddr: 0x10001780C, symSize: 0x34 }
  - { offsetInCU: 0x5112B, offset: 0x5112B, size: 0x8, addend: 0x0, symName: __ZNSt3__116reverse_iteratorIPNS_6vectorIiNS_9allocatorIiEEEEEmmB7v160006Ev, symObjAddr: 0x14530, symBinAddr: 0x100017840, symSize: 0x20 }
  - { offsetInCU: 0x51151, offset: 0x51151, size: 0x8, addend: 0x0, symName: __ZNSt3__116reverse_iteratorINS0_IPNS_6vectorIiNS_9allocatorIiEEEEEEEC2B7v160006ES6_, symObjAddr: 0x14550, symBinAddr: 0x100017860, symSize: 0x2C }
  - { offsetInCU: 0x51189, offset: 0x51189, size: 0x8, addend: 0x0, symName: __ZNSt3__116reverse_iteratorIPNS_6vectorIiNS_9allocatorIiEEEEEC2B7v160006ES5_, symObjAddr: 0x1457C, symBinAddr: 0x10001788C, symSize: 0x28 }
  - { offsetInCU: 0x511C1, offset: 0x511C1, size: 0x8, addend: 0x0, symName: __ZNSt3__114__split_bufferINS_6vectorIiNS_9allocatorIiEEEERNS2_IS4_EEED2Ev, symObjAddr: 0x145A4, symBinAddr: 0x1000178B4, symSize: 0x8C }
  - { offsetInCU: 0x511ED, offset: 0x511ED, size: 0x8, addend: 0x0, symName: __ZNSt3__114__split_bufferINS_6vectorIiNS_9allocatorIiEEEERNS2_IS4_EEE5clearB7v160006Ev, symObjAddr: 0x14630, symBinAddr: 0x100017940, symSize: 0x28 }
  - { offsetInCU: 0x51213, offset: 0x51213, size: 0x8, addend: 0x0, symName: __ZNKSt3__114__split_bufferINS_6vectorIiNS_9allocatorIiEEEERNS2_IS4_EEE8capacityB7v160006Ev, symObjAddr: 0x14658, symBinAddr: 0x100017968, symSize: 0x40 }
  - { offsetInCU: 0x51239, offset: 0x51239, size: 0x8, addend: 0x0, symName: __ZNSt3__114__split_bufferINS_6vectorIiNS_9allocatorIiEEEERNS2_IS4_EEE17__destruct_at_endB7v160006EPS4_, symObjAddr: 0x14698, symBinAddr: 0x1000179A8, symSize: 0x2C }
  - { offsetInCU: 0x5126D, offset: 0x5126D, size: 0x8, addend: 0x0, symName: __ZNSt3__114__split_bufferINS_6vectorIiNS_9allocatorIiEEEERNS2_IS4_EEE17__destruct_at_endB7v160006EPS4_NS_17integral_constantIbLb0EEE, symObjAddr: 0x146C4, symBinAddr: 0x1000179D4, symSize: 0x80 }
  - { offsetInCU: 0x512AD, offset: 0x512AD, size: 0x8, addend: 0x0, symName: __ZNKSt3__114__split_bufferINS_6vectorIiNS_9allocatorIiEEEERNS2_IS4_EEE9__end_capB7v160006Ev, symObjAddr: 0x14744, symBinAddr: 0x100017A54, symSize: 0x28 }
  - { offsetInCU: 0x512D3, offset: 0x512D3, size: 0x8, addend: 0x0, symName: __ZNKSt3__117__compressed_pairIPNS_6vectorIiNS_9allocatorIiEEEERNS2_IS4_EEE5firstB7v160006Ev, symObjAddr: 0x1476C, symBinAddr: 0x100017A7C, symSize: 0x24 }
  - { offsetInCU: 0x512F9, offset: 0x512F9, size: 0x8, addend: 0x0, symName: __ZNSt3__16vectorINS0_IiNS_9allocatorIiEEEENS1_IS3_EEE27__invalidate_iterators_pastB7v160006EPS3_, symObjAddr: 0x14790, symBinAddr: 0x100017AA0, symSize: 0x14 }
  - { offsetInCU: 0x51330, offset: 0x51330, size: 0x8, addend: 0x0, symName: __ZNKSt3__16vectorINS0_IiNS_9allocatorIiEEEENS1_IS3_EEE17__annotate_shrinkB7v160006Em, symObjAddr: 0x147A4, symBinAddr: 0x100017AB4, symSize: 0xD0 }
  - { offsetInCU: 0x51365, offset: 0x51365, size: 0x8, addend: 0x0, symName: __ZNSt3__16vectorIiNS_9allocatorIiEEE8__appendEmRKi, symObjAddr: 0x14874, symBinAddr: 0x100017B84, symSize: 0x114 }
  - { offsetInCU: 0x513CF, offset: 0x513CF, size: 0x8, addend: 0x0, symName: __ZNSt3__16vectorIiNS_9allocatorIiEEE18__construct_at_endEmRKi, symObjAddr: 0x14988, symBinAddr: 0x100017C98, symSize: 0xD0 }
  - { offsetInCU: 0x51450, offset: 0x51450, size: 0x8, addend: 0x0, symName: __ZNSt3__114__split_bufferIiRNS_9allocatorIiEEEC1EmmS3_, symObjAddr: 0x14A58, symBinAddr: 0x100017D68, symSize: 0x44 }
  - { offsetInCU: 0x514A6, offset: 0x514A6, size: 0x8, addend: 0x0, symName: __ZNSt3__114__split_bufferIiRNS_9allocatorIiEEE18__construct_at_endEmRKi, symObjAddr: 0x14A9C, symBinAddr: 0x100017DAC, symSize: 0xBC }
  - { offsetInCU: 0x514F7, offset: 0x514F7, size: 0x8, addend: 0x0, symName: __ZNSt3__114__split_bufferIiRNS_9allocatorIiEEED1Ev, symObjAddr: 0x14C70, symBinAddr: 0x100017F80, symSize: 0x2C }
  - { offsetInCU: 0x51523, offset: 0x51523, size: 0x8, addend: 0x0, symName: __ZNSt3__116allocator_traitsINS_9allocatorIiEEE9constructB7v160006IiJRKiEvEEvRS2_PT_DpOT0_, symObjAddr: 0x14C9C, symBinAddr: 0x100017FAC, symSize: 0x34 }
  - { offsetInCU: 0x5157A, offset: 0x5157A, size: 0x8, addend: 0x0, symName: __ZNSt3__19allocatorIiE9constructB7v160006IiJRKiEEEvPT_DpOT0_, symObjAddr: 0x14CD0, symBinAddr: 0x100017FE0, symSize: 0x28 }
  - { offsetInCU: 0x515D0, offset: 0x515D0, size: 0x8, addend: 0x0, symName: __ZNSt3__114__split_bufferIiRNS_9allocatorIiEEEC2EmmS3_, symObjAddr: 0x14CF8, symBinAddr: 0x100018008, symSize: 0xD4 }
  - { offsetInCU: 0x51643, offset: 0x51643, size: 0x8, addend: 0x0, symName: __ZNSt3__117__compressed_pairIPiRNS_9allocatorIiEEEC1B7v160006IDnS4_EEOT_OT0_, symObjAddr: 0x14DCC, symBinAddr: 0x1000180DC, symSize: 0x3C }
  - { offsetInCU: 0x5169B, offset: 0x5169B, size: 0x8, addend: 0x0, symName: __ZNSt3__114__split_bufferIiRNS_9allocatorIiEEE7__allocB7v160006Ev, symObjAddr: 0x14E08, symBinAddr: 0x100018118, symSize: 0x28 }
  - { offsetInCU: 0x516C1, offset: 0x516C1, size: 0x8, addend: 0x0, symName: __ZNSt3__114__split_bufferIiRNS_9allocatorIiEEE9__end_capB7v160006Ev, symObjAddr: 0x14E30, symBinAddr: 0x100018140, symSize: 0x28 }
  - { offsetInCU: 0x516E7, offset: 0x516E7, size: 0x8, addend: 0x0, symName: __ZNSt3__117__compressed_pairIPiRNS_9allocatorIiEEEC2B7v160006IDnS4_EEOT_OT0_, symObjAddr: 0x14E58, symBinAddr: 0x100018168, symSize: 0x48 }
  - { offsetInCU: 0x5173F, offset: 0x5173F, size: 0x8, addend: 0x0, symName: __ZNSt3__122__compressed_pair_elemIRNS_9allocatorIiEELi1ELb0EEC2B7v160006IS3_vEEOT_, symObjAddr: 0x14EA0, symBinAddr: 0x1000181B0, symSize: 0x20 }
  - { offsetInCU: 0x51781, offset: 0x51781, size: 0x8, addend: 0x0, symName: __ZNSt3__117__compressed_pairIPiRNS_9allocatorIiEEE6secondB7v160006Ev, symObjAddr: 0x14EC0, symBinAddr: 0x1000181D0, symSize: 0x28 }
  - { offsetInCU: 0x517A7, offset: 0x517A7, size: 0x8, addend: 0x0, symName: __ZNSt3__122__compressed_pair_elemIRNS_9allocatorIiEELi1ELb0EE5__getB7v160006Ev, symObjAddr: 0x14EE8, symBinAddr: 0x1000181F8, symSize: 0x18 }
  - { offsetInCU: 0x517CD, offset: 0x517CD, size: 0x8, addend: 0x0, symName: __ZNSt3__117__compressed_pairIPiRNS_9allocatorIiEEE5firstB7v160006Ev, symObjAddr: 0x14F00, symBinAddr: 0x100018210, symSize: 0x24 }
  - { offsetInCU: 0x517FF, offset: 0x517FF, size: 0x8, addend: 0x0, symName: __ZNSt3__114__split_bufferIiRNS_9allocatorIiEEE21_ConstructTransactionC1B7v160006EPPim, symObjAddr: 0x14F24, symBinAddr: 0x100018234, symSize: 0x3C }
  - { offsetInCU: 0x51845, offset: 0x51845, size: 0x8, addend: 0x0, symName: __ZNSt3__114__split_bufferIiRNS_9allocatorIiEEE21_ConstructTransactionD1B7v160006Ev, symObjAddr: 0x14F60, symBinAddr: 0x100018270, symSize: 0x2C }
  - { offsetInCU: 0x5186F, offset: 0x5186F, size: 0x8, addend: 0x0, symName: __ZNSt3__114__split_bufferIiRNS_9allocatorIiEEE21_ConstructTransactionC2B7v160006EPPim, symObjAddr: 0x14F8C, symBinAddr: 0x10001829C, symSize: 0x44 }
  - { offsetInCU: 0x518B5, offset: 0x518B5, size: 0x8, addend: 0x0, symName: __ZNSt3__114__split_bufferIiRNS_9allocatorIiEEE21_ConstructTransactionD2B7v160006Ev, symObjAddr: 0x14FD0, symBinAddr: 0x1000182E0, symSize: 0x20 }
  - { offsetInCU: 0x51907, offset: 0x51907, size: 0x8, addend: 0x0, symName: __ZNKSt3__111__move_loopINS_17_ClassicAlgPolicyEEclB7v160006INS_16reverse_iteratorIPiEES6_S6_EENS_4pairIT_T1_EES8_T0_S9_, symObjAddr: 0x15394, symBinAddr: 0x1000186A4, symSize: 0xA0 }
  - { offsetInCU: 0x51972, offset: 0x51972, size: 0x8, addend: 0x0, symName: __ZNSt3__18_IterOpsINS_17_ClassicAlgPolicyEE11__iter_moveB7v160006IRNS_16reverse_iteratorIPiEEEENS_9enable_ifIXsr12is_referenceIDTdeclsr3stdE7declvalIRT_EEEEE5valueEDTclsr3stdE4movedeclsr3stdE7declvalISA_EEEEE4typeEOS9_, symObjAddr: 0x15580, symBinAddr: 0x100018890, symSize: 0x28 }
  - { offsetInCU: 0x5199E, offset: 0x5199E, size: 0x8, addend: 0x0, symName: __ZNSt3__18_IterOpsINS_17_ClassicAlgPolicyEE25__validate_iter_referenceB7v160006IRNS_16reverse_iteratorIPiEEEEvv, symObjAddr: 0x155A8, symBinAddr: 0x1000188B8, symSize: 0x4 }
  - { offsetInCU: 0x519BC, offset: 0x519BC, size: 0x8, addend: 0x0, symName: __ZNSt3__118__unwrap_iter_implINS_16reverse_iteratorIPiEELb0EE8__unwrapB7v160006ES3_, symObjAddr: 0x155AC, symBinAddr: 0x1000188BC, symSize: 0x24 }
  - { offsetInCU: 0x519E5, offset: 0x519E5, size: 0x8, addend: 0x0, symName: __ZNSt3__14pairINS_16reverse_iteratorIPiEES3_EC1B7v160006IS3_S3_LPv0EEEOT_OT0_, symObjAddr: 0x155D0, symBinAddr: 0x1000188E0, symSize: 0x3C }
  - { offsetInCU: 0x51A43, offset: 0x51A43, size: 0x8, addend: 0x0, symName: __ZNSt3__14pairINS_16reverse_iteratorIPiEES3_EC2B7v160006IS3_S3_LPv0EEEOT_OT0_, symObjAddr: 0x1560C, symBinAddr: 0x10001891C, symSize: 0x34 }
  - { offsetInCU: 0x51AA1, offset: 0x51AA1, size: 0x8, addend: 0x0, symName: __ZNSt3__118__unwrap_iter_implINS_16reverse_iteratorIPiEELb0EE8__rewrapB7v160006ES3_S3_, symObjAddr: 0x15640, symBinAddr: 0x100018950, symSize: 0x2C }
  - { offsetInCU: 0x51ACE, offset: 0x51ACE, size: 0x8, addend: 0x0, symName: __ZNSt3__114__split_bufferIiRNS_9allocatorIiEEED2Ev, symObjAddr: 0x1566C, symBinAddr: 0x10001897C, symSize: 0x8C }
  - { offsetInCU: 0x51AFA, offset: 0x51AFA, size: 0x8, addend: 0x0, symName: __ZNSt3__114__split_bufferIiRNS_9allocatorIiEEE5clearB7v160006Ev, symObjAddr: 0x156F8, symBinAddr: 0x100018A08, symSize: 0x28 }
  - { offsetInCU: 0x51B20, offset: 0x51B20, size: 0x8, addend: 0x0, symName: __ZNKSt3__114__split_bufferIiRNS_9allocatorIiEEE8capacityB7v160006Ev, symObjAddr: 0x15720, symBinAddr: 0x100018A30, symSize: 0x40 }
  - { offsetInCU: 0x51B46, offset: 0x51B46, size: 0x8, addend: 0x0, symName: __ZNSt3__114__split_bufferIiRNS_9allocatorIiEEE17__destruct_at_endB7v160006EPi, symObjAddr: 0x15760, symBinAddr: 0x100018A70, symSize: 0x2C }
  - { offsetInCU: 0x51B7A, offset: 0x51B7A, size: 0x8, addend: 0x0, symName: __ZNSt3__114__split_bufferIiRNS_9allocatorIiEEE17__destruct_at_endB7v160006EPiNS_17integral_constantIbLb0EEE, symObjAddr: 0x1578C, symBinAddr: 0x100018A9C, symSize: 0x80 }
  - { offsetInCU: 0x51BBA, offset: 0x51BBA, size: 0x8, addend: 0x0, symName: __ZNKSt3__114__split_bufferIiRNS_9allocatorIiEEE9__end_capB7v160006Ev, symObjAddr: 0x1580C, symBinAddr: 0x100018B1C, symSize: 0x28 }
  - { offsetInCU: 0x51BE0, offset: 0x51BE0, size: 0x8, addend: 0x0, symName: __ZNKSt3__117__compressed_pairIPiRNS_9allocatorIiEEE5firstB7v160006Ev, symObjAddr: 0x15834, symBinAddr: 0x100018B44, symSize: 0x24 }
  - { offsetInCU: 0x51C06, offset: 0x51C06, size: 0x8, addend: 0x0, symName: __ZNSt3__16vectorI3RGBNS_9allocatorIS1_EEE8__appendEm, symObjAddr: 0x15858, symBinAddr: 0x100018B68, symSize: 0x108 }
  - { offsetInCU: 0x51C61, offset: 0x51C61, size: 0x8, addend: 0x0, symName: __ZNSt3__16vectorI3RGBNS_9allocatorIS1_EEE17__destruct_at_endB7v160006EPS1_, symObjAddr: 0x15960, symBinAddr: 0x100018C70, symSize: 0x60 }
  - { offsetInCU: 0x51CA5, offset: 0x51CA5, size: 0x8, addend: 0x0, symName: __ZNSt3__16vectorI3RGBNS_9allocatorIS1_EEE9__end_capB7v160006Ev, symObjAddr: 0x159C0, symBinAddr: 0x100018CD0, symSize: 0x28 }
  - { offsetInCU: 0x51CCB, offset: 0x51CCB, size: 0x8, addend: 0x0, symName: __ZNSt3__16vectorI3RGBNS_9allocatorIS1_EEE18__construct_at_endEm, symObjAddr: 0x159E8, symBinAddr: 0x100018CF8, symSize: 0xC8 }
  - { offsetInCU: 0x51D3D, offset: 0x51D3D, size: 0x8, addend: 0x0, symName: __ZNKSt3__16vectorI3RGBNS_9allocatorIS1_EEE11__recommendB7v160006Em, symObjAddr: 0x15AB0, symBinAddr: 0x100018DC0, symSize: 0xB4 }
  - { offsetInCU: 0x51D92, offset: 0x51D92, size: 0x8, addend: 0x0, symName: __ZNSt3__114__split_bufferI3RGBRNS_9allocatorIS1_EEEC1EmmS4_, symObjAddr: 0x15B64, symBinAddr: 0x100018E74, symSize: 0x44 }
  - { offsetInCU: 0x51DE8, offset: 0x51DE8, size: 0x8, addend: 0x0, symName: __ZNSt3__114__split_bufferI3RGBRNS_9allocatorIS1_EEE18__construct_at_endEm, symObjAddr: 0x15BA8, symBinAddr: 0x100018EB8, symSize: 0xB4 }
  - { offsetInCU: 0x51E2B, offset: 0x51E2B, size: 0x8, addend: 0x0, symName: __ZNSt3__114__split_bufferI3RGBRNS_9allocatorIS1_EEED1Ev, symObjAddr: 0x15D74, symBinAddr: 0x100019084, symSize: 0x2C }
  - { offsetInCU: 0x51E57, offset: 0x51E57, size: 0x8, addend: 0x0, symName: __ZNSt3__117__compressed_pairIP3RGBNS_9allocatorIS1_EEE5firstB7v160006Ev, symObjAddr: 0x15DA0, symBinAddr: 0x1000190B0, symSize: 0x24 }
  - { offsetInCU: 0x51E7D, offset: 0x51E7D, size: 0x8, addend: 0x0, symName: __ZNSt3__122__compressed_pair_elemIP3RGBLi0ELb0EE5__getB7v160006Ev, symObjAddr: 0x15DC4, symBinAddr: 0x1000190D4, symSize: 0x14 }
  - { offsetInCU: 0x51EBF, offset: 0x51EBF, size: 0x8, addend: 0x0, symName: __ZNSt3__16vectorI3RGBNS_9allocatorIS1_EEE21_ConstructTransactionC1B7v160006ERS4_m, symObjAddr: 0x15DD8, symBinAddr: 0x1000190E8, symSize: 0x3C }
  - { offsetInCU: 0x51F07, offset: 0x51F07, size: 0x8, addend: 0x0, symName: __ZNSt3__116allocator_traitsINS_9allocatorI3RGBEEE9constructB7v160006IS2_JEvEEvRS3_PT_DpOT0_, symObjAddr: 0x15E14, symBinAddr: 0x100019124, symSize: 0x2C }
  - { offsetInCU: 0x51F49, offset: 0x51F49, size: 0x8, addend: 0x0, symName: __ZNSt3__16vectorI3RGBNS_9allocatorIS1_EEE21_ConstructTransactionD1B7v160006Ev, symObjAddr: 0x15E40, symBinAddr: 0x100019150, symSize: 0x2C }
  - { offsetInCU: 0x51F73, offset: 0x51F73, size: 0x8, addend: 0x0, symName: __ZNSt3__16vectorI3RGBNS_9allocatorIS1_EEE21_ConstructTransactionC2B7v160006ERS4_m, symObjAddr: 0x15E6C, symBinAddr: 0x10001917C, symSize: 0x4C }
  - { offsetInCU: 0x51FBB, offset: 0x51FBB, size: 0x8, addend: 0x0, symName: __ZNSt3__19allocatorI3RGBE9constructB7v160006IS1_JEEEvPT_DpOT0_, symObjAddr: 0x15EB8, symBinAddr: 0x1000191C8, symSize: 0x20 }
  - { offsetInCU: 0x51FFD, offset: 0x51FFD, size: 0x8, addend: 0x0, symName: __ZNSt3__16vectorI3RGBNS_9allocatorIS1_EEE21_ConstructTransactionD2B7v160006Ev, symObjAddr: 0x15ED8, symBinAddr: 0x1000191E8, symSize: 0x20 }
  - { offsetInCU: 0x52027, offset: 0x52027, size: 0x8, addend: 0x0, symName: __ZNKSt3__16vectorI3RGBNS_9allocatorIS1_EEE8max_sizeEv, symObjAddr: 0x15EF8, symBinAddr: 0x100019208, symSize: 0x60 }
  - { offsetInCU: 0x5204F, offset: 0x5204F, size: 0x8, addend: 0x0, symName: __ZNKSt3__16vectorI3RGBNS_9allocatorIS1_EEE20__throw_length_errorB7v160006Ev, symObjAddr: 0x15F58, symBinAddr: 0x100019268, symSize: 0x1C }
  - { offsetInCU: 0x52080, offset: 0x52080, size: 0x8, addend: 0x0, symName: __ZNSt3__116allocator_traitsINS_9allocatorI3RGBEEE8max_sizeB7v160006IS3_vEEmRKS3_, symObjAddr: 0x15F74, symBinAddr: 0x100019284, symSize: 0x24 }
  - { offsetInCU: 0x520AE, offset: 0x520AE, size: 0x8, addend: 0x0, symName: __ZNKSt3__16vectorI3RGBNS_9allocatorIS1_EEE7__allocB7v160006Ev, symObjAddr: 0x15F98, symBinAddr: 0x1000192A8, symSize: 0x28 }
  - { offsetInCU: 0x520D4, offset: 0x520D4, size: 0x8, addend: 0x0, symName: __ZNKSt3__19allocatorI3RGBE8max_sizeB7v160006Ev, symObjAddr: 0x15FC0, symBinAddr: 0x1000192D0, symSize: 0x14 }
  - { offsetInCU: 0x520FA, offset: 0x520FA, size: 0x8, addend: 0x0, symName: __ZNKSt3__117__compressed_pairIP3RGBNS_9allocatorIS1_EEE6secondB7v160006Ev, symObjAddr: 0x15FD4, symBinAddr: 0x1000192E4, symSize: 0x24 }
  - { offsetInCU: 0x52120, offset: 0x52120, size: 0x8, addend: 0x0, symName: __ZNKSt3__122__compressed_pair_elemINS_9allocatorI3RGBEELi1ELb1EE5__getB7v160006Ev, symObjAddr: 0x15FF8, symBinAddr: 0x100019308, symSize: 0x14 }
  - { offsetInCU: 0x52146, offset: 0x52146, size: 0x8, addend: 0x0, symName: __ZNSt3__114__split_bufferI3RGBRNS_9allocatorIS1_EEEC2EmmS4_, symObjAddr: 0x1600C, symBinAddr: 0x10001931C, symSize: 0xE0 }
  - { offsetInCU: 0x521B9, offset: 0x521B9, size: 0x8, addend: 0x0, symName: __ZNSt3__117__compressed_pairIP3RGBRNS_9allocatorIS1_EEEC1B7v160006IDnS5_EEOT_OT0_, symObjAddr: 0x160EC, symBinAddr: 0x1000193FC, symSize: 0x3C }
  - { offsetInCU: 0x52211, offset: 0x52211, size: 0x8, addend: 0x0, symName: __ZNSt3__114__split_bufferI3RGBRNS_9allocatorIS1_EEE7__allocB7v160006Ev, symObjAddr: 0x16168, symBinAddr: 0x100019478, symSize: 0x28 }
  - { offsetInCU: 0x52237, offset: 0x52237, size: 0x8, addend: 0x0, symName: __ZNSt3__114__split_bufferI3RGBRNS_9allocatorIS1_EEE9__end_capB7v160006Ev, symObjAddr: 0x16190, symBinAddr: 0x1000194A0, symSize: 0x28 }
  - { offsetInCU: 0x5225D, offset: 0x5225D, size: 0x8, addend: 0x0, symName: __ZNSt3__117__compressed_pairIP3RGBRNS_9allocatorIS1_EEEC2B7v160006IDnS5_EEOT_OT0_, symObjAddr: 0x161B8, symBinAddr: 0x1000194C8, symSize: 0x48 }
  - { offsetInCU: 0x522B5, offset: 0x522B5, size: 0x8, addend: 0x0, symName: __ZNSt3__122__compressed_pair_elemIRNS_9allocatorI3RGBEELi1ELb0EEC2B7v160006IS4_vEEOT_, symObjAddr: 0x16200, symBinAddr: 0x100019510, symSize: 0x20 }
  - { offsetInCU: 0x522F7, offset: 0x522F7, size: 0x8, addend: 0x0, symName: __ZNSt3__19allocatorI3RGBE8allocateB7v160006Em, symObjAddr: 0x16220, symBinAddr: 0x100019530, symSize: 0x5C }
  - { offsetInCU: 0x5232B, offset: 0x5232B, size: 0x8, addend: 0x0, symName: __ZNSt3__117__compressed_pairIP3RGBRNS_9allocatorIS1_EEE6secondB7v160006Ev, symObjAddr: 0x1627C, symBinAddr: 0x10001958C, symSize: 0x28 }
  - { offsetInCU: 0x52351, offset: 0x52351, size: 0x8, addend: 0x0, symName: __ZNSt3__122__compressed_pair_elemIRNS_9allocatorI3RGBEELi1ELb0EE5__getB7v160006Ev, symObjAddr: 0x162A4, symBinAddr: 0x1000195B4, symSize: 0x18 }
  - { offsetInCU: 0x52377, offset: 0x52377, size: 0x8, addend: 0x0, symName: __ZNSt3__117__compressed_pairIP3RGBRNS_9allocatorIS1_EEE5firstB7v160006Ev, symObjAddr: 0x162BC, symBinAddr: 0x1000195CC, symSize: 0x24 }
  - { offsetInCU: 0x523A9, offset: 0x523A9, size: 0x8, addend: 0x0, symName: __ZNSt3__114__split_bufferI3RGBRNS_9allocatorIS1_EEE21_ConstructTransactionC1B7v160006EPPS1_m, symObjAddr: 0x162E0, symBinAddr: 0x1000195F0, symSize: 0x3C }
  - { offsetInCU: 0x523EF, offset: 0x523EF, size: 0x8, addend: 0x0, symName: __ZNSt3__114__split_bufferI3RGBRNS_9allocatorIS1_EEE21_ConstructTransactionD1B7v160006Ev, symObjAddr: 0x1631C, symBinAddr: 0x10001962C, symSize: 0x2C }
  - { offsetInCU: 0x52419, offset: 0x52419, size: 0x8, addend: 0x0, symName: __ZNSt3__114__split_bufferI3RGBRNS_9allocatorIS1_EEE21_ConstructTransactionC2B7v160006EPPS1_m, symObjAddr: 0x16348, symBinAddr: 0x100019658, symSize: 0x4C }
  - { offsetInCU: 0x5245F, offset: 0x5245F, size: 0x8, addend: 0x0, symName: __ZNSt3__114__split_bufferI3RGBRNS_9allocatorIS1_EEE21_ConstructTransactionD2B7v160006Ev, symObjAddr: 0x16394, symBinAddr: 0x1000196A4, symSize: 0x20 }
  - { offsetInCU: 0x52489, offset: 0x52489, size: 0x8, addend: 0x0, symName: __ZNSt3__116reverse_iteratorIP3RGBEC1B7v160006ES2_, symObjAddr: 0x1642C, symBinAddr: 0x10001973C, symSize: 0x34 }
  - { offsetInCU: 0x524C1, offset: 0x524C1, size: 0x8, addend: 0x0, symName: __ZNKSt3__116reverse_iteratorIP3RGBE4baseB7v160006Ev, symObjAddr: 0x16460, symBinAddr: 0x100019770, symSize: 0x18 }
  - { offsetInCU: 0x524E7, offset: 0x524E7, size: 0x8, addend: 0x0, symName: __ZNKSt3__16vectorI3RGBNS_9allocatorIS1_EEE14__annotate_newB7v160006Em, symObjAddr: 0x164B4, symBinAddr: 0x1000197C4, symSize: 0xC8 }
  - { offsetInCU: 0x52539, offset: 0x52539, size: 0x8, addend: 0x0, symName: __ZNKSt3__111__move_loopINS_17_ClassicAlgPolicyEEclB7v160006INS_16reverse_iteratorIP3RGBEES7_S7_EENS_4pairIT_T1_EES9_T0_SA_, symObjAddr: 0x1687C, symBinAddr: 0x100019B8C, symSize: 0xA8 }
  - { offsetInCU: 0x525AA, offset: 0x525AA, size: 0x8, addend: 0x0, symName: __ZNSt3__18_IterOpsINS_17_ClassicAlgPolicyEE11__iter_moveB7v160006IRNS_16reverse_iteratorIP3RGBEEEENS_9enable_ifIXsr12is_referenceIDTdeclsr3stdE7declvalIRT_EEEEE5valueEDTclsr3stdE4movedeclsr3stdE7declvalISB_EEEEE4typeEOSA_, symObjAddr: 0x16AB8, symBinAddr: 0x100019DC8, symSize: 0x28 }
  - { offsetInCU: 0x525D6, offset: 0x525D6, size: 0x8, addend: 0x0, symName: __ZNKSt3__116reverse_iteratorIP3RGBEdeB7v160006Ev, symObjAddr: 0x16AE0, symBinAddr: 0x100019DF0, symSize: 0x28 }
  - { offsetInCU: 0x5260A, offset: 0x5260A, size: 0x8, addend: 0x0, symName: __ZNSt3__116reverse_iteratorIP3RGBEppB7v160006Ev, symObjAddr: 0x16B08, symBinAddr: 0x100019E18, symSize: 0x20 }
  - { offsetInCU: 0x52630, offset: 0x52630, size: 0x8, addend: 0x0, symName: __ZNSt3__18_IterOpsINS_17_ClassicAlgPolicyEE25__validate_iter_referenceB7v160006IRNS_16reverse_iteratorIP3RGBEEEEvv, symObjAddr: 0x16B28, symBinAddr: 0x100019E38, symSize: 0x4 }
  - { offsetInCU: 0x5264E, offset: 0x5264E, size: 0x8, addend: 0x0, symName: __ZNSt3__118__unwrap_iter_implINS_16reverse_iteratorIP3RGBEELb0EE8__unwrapB7v160006ES4_, symObjAddr: 0x16B2C, symBinAddr: 0x100019E3C, symSize: 0x24 }
  - { offsetInCU: 0x52677, offset: 0x52677, size: 0x8, addend: 0x0, symName: __ZNSt3__14pairINS_16reverse_iteratorIP3RGBEES4_EC1B7v160006IS4_S4_LPv0EEEOT_OT0_, symObjAddr: 0x16B50, symBinAddr: 0x100019E60, symSize: 0x3C }
  - { offsetInCU: 0x526D5, offset: 0x526D5, size: 0x8, addend: 0x0, symName: __ZNSt3__14pairINS_16reverse_iteratorIP3RGBEES4_EC2B7v160006IS4_S4_LPv0EEEOT_OT0_, symObjAddr: 0x16B8C, symBinAddr: 0x100019E9C, symSize: 0x34 }
  - { offsetInCU: 0x52733, offset: 0x52733, size: 0x8, addend: 0x0, symName: __ZNSt3__118__unwrap_iter_implINS_16reverse_iteratorIP3RGBEELb0EE8__rewrapB7v160006ES4_S4_, symObjAddr: 0x16BC0, symBinAddr: 0x100019ED0, symSize: 0x2C }
  - { offsetInCU: 0x52760, offset: 0x52760, size: 0x8, addend: 0x0, symName: __ZNSt3__116reverse_iteratorIP3RGBEC2B7v160006ES2_, symObjAddr: 0x16BEC, symBinAddr: 0x100019EFC, symSize: 0x28 }
  - { offsetInCU: 0x52798, offset: 0x52798, size: 0x8, addend: 0x0, symName: __ZNSt3__114__split_bufferI3RGBRNS_9allocatorIS1_EEED2Ev, symObjAddr: 0x16C14, symBinAddr: 0x100019F24, symSize: 0x8C }
  - { offsetInCU: 0x527C4, offset: 0x527C4, size: 0x8, addend: 0x0, symName: __ZNSt3__114__split_bufferI3RGBRNS_9allocatorIS1_EEE5clearB7v160006Ev, symObjAddr: 0x16CA0, symBinAddr: 0x100019FB0, symSize: 0x28 }
  - { offsetInCU: 0x527EA, offset: 0x527EA, size: 0x8, addend: 0x0, symName: __ZNKSt3__114__split_bufferI3RGBRNS_9allocatorIS1_EEE8capacityB7v160006Ev, symObjAddr: 0x16CC8, symBinAddr: 0x100019FD8, symSize: 0x40 }
  - { offsetInCU: 0x52810, offset: 0x52810, size: 0x8, addend: 0x0, symName: __ZNSt3__114__split_bufferI3RGBRNS_9allocatorIS1_EEE17__destruct_at_endB7v160006EPS1_, symObjAddr: 0x16D08, symBinAddr: 0x10001A018, symSize: 0x2C }
  - { offsetInCU: 0x52844, offset: 0x52844, size: 0x8, addend: 0x0, symName: __ZNSt3__114__split_bufferI3RGBRNS_9allocatorIS1_EEE17__destruct_at_endB7v160006EPS1_NS_17integral_constantIbLb0EEE, symObjAddr: 0x16D34, symBinAddr: 0x10001A044, symSize: 0x80 }
  - { offsetInCU: 0x52884, offset: 0x52884, size: 0x8, addend: 0x0, symName: __ZNKSt3__114__split_bufferI3RGBRNS_9allocatorIS1_EEE9__end_capB7v160006Ev, symObjAddr: 0x16DB4, symBinAddr: 0x10001A0C4, symSize: 0x28 }
  - { offsetInCU: 0x528AA, offset: 0x528AA, size: 0x8, addend: 0x0, symName: __ZNKSt3__117__compressed_pairIP3RGBRNS_9allocatorIS1_EEE5firstB7v160006Ev, symObjAddr: 0x16DDC, symBinAddr: 0x10001A0EC, symSize: 0x24 }
  - { offsetInCU: 0x528D0, offset: 0x528D0, size: 0x8, addend: 0x0, symName: __ZNSt3__16vectorI3RGBNS_9allocatorIS1_EEE27__invalidate_iterators_pastB7v160006EPS1_, symObjAddr: 0x16E00, symBinAddr: 0x10001A110, symSize: 0x14 }
  - { offsetInCU: 0x52907, offset: 0x52907, size: 0x8, addend: 0x0, symName: __ZNKSt3__16vectorI3RGBNS_9allocatorIS1_EEE17__annotate_shrinkB7v160006Em, symObjAddr: 0x16E14, symBinAddr: 0x10001A124, symSize: 0xD0 }
  - { offsetInCU: 0x5293C, offset: 0x5293C, size: 0x8, addend: 0x0, symName: __ZNSt3__16vectorINS_6bitsetILm1EEENS_9allocatorIS2_EEE8__appendEmRKS2_, symObjAddr: 0x16EE4, symBinAddr: 0x10001A1F4, symSize: 0x114 }
  - { offsetInCU: 0x529A6, offset: 0x529A6, size: 0x8, addend: 0x0, symName: __ZNSt3__16vectorINS_6bitsetILm1EEENS_9allocatorIS2_EEE17__destruct_at_endB7v160006EPS2_, symObjAddr: 0x16FF8, symBinAddr: 0x10001A308, symSize: 0x60 }
  - { offsetInCU: 0x529EA, offset: 0x529EA, size: 0x8, addend: 0x0, symName: __ZNSt3__16vectorINS_6bitsetILm1EEENS_9allocatorIS2_EEE9__end_capB7v160006Ev, symObjAddr: 0x17058, symBinAddr: 0x10001A368, symSize: 0x28 }
  - { offsetInCU: 0x52A10, offset: 0x52A10, size: 0x8, addend: 0x0, symName: __ZNSt3__16vectorINS_6bitsetILm1EEENS_9allocatorIS2_EEE18__construct_at_endEmRKS2_, symObjAddr: 0x17080, symBinAddr: 0x10001A390, symSize: 0xD0 }
  - { offsetInCU: 0x52A91, offset: 0x52A91, size: 0x8, addend: 0x0, symName: __ZNKSt3__16vectorINS_6bitsetILm1EEENS_9allocatorIS2_EEE11__recommendB7v160006Em, symObjAddr: 0x17150, symBinAddr: 0x10001A460, symSize: 0xB4 }
  - { offsetInCU: 0x52AE6, offset: 0x52AE6, size: 0x8, addend: 0x0, symName: __ZNSt3__114__split_bufferINS_6bitsetILm1EEERNS_9allocatorIS2_EEEC1EmmS5_, symObjAddr: 0x17204, symBinAddr: 0x10001A514, symSize: 0x44 }
  - { offsetInCU: 0x52B3C, offset: 0x52B3C, size: 0x8, addend: 0x0, symName: __ZNSt3__114__split_bufferINS_6bitsetILm1EEERNS_9allocatorIS2_EEE18__construct_at_endEmRKS2_, symObjAddr: 0x17248, symBinAddr: 0x10001A558, symSize: 0xBC }
  - { offsetInCU: 0x52B8D, offset: 0x52B8D, size: 0x8, addend: 0x0, symName: __ZNSt3__114__split_bufferINS_6bitsetILm1EEERNS_9allocatorIS2_EEED1Ev, symObjAddr: 0x1741C, symBinAddr: 0x10001A72C, symSize: 0x2C }
  - { offsetInCU: 0x52BB9, offset: 0x52BB9, size: 0x8, addend: 0x0, symName: __ZNSt3__117__compressed_pairIPNS_6bitsetILm1EEENS_9allocatorIS2_EEE5firstB7v160006Ev, symObjAddr: 0x17448, symBinAddr: 0x10001A758, symSize: 0x24 }
  - { offsetInCU: 0x52BDF, offset: 0x52BDF, size: 0x8, addend: 0x0, symName: __ZNSt3__122__compressed_pair_elemIPNS_6bitsetILm1EEELi0ELb0EE5__getB7v160006Ev, symObjAddr: 0x1746C, symBinAddr: 0x10001A77C, symSize: 0x14 }
  - { offsetInCU: 0x52C21, offset: 0x52C21, size: 0x8, addend: 0x0, symName: __ZNSt3__16vectorINS_6bitsetILm1EEENS_9allocatorIS2_EEE21_ConstructTransactionC1B7v160006ERS5_m, symObjAddr: 0x17480, symBinAddr: 0x10001A790, symSize: 0x3C }
  - { offsetInCU: 0x52C69, offset: 0x52C69, size: 0x8, addend: 0x0, symName: __ZNSt3__116allocator_traitsINS_9allocatorINS_6bitsetILm1EEEEEE9constructB7v160006IS3_JRKS3_EvEEvRS4_PT_DpOT0_, symObjAddr: 0x174BC, symBinAddr: 0x10001A7CC, symSize: 0x34 }
  - { offsetInCU: 0x52CC0, offset: 0x52CC0, size: 0x8, addend: 0x0, symName: __ZNSt3__16vectorINS_6bitsetILm1EEENS_9allocatorIS2_EEE21_ConstructTransactionD1B7v160006Ev, symObjAddr: 0x174F0, symBinAddr: 0x10001A800, symSize: 0x2C }
  - { offsetInCU: 0x52CEA, offset: 0x52CEA, size: 0x8, addend: 0x0, symName: __ZNSt3__16vectorINS_6bitsetILm1EEENS_9allocatorIS2_EEE21_ConstructTransactionC2B7v160006ERS5_m, symObjAddr: 0x1751C, symBinAddr: 0x10001A82C, symSize: 0x44 }
  - { offsetInCU: 0x52D32, offset: 0x52D32, size: 0x8, addend: 0x0, symName: __ZNSt3__19allocatorINS_6bitsetILm1EEEE9constructB7v160006IS2_JRKS2_EEEvPT_DpOT0_, symObjAddr: 0x17560, symBinAddr: 0x10001A870, symSize: 0x28 }
  - { offsetInCU: 0x52D88, offset: 0x52D88, size: 0x8, addend: 0x0, symName: __ZNSt3__16vectorINS_6bitsetILm1EEENS_9allocatorIS2_EEE21_ConstructTransactionD2B7v160006Ev, symObjAddr: 0x17588, symBinAddr: 0x10001A898, symSize: 0x20 }
  - { offsetInCU: 0x52DB2, offset: 0x52DB2, size: 0x8, addend: 0x0, symName: __ZNKSt3__16vectorINS_6bitsetILm1EEENS_9allocatorIS2_EEE8max_sizeEv, symObjAddr: 0x175A8, symBinAddr: 0x10001A8B8, symSize: 0x60 }
  - { offsetInCU: 0x52DDA, offset: 0x52DDA, size: 0x8, addend: 0x0, symName: __ZNKSt3__16vectorINS_6bitsetILm1EEENS_9allocatorIS2_EEE20__throw_length_errorB7v160006Ev, symObjAddr: 0x17608, symBinAddr: 0x10001A918, symSize: 0x1C }
  - { offsetInCU: 0x52E0B, offset: 0x52E0B, size: 0x8, addend: 0x0, symName: __ZNSt3__116allocator_traitsINS_9allocatorINS_6bitsetILm1EEEEEE8max_sizeB7v160006IS4_vEEmRKS4_, symObjAddr: 0x17624, symBinAddr: 0x10001A934, symSize: 0x24 }
  - { offsetInCU: 0x52E39, offset: 0x52E39, size: 0x8, addend: 0x0, symName: __ZNKSt3__16vectorINS_6bitsetILm1EEENS_9allocatorIS2_EEE7__allocB7v160006Ev, symObjAddr: 0x17648, symBinAddr: 0x10001A958, symSize: 0x28 }
  - { offsetInCU: 0x52E5F, offset: 0x52E5F, size: 0x8, addend: 0x0, symName: __ZNKSt3__19allocatorINS_6bitsetILm1EEEE8max_sizeB7v160006Ev, symObjAddr: 0x17670, symBinAddr: 0x10001A980, symSize: 0x14 }
  - { offsetInCU: 0x52E85, offset: 0x52E85, size: 0x8, addend: 0x0, symName: __ZNKSt3__117__compressed_pairIPNS_6bitsetILm1EEENS_9allocatorIS2_EEE6secondB7v160006Ev, symObjAddr: 0x17684, symBinAddr: 0x10001A994, symSize: 0x24 }
  - { offsetInCU: 0x52EAB, offset: 0x52EAB, size: 0x8, addend: 0x0, symName: __ZNKSt3__122__compressed_pair_elemINS_9allocatorINS_6bitsetILm1EEEEELi1ELb1EE5__getB7v160006Ev, symObjAddr: 0x176A8, symBinAddr: 0x10001A9B8, symSize: 0x14 }
  - { offsetInCU: 0x52ED1, offset: 0x52ED1, size: 0x8, addend: 0x0, symName: __ZNSt3__114__split_bufferINS_6bitsetILm1EEERNS_9allocatorIS2_EEEC2EmmS5_, symObjAddr: 0x176BC, symBinAddr: 0x10001A9CC, symSize: 0xD4 }
  - { offsetInCU: 0x52F44, offset: 0x52F44, size: 0x8, addend: 0x0, symName: __ZNSt3__117__compressed_pairIPNS_6bitsetILm1EEERNS_9allocatorIS2_EEEC1B7v160006IDnS6_EEOT_OT0_, symObjAddr: 0x17790, symBinAddr: 0x10001AAA0, symSize: 0x3C }
  - { offsetInCU: 0x52F9C, offset: 0x52F9C, size: 0x8, addend: 0x0, symName: __ZNSt3__114__split_bufferINS_6bitsetILm1EEERNS_9allocatorIS2_EEE7__allocB7v160006Ev, symObjAddr: 0x1780C, symBinAddr: 0x10001AB1C, symSize: 0x28 }
  - { offsetInCU: 0x52FC2, offset: 0x52FC2, size: 0x8, addend: 0x0, symName: __ZNSt3__114__split_bufferINS_6bitsetILm1EEERNS_9allocatorIS2_EEE9__end_capB7v160006Ev, symObjAddr: 0x17834, symBinAddr: 0x10001AB44, symSize: 0x28 }
  - { offsetInCU: 0x52FE8, offset: 0x52FE8, size: 0x8, addend: 0x0, symName: __ZNSt3__117__compressed_pairIPNS_6bitsetILm1EEERNS_9allocatorIS2_EEEC2B7v160006IDnS6_EEOT_OT0_, symObjAddr: 0x1785C, symBinAddr: 0x10001AB6C, symSize: 0x48 }
  - { offsetInCU: 0x53040, offset: 0x53040, size: 0x8, addend: 0x0, symName: __ZNSt3__122__compressed_pair_elemIRNS_9allocatorINS_6bitsetILm1EEEEELi1ELb0EEC2B7v160006IS5_vEEOT_, symObjAddr: 0x178A4, symBinAddr: 0x10001ABB4, symSize: 0x20 }
  - { offsetInCU: 0x53082, offset: 0x53082, size: 0x8, addend: 0x0, symName: __ZNSt3__19allocatorINS_6bitsetILm1EEEE8allocateB7v160006Em, symObjAddr: 0x178C4, symBinAddr: 0x10001ABD4, symSize: 0x58 }
  - { offsetInCU: 0x530B6, offset: 0x530B6, size: 0x8, addend: 0x0, symName: __ZNSt3__117__compressed_pairIPNS_6bitsetILm1EEERNS_9allocatorIS2_EEE6secondB7v160006Ev, symObjAddr: 0x1791C, symBinAddr: 0x10001AC2C, symSize: 0x28 }
  - { offsetInCU: 0x530DC, offset: 0x530DC, size: 0x8, addend: 0x0, symName: __ZNSt3__122__compressed_pair_elemIRNS_9allocatorINS_6bitsetILm1EEEEELi1ELb0EE5__getB7v160006Ev, symObjAddr: 0x17944, symBinAddr: 0x10001AC54, symSize: 0x18 }
  - { offsetInCU: 0x53102, offset: 0x53102, size: 0x8, addend: 0x0, symName: __ZNSt3__117__compressed_pairIPNS_6bitsetILm1EEERNS_9allocatorIS2_EEE5firstB7v160006Ev, symObjAddr: 0x1795C, symBinAddr: 0x10001AC6C, symSize: 0x24 }
  - { offsetInCU: 0x53134, offset: 0x53134, size: 0x8, addend: 0x0, symName: __ZNSt3__114__split_bufferINS_6bitsetILm1EEERNS_9allocatorIS2_EEE21_ConstructTransactionC1B7v160006EPPS2_m, symObjAddr: 0x17980, symBinAddr: 0x10001AC90, symSize: 0x3C }
  - { offsetInCU: 0x5317A, offset: 0x5317A, size: 0x8, addend: 0x0, symName: __ZNSt3__114__split_bufferINS_6bitsetILm1EEERNS_9allocatorIS2_EEE21_ConstructTransactionD1B7v160006Ev, symObjAddr: 0x179BC, symBinAddr: 0x10001ACCC, symSize: 0x2C }
  - { offsetInCU: 0x531A4, offset: 0x531A4, size: 0x8, addend: 0x0, symName: __ZNSt3__114__split_bufferINS_6bitsetILm1EEERNS_9allocatorIS2_EEE21_ConstructTransactionC2B7v160006EPPS2_m, symObjAddr: 0x179E8, symBinAddr: 0x10001ACF8, symSize: 0x44 }
  - { offsetInCU: 0x531EA, offset: 0x531EA, size: 0x8, addend: 0x0, symName: __ZNSt3__114__split_bufferINS_6bitsetILm1EEERNS_9allocatorIS2_EEE21_ConstructTransactionD2B7v160006Ev, symObjAddr: 0x17A2C, symBinAddr: 0x10001AD3C, symSize: 0x20 }
  - { offsetInCU: 0x53214, offset: 0x53214, size: 0x8, addend: 0x0, symName: __ZNSt3__116reverse_iteratorIPNS_6bitsetILm1EEEEC1B7v160006ES3_, symObjAddr: 0x17AC4, symBinAddr: 0x10001ADD4, symSize: 0x34 }
  - { offsetInCU: 0x5324C, offset: 0x5324C, size: 0x8, addend: 0x0, symName: __ZNKSt3__116reverse_iteratorIPNS_6bitsetILm1EEEE4baseB7v160006Ev, symObjAddr: 0x17AF8, symBinAddr: 0x10001AE08, symSize: 0x18 }
  - { offsetInCU: 0x53272, offset: 0x53272, size: 0x8, addend: 0x0, symName: __ZNKSt3__16vectorINS_6bitsetILm1EEENS_9allocatorIS2_EEE14__annotate_newB7v160006Em, symObjAddr: 0x17B4C, symBinAddr: 0x10001AE5C, symSize: 0xAC }
  - { offsetInCU: 0x532C4, offset: 0x532C4, size: 0x8, addend: 0x0, symName: __ZNKSt3__111__move_loopINS_17_ClassicAlgPolicyEEclB7v160006INS_16reverse_iteratorIPNS_6bitsetILm1EEEEES8_S8_EENS_4pairIT_T1_EESA_T0_SB_, symObjAddr: 0x17EF8, symBinAddr: 0x10001B208, symSize: 0xA0 }
  - { offsetInCU: 0x53335, offset: 0x53335, size: 0x8, addend: 0x0, symName: __ZNSt3__18_IterOpsINS_17_ClassicAlgPolicyEE11__iter_moveB7v160006IRNS_16reverse_iteratorIPNS_6bitsetILm1EEEEEEENS_9enable_ifIXsr12is_referenceIDTdeclsr3stdE7declvalIRT_EEEEE5valueEDTclsr3stdE4movedeclsr3stdE7declvalISC_EEEEE4typeEOSB_, symObjAddr: 0x1812C, symBinAddr: 0x10001B43C, symSize: 0x28 }
  - { offsetInCU: 0x53361, offset: 0x53361, size: 0x8, addend: 0x0, symName: __ZNKSt3__116reverse_iteratorIPNS_6bitsetILm1EEEEdeB7v160006Ev, symObjAddr: 0x18154, symBinAddr: 0x10001B464, symSize: 0x28 }
  - { offsetInCU: 0x53395, offset: 0x53395, size: 0x8, addend: 0x0, symName: __ZNSt3__116reverse_iteratorIPNS_6bitsetILm1EEEEppB7v160006Ev, symObjAddr: 0x1817C, symBinAddr: 0x10001B48C, symSize: 0x20 }
  - { offsetInCU: 0x533BB, offset: 0x533BB, size: 0x8, addend: 0x0, symName: __ZNSt3__18_IterOpsINS_17_ClassicAlgPolicyEE25__validate_iter_referenceB7v160006IRNS_16reverse_iteratorIPNS_6bitsetILm1EEEEEEEvv, symObjAddr: 0x1819C, symBinAddr: 0x10001B4AC, symSize: 0x4 }
  - { offsetInCU: 0x533D9, offset: 0x533D9, size: 0x8, addend: 0x0, symName: __ZNSt3__118__unwrap_iter_implINS_16reverse_iteratorIPNS_6bitsetILm1EEEEELb0EE8__unwrapB7v160006ES5_, symObjAddr: 0x181A0, symBinAddr: 0x10001B4B0, symSize: 0x24 }
  - { offsetInCU: 0x53402, offset: 0x53402, size: 0x8, addend: 0x0, symName: __ZNSt3__14pairINS_16reverse_iteratorIPNS_6bitsetILm1EEEEES5_EC1B7v160006IS5_S5_LPv0EEEOT_OT0_, symObjAddr: 0x181C4, symBinAddr: 0x10001B4D4, symSize: 0x3C }
  - { offsetInCU: 0x53460, offset: 0x53460, size: 0x8, addend: 0x0, symName: __ZNSt3__14pairINS_16reverse_iteratorIPNS_6bitsetILm1EEEEES5_EC2B7v160006IS5_S5_LPv0EEEOT_OT0_, symObjAddr: 0x18200, symBinAddr: 0x10001B510, symSize: 0x34 }
  - { offsetInCU: 0x534BE, offset: 0x534BE, size: 0x8, addend: 0x0, symName: __ZNSt3__118__unwrap_iter_implINS_16reverse_iteratorIPNS_6bitsetILm1EEEEELb0EE8__rewrapB7v160006ES5_S5_, symObjAddr: 0x18234, symBinAddr: 0x10001B544, symSize: 0x2C }
  - { offsetInCU: 0x534EB, offset: 0x534EB, size: 0x8, addend: 0x0, symName: __ZNSt3__116reverse_iteratorIPNS_6bitsetILm1EEEEC2B7v160006ES3_, symObjAddr: 0x18260, symBinAddr: 0x10001B570, symSize: 0x28 }
  - { offsetInCU: 0x53523, offset: 0x53523, size: 0x8, addend: 0x0, symName: __ZNSt3__114__split_bufferINS_6bitsetILm1EEERNS_9allocatorIS2_EEED2Ev, symObjAddr: 0x18288, symBinAddr: 0x10001B598, symSize: 0x8C }
  - { offsetInCU: 0x5354F, offset: 0x5354F, size: 0x8, addend: 0x0, symName: __ZNSt3__114__split_bufferINS_6bitsetILm1EEERNS_9allocatorIS2_EEE5clearB7v160006Ev, symObjAddr: 0x18314, symBinAddr: 0x10001B624, symSize: 0x28 }
  - { offsetInCU: 0x53575, offset: 0x53575, size: 0x8, addend: 0x0, symName: __ZNKSt3__114__split_bufferINS_6bitsetILm1EEERNS_9allocatorIS2_EEE8capacityB7v160006Ev, symObjAddr: 0x1833C, symBinAddr: 0x10001B64C, symSize: 0x40 }
  - { offsetInCU: 0x5359B, offset: 0x5359B, size: 0x8, addend: 0x0, symName: __ZNSt3__114__split_bufferINS_6bitsetILm1EEERNS_9allocatorIS2_EEE17__destruct_at_endB7v160006EPS2_, symObjAddr: 0x1837C, symBinAddr: 0x10001B68C, symSize: 0x2C }
  - { offsetInCU: 0x535CF, offset: 0x535CF, size: 0x8, addend: 0x0, symName: __ZNSt3__114__split_bufferINS_6bitsetILm1EEERNS_9allocatorIS2_EEE17__destruct_at_endB7v160006EPS2_NS_17integral_constantIbLb0EEE, symObjAddr: 0x183A8, symBinAddr: 0x10001B6B8, symSize: 0x80 }
  - { offsetInCU: 0x5360F, offset: 0x5360F, size: 0x8, addend: 0x0, symName: __ZNKSt3__114__split_bufferINS_6bitsetILm1EEERNS_9allocatorIS2_EEE9__end_capB7v160006Ev, symObjAddr: 0x18428, symBinAddr: 0x10001B738, symSize: 0x28 }
  - { offsetInCU: 0x53635, offset: 0x53635, size: 0x8, addend: 0x0, symName: __ZNKSt3__117__compressed_pairIPNS_6bitsetILm1EEERNS_9allocatorIS2_EEE5firstB7v160006Ev, symObjAddr: 0x18450, symBinAddr: 0x10001B760, symSize: 0x24 }
  - { offsetInCU: 0x5365B, offset: 0x5365B, size: 0x8, addend: 0x0, symName: __ZNSt3__16vectorINS_6bitsetILm1EEENS_9allocatorIS2_EEE27__invalidate_iterators_pastB7v160006EPS2_, symObjAddr: 0x18474, symBinAddr: 0x10001B784, symSize: 0x14 }
  - { offsetInCU: 0x53692, offset: 0x53692, size: 0x8, addend: 0x0, symName: __ZNKSt3__16vectorINS_6bitsetILm1EEENS_9allocatorIS2_EEE17__annotate_shrinkB7v160006Em, symObjAddr: 0x18488, symBinAddr: 0x10001B798, symSize: 0xB4 }
  - { offsetInCU: 0x536C7, offset: 0x536C7, size: 0x8, addend: 0x0, symName: __ZNSt3__114__bit_iteratorINS_6vectorIbNS_9allocatorIbEEEELb0ELm0EEC1B7v160006Ev, symObjAddr: 0x1853C, symBinAddr: 0x10001B84C, symSize: 0x2C }
  - { offsetInCU: 0x536F1, offset: 0x536F1, size: 0x8, addend: 0x0, symName: __ZNKSt3__16vectorIbNS_9allocatorIbEEE8capacityB7v160006Ev, symObjAddr: 0x18568, symBinAddr: 0x10001B878, symSize: 0x2C }
  - { offsetInCU: 0x53717, offset: 0x53717, size: 0x8, addend: 0x0, symName: __ZNSt3__114__bit_iteratorINS_6vectorIbNS_9allocatorIbEEEELb0ELm0EEaSB7v160006ERKS5_, symObjAddr: 0x18594, symBinAddr: 0x10001B8A4, symSize: 0x30 }
  - { offsetInCU: 0x5374C, offset: 0x5374C, size: 0x8, addend: 0x0, symName: __ZNKSt3__16vectorIbNS_9allocatorIbEEE13get_allocatorB7v160006Ev, symObjAddr: 0x185C4, symBinAddr: 0x10001B8D4, symSize: 0x30 }
  - { offsetInCU: 0x53772, offset: 0x53772, size: 0x8, addend: 0x0, symName: __ZNSt3__16vectorIbNS_9allocatorIbEEEC1B7v160006ERKS2_, symObjAddr: 0x185F4, symBinAddr: 0x10001B904, symSize: 0x34 }
  - { offsetInCU: 0x537AD, offset: 0x537AD, size: 0x8, addend: 0x0, symName: __ZNSt3__16vectorIbNS_9allocatorIbEEE7reserveEm, symObjAddr: 0x18628, symBinAddr: 0x10001B938, symSize: 0x114 }
  - { offsetInCU: 0x537F9, offset: 0x537F9, size: 0x8, addend: 0x0, symName: __ZNKSt3__16vectorIbNS_9allocatorIbEEE11__recommendB7v160006Em, symObjAddr: 0x1873C, symBinAddr: 0x10001BA4C, symSize: 0xCC }
  - { offsetInCU: 0x5384E, offset: 0x5384E, size: 0x8, addend: 0x0, symName: __ZNKSt3__16vectorIbNS_9allocatorIbEEE6cbeginB7v160006Ev, symObjAddr: 0x188DC, symBinAddr: 0x10001BBEC, symSize: 0x38 }
  - { offsetInCU: 0x53874, offset: 0x53874, size: 0x8, addend: 0x0, symName: __ZNKSt3__16vectorIbNS_9allocatorIbEEE4cendB7v160006Ev, symObjAddr: 0x18914, symBinAddr: 0x10001BC24, symSize: 0x38 }
  - { offsetInCU: 0x5389A, offset: 0x5389A, size: 0x8, addend: 0x0, symName: __ZNSt3__16vectorIbNS_9allocatorIbEEE4swapERS3_, symObjAddr: 0x1894C, symBinAddr: 0x10001BC5C, symSize: 0x84 }
  - { offsetInCU: 0x538D1, offset: 0x538D1, size: 0x8, addend: 0x0, symName: __ZNSt3__114__bit_iteratorINS_6vectorIbNS_9allocatorIbEEEELb0ELm0EEC1B7v160006ERKS5_, symObjAddr: 0x18A64, symBinAddr: 0x10001BD74, symSize: 0x34 }
  - { offsetInCU: 0x5390A, offset: 0x5390A, size: 0x8, addend: 0x0, symName: __ZNSt3__114__bit_iteratorINS_6vectorIbNS_9allocatorIbEEEELb0ELm0EEC2B7v160006Ev, symObjAddr: 0x18A98, symBinAddr: 0x10001BDA8, symSize: 0x1C }
  - { offsetInCU: 0x53934, offset: 0x53934, size: 0x8, addend: 0x0, symName: __ZNSt3__16vectorIbNS_9allocatorIbEEE26__internal_cap_to_externalB7v160006Em, symObjAddr: 0x18AB4, symBinAddr: 0x10001BDC4, symSize: 0x18 }
  - { offsetInCU: 0x53958, offset: 0x53958, size: 0x8, addend: 0x0, symName: __ZNKSt3__16vectorIbNS_9allocatorIbEEE5__capB7v160006Ev, symObjAddr: 0x18ACC, symBinAddr: 0x10001BDDC, symSize: 0x28 }
  - { offsetInCU: 0x5397E, offset: 0x5397E, size: 0x8, addend: 0x0, symName: __ZNKSt3__117__compressed_pairImNS_9allocatorImEEE5firstB7v160006Ev, symObjAddr: 0x18AF4, symBinAddr: 0x10001BE04, symSize: 0x24 }
  - { offsetInCU: 0x539A4, offset: 0x539A4, size: 0x8, addend: 0x0, symName: __ZNKSt3__16vectorIbNS_9allocatorIbEEE7__allocB7v160006Ev, symObjAddr: 0x18B18, symBinAddr: 0x10001BE28, symSize: 0x28 }
  - { offsetInCU: 0x539CA, offset: 0x539CA, size: 0x8, addend: 0x0, symName: __ZNSt3__19allocatorIbEC1B7v160006ImEERKNS0_IT_EE, symObjAddr: 0x18B40, symBinAddr: 0x10001BE50, symSize: 0x34 }
  - { offsetInCU: 0x53A07, offset: 0x53A07, size: 0x8, addend: 0x0, symName: __ZNKSt3__117__compressed_pairImNS_9allocatorImEEE6secondB7v160006Ev, symObjAddr: 0x18B74, symBinAddr: 0x10001BE84, symSize: 0x24 }
  - { offsetInCU: 0x53A2D, offset: 0x53A2D, size: 0x8, addend: 0x0, symName: __ZNKSt3__122__compressed_pair_elemINS_9allocatorImEELi1ELb1EE5__getB7v160006Ev, symObjAddr: 0x18B98, symBinAddr: 0x10001BEA8, symSize: 0x14 }
  - { offsetInCU: 0x53A53, offset: 0x53A53, size: 0x8, addend: 0x0, symName: __ZNSt3__19allocatorIbEC2B7v160006ImEERKNS0_IT_EE, symObjAddr: 0x18BAC, symBinAddr: 0x10001BEBC, symSize: 0x30 }
  - { offsetInCU: 0x53A90, offset: 0x53A90, size: 0x8, addend: 0x0, symName: __ZNSt3__116__non_trivial_ifILb1ENS_9allocatorIbEEEC2B7v160006Ev, symObjAddr: 0x18BDC, symBinAddr: 0x10001BEEC, symSize: 0x14 }
  - { offsetInCU: 0x53ABA, offset: 0x53ABA, size: 0x8, addend: 0x0, symName: __ZNSt3__16vectorIbNS_9allocatorIbEEEC2B7v160006ERKS2_, symObjAddr: 0x18BF0, symBinAddr: 0x10001BF00, symSize: 0x6C }
  - { offsetInCU: 0x53AF5, offset: 0x53AF5, size: 0x8, addend: 0x0, symName: __ZNSt3__19allocatorImEC1B7v160006IbEERKNS0_IT_EE, symObjAddr: 0x18C5C, symBinAddr: 0x10001BF6C, symSize: 0x34 }
  - { offsetInCU: 0x53B38, offset: 0x53B38, size: 0x8, addend: 0x0, symName: __ZNSt3__117__compressed_pairImNS_9allocatorImEEEC1B7v160006IiS2_EEOT_OT0_, symObjAddr: 0x18C90, symBinAddr: 0x10001BFA0, symSize: 0x3C }
  - { offsetInCU: 0x53B90, offset: 0x53B90, size: 0x8, addend: 0x0, symName: __ZNSt3__19allocatorImEC2B7v160006IbEERKNS0_IT_EE, symObjAddr: 0x18CCC, symBinAddr: 0x10001BFDC, symSize: 0x30 }
  - { offsetInCU: 0x53BCD, offset: 0x53BCD, size: 0x8, addend: 0x0, symName: __ZNSt3__117__compressed_pairImNS_9allocatorImEEEC2B7v160006IiS2_EEOT_OT0_, symObjAddr: 0x18CFC, symBinAddr: 0x10001C00C, symSize: 0x44 }
  - { offsetInCU: 0x53C25, offset: 0x53C25, size: 0x8, addend: 0x0, symName: __ZNSt3__122__compressed_pair_elemINS_9allocatorImEELi1ELb1EEC2B7v160006IS2_vEEOT_, symObjAddr: 0x18D40, symBinAddr: 0x10001C050, symSize: 0x18 }
  - { offsetInCU: 0x53C67, offset: 0x53C67, size: 0x8, addend: 0x0, symName: __ZNKSt3__16vectorIbNS_9allocatorIbEEE8max_sizeEv, symObjAddr: 0x18D58, symBinAddr: 0x10001C068, symSize: 0x7C }
  - { offsetInCU: 0x53CAD, offset: 0x53CAD, size: 0x8, addend: 0x0, symName: __ZNKSt3__16vectorIbNS_9allocatorIbEEE20__throw_length_errorB7v160006Ev, symObjAddr: 0x18DD4, symBinAddr: 0x10001C0E4, symSize: 0x1C }
  - { offsetInCU: 0x53CD3, offset: 0x53CD3, size: 0x8, addend: 0x0, symName: __ZNSt3__16vectorIbNS_9allocatorIbEEE11__vallocateB7v160006Em, symObjAddr: 0x18DF0, symBinAddr: 0x10001C100, symSize: 0xA0 }
  - { offsetInCU: 0x53D17, offset: 0x53D17, size: 0x8, addend: 0x0, symName: __ZNSt3__16vectorIbNS_9allocatorIbEEE18__construct_at_endINS_14__bit_iteratorIS3_Lb0ELm0EEEEENS_9enable_ifIXsr27__is_cpp17_forward_iteratorIT_EE5valueEvE4typeES8_S8_, symObjAddr: 0x18E90, symBinAddr: 0x10001C1A0, symSize: 0x154 }
  - { offsetInCU: 0x53D82, offset: 0x53D82, size: 0x8, addend: 0x0, symName: __ZNSt3__116allocator_traitsINS_9allocatorImEEE8max_sizeB7v160006IS2_vEEmRKS2_, symObjAddr: 0x18FF4, symBinAddr: 0x10001C304, symSize: 0x24 }
  - { offsetInCU: 0x53DB0, offset: 0x53DB0, size: 0x8, addend: 0x0, symName: __ZNSt3__114numeric_limitsImE3maxB7v160006Ev, symObjAddr: 0x19018, symBinAddr: 0x10001C328, symSize: 0x14 }
  - { offsetInCU: 0x53DC4, offset: 0x53DC4, size: 0x8, addend: 0x0, symName: __ZNKSt3__19allocatorImE8max_sizeB7v160006Ev, symObjAddr: 0x1902C, symBinAddr: 0x10001C33C, symSize: 0x14 }
  - { offsetInCU: 0x53DEA, offset: 0x53DEA, size: 0x8, addend: 0x0, symName: __ZNSt3__123__libcpp_numeric_limitsImLb1EE3maxB7v160006Ev, symObjAddr: 0x19040, symBinAddr: 0x10001C350, symSize: 0x8 }
  - { offsetInCU: 0x53DFE, offset: 0x53DFE, size: 0x8, addend: 0x0, symName: __ZNSt3__16vectorIbNS_9allocatorIbEEE26__external_cap_to_internalB7v160006Em, symObjAddr: 0x19088, symBinAddr: 0x10001C398, symSize: 0x24 }
  - { offsetInCU: 0x53E22, offset: 0x53E22, size: 0x8, addend: 0x0, symName: __ZNSt3__19allocatorImE8allocateB7v160006Em, symObjAddr: 0x190AC, symBinAddr: 0x10001C3BC, symSize: 0x58 }
  - { offsetInCU: 0x53E56, offset: 0x53E56, size: 0x8, addend: 0x0, symName: __ZNSt3__16vectorIbNS_9allocatorIbEEE11__make_iterB7v160006Em, symObjAddr: 0x19248, symBinAddr: 0x10001C558, symSize: 0x64 }
  - { offsetInCU: 0x53EA1, offset: 0x53EA1, size: 0x8, addend: 0x0, symName: __ZNKSt3__16__lessIllEclB7v160006ERKlS3_, symObjAddr: 0x19BA8, symBinAddr: 0x10001CEB8, symSize: 0x34 }
  - { offsetInCU: 0x53F00, offset: 0x53F00, size: 0x8, addend: 0x0, symName: __ZNKSt3__114__copy_trivialclB7v160006ImmLi0EEENS_4pairIPT_PT0_EES4_S4_S6_, symObjAddr: 0x19DB8, symBinAddr: 0x10001D0C8, symSize: 0x48 }
  - { offsetInCU: 0x53F6E, offset: 0x53F6E, size: 0x8, addend: 0x0, symName: __ZNSt3__14pairIPmS1_EC1B7v160006IRS1_S1_LPv0EEEOT_OT0_, symObjAddr: 0x19F80, symBinAddr: 0x10001D290, symSize: 0x3C }
  - { offsetInCU: 0x53FCC, offset: 0x53FCC, size: 0x8, addend: 0x0, symName: __ZNSt3__14pairIPmS1_EC2B7v160006IRS1_S1_LPv0EEEOT_OT0_, symObjAddr: 0x19FBC, symBinAddr: 0x10001D2CC, symSize: 0x34 }
  - { offsetInCU: 0x5402A, offset: 0x5402A, size: 0x8, addend: 0x0, symName: __ZNSt3__118__unwrap_iter_implIPmLb1EE8__unwrapB7v160006ES1_, symObjAddr: 0x19FF0, symBinAddr: 0x10001D300, symSize: 0x24 }
  - { offsetInCU: 0x5404D, offset: 0x5404D, size: 0x8, addend: 0x0, symName: __ZNSt3__14pairIPmS1_EC1B7v160006IS1_S1_LPv0EEEOT_OT0_, symObjAddr: 0x1A014, symBinAddr: 0x10001D324, symSize: 0x3C }
  - { offsetInCU: 0x540AB, offset: 0x540AB, size: 0x8, addend: 0x0, symName: __ZNSt3__14pairIPmS1_EC2B7v160006IS1_S1_LPv0EEEOT_OT0_, symObjAddr: 0x1A050, symBinAddr: 0x10001D360, symSize: 0x34 }
  - { offsetInCU: 0x54109, offset: 0x54109, size: 0x8, addend: 0x0, symName: __ZNSt3__118__unwrap_iter_implIPmLb1EE8__rewrapB7v160006ES1_S1_, symObjAddr: 0x1A084, symBinAddr: 0x10001D394, symSize: 0x50 }
  - { offsetInCU: 0x5413A, offset: 0x5413A, size: 0x8, addend: 0x0, symName: __ZNSt3__114__bit_iteratorINS_6vectorIbNS_9allocatorIbEEEELb0ELm0EEC1B7v160006EPmj, symObjAddr: 0x1A0D4, symBinAddr: 0x10001D3E4, symSize: 0x3C }
  - { offsetInCU: 0x54182, offset: 0x54182, size: 0x8, addend: 0x0, symName: __ZNSt3__114__bit_iteratorINS_6vectorIbNS_9allocatorIbEEEELb0ELm0EEC2B7v160006EPmj, symObjAddr: 0x1A110, symBinAddr: 0x10001D420, symSize: 0x2C }
  - { offsetInCU: 0x541CA, offset: 0x541CA, size: 0x8, addend: 0x0, symName: __ZNSt3__16vectorIbNS_9allocatorIbEEE10__align_itB7v160006Em, symObjAddr: 0x1A13C, symBinAddr: 0x10001D44C, symSize: 0x1C }
  - { offsetInCU: 0x5420B, offset: 0x5420B, size: 0x8, addend: 0x0, symName: __ZNKSt3__114__copy_trivialclB7v160006IKmmLi0EEENS_4pairIPT_PT0_EES5_S5_S7_, symObjAddr: 0x1AB5C, symBinAddr: 0x10001DE6C, symSize: 0x48 }
  - { offsetInCU: 0x54296, offset: 0x54296, size: 0x8, addend: 0x0, symName: __ZNSt3__14pairIPKmS2_EC1B7v160006IS2_S2_LPv0EEEOT_OT0_, symObjAddr: 0x1AC64, symBinAddr: 0x10001DF74, symSize: 0x3C }
  - { offsetInCU: 0x542F4, offset: 0x542F4, size: 0x8, addend: 0x0, symName: __ZNSt3__14pairIPKmS2_EC2B7v160006IS2_S2_LPv0EEEOT_OT0_, symObjAddr: 0x1ACA0, symBinAddr: 0x10001DFB0, symSize: 0x34 }
  - { offsetInCU: 0x54352, offset: 0x54352, size: 0x8, addend: 0x0, symName: __ZNSt3__118__unwrap_iter_implIPKmLb1EE8__unwrapB7v160006ES2_, symObjAddr: 0x1ACD4, symBinAddr: 0x10001DFE4, symSize: 0x24 }
  - { offsetInCU: 0x5437B, offset: 0x5437B, size: 0x8, addend: 0x0, symName: __ZNSt3__14pairIPKmPmEC1B7v160006IRS2_S3_LPv0EEEOT_OT0_, symObjAddr: 0x1ADB4, symBinAddr: 0x10001E0C4, symSize: 0x3C }
  - { offsetInCU: 0x543D9, offset: 0x543D9, size: 0x8, addend: 0x0, symName: __ZNSt3__14pairIPKmPmEC2B7v160006IRS2_S3_LPv0EEEOT_OT0_, symObjAddr: 0x1ADF0, symBinAddr: 0x10001E100, symSize: 0x34 }
  - { offsetInCU: 0x54437, offset: 0x54437, size: 0x8, addend: 0x0, symName: __ZNSt3__14pairIPKmPmEC1B7v160006IS2_S3_LPv0EEEOT_OT0_, symObjAddr: 0x1AE24, symBinAddr: 0x10001E134, symSize: 0x3C }
  - { offsetInCU: 0x54495, offset: 0x54495, size: 0x8, addend: 0x0, symName: __ZNSt3__14pairIPKmPmEC2B7v160006IS2_S3_LPv0EEEOT_OT0_, symObjAddr: 0x1AE60, symBinAddr: 0x10001E170, symSize: 0x34 }
  - { offsetInCU: 0x544F3, offset: 0x544F3, size: 0x8, addend: 0x0, symName: __ZNSt3__118__unwrap_iter_implIPKmLb1EE8__rewrapB7v160006ES2_S2_, symObjAddr: 0x1AED0, symBinAddr: 0x10001E1E0, symSize: 0x50 }
  - { offsetInCU: 0x54524, offset: 0x54524, size: 0x8, addend: 0x0, symName: __ZNKSt3__16vectorIbNS_9allocatorIbEEE11__make_iterB7v160006Em, symObjAddr: 0x1AF20, symBinAddr: 0x10001E230, symSize: 0x5C }
  - { offsetInCU: 0x54559, offset: 0x54559, size: 0x8, addend: 0x0, symName: __ZNSt3__114__bit_iteratorINS_6vectorIbNS_9allocatorIbEEEELb1ELm0EEC1B7v160006EPKmj, symObjAddr: 0x1AF7C, symBinAddr: 0x10001E28C, symSize: 0x3C }
  - { offsetInCU: 0x545A1, offset: 0x545A1, size: 0x8, addend: 0x0, symName: __ZNSt3__114__bit_iteratorINS_6vectorIbNS_9allocatorIbEEEELb1ELm0EEC2B7v160006EPKmj, symObjAddr: 0x1AFB8, symBinAddr: 0x10001E2C8, symSize: 0x2C }
  - { offsetInCU: 0x545E9, offset: 0x545E9, size: 0x8, addend: 0x0, symName: __ZNSt3__114__bit_iteratorINS_6vectorIbNS_9allocatorIbEEEELb0ELm0EEC2B7v160006ERKS5_, symObjAddr: 0x1B47C, symBinAddr: 0x10001E78C, symSize: 0x30 }
  - { offsetInCU: 0x54622, offset: 0x54622, size: 0x8, addend: 0x0, symName: __ZNSt3__16vectorIiNS_9allocatorIiEEE11__make_iterB7v160006EPi, symObjAddr: 0x1B4AC, symBinAddr: 0x10001E7BC, symSize: 0x34 }
  - { offsetInCU: 0x54657, offset: 0x54657, size: 0x8, addend: 0x0, symName: __ZNSt3__111__wrap_iterIPiEC1B7v160006EPKvS1_, symObjAddr: 0x1B4E0, symBinAddr: 0x10001E7F0, symSize: 0x3C }
  - { offsetInCU: 0x5469D, offset: 0x5469D, size: 0x8, addend: 0x0, symName: __ZNSt3__111__wrap_iterIPiEC2B7v160006EPKvS1_, symObjAddr: 0x1B51C, symBinAddr: 0x10001E82C, symSize: 0x24 }
  - { offsetInCU: 0x546E3, offset: 0x546E3, size: 0x8, addend: 0x0, symName: __ZNSt3__16vectorIiNS_9allocatorIiEEE22__construct_one_at_endB7v160006IJRKiEEEvDpOT_, symObjAddr: 0x1B540, symBinAddr: 0x10001E850, symSize: 0x90 }
  - { offsetInCU: 0x54732, offset: 0x54732, size: 0x8, addend: 0x0, symName: __ZNSt3__16vectorIiNS_9allocatorIiEEE21__push_back_slow_pathIRKiEEvOT_, symObjAddr: 0x1B5D0, symBinAddr: 0x10001E8E0, symSize: 0xD8 }
  - { offsetInCU: 0x54790, offset: 0x54790, size: 0x8, addend: 0x0, symName: __ZNSt3__16vectorINS0_IiNS_9allocatorIiEEEENS1_IS3_EEE22__construct_one_at_endB7v160006IJS3_EEEvDpOT_, symObjAddr: 0x1B6A8, symBinAddr: 0x10001E9B8, symSize: 0x90 }
  - { offsetInCU: 0x547DF, offset: 0x547DF, size: 0x8, addend: 0x0, symName: __ZNSt3__16vectorINS0_IiNS_9allocatorIiEEEENS1_IS3_EEE21__push_back_slow_pathIS3_EEvOT_, symObjAddr: 0x1B738, symBinAddr: 0x10001EA48, symSize: 0xD8 }
  - { offsetInCU: 0x5483D, offset: 0x5483D, size: 0x8, addend: 0x0, symName: __ZNKSt3__16bitsetILm1EE9to_stringB7v160006IcNS_11char_traitsIcEEEENS_12basic_stringIT_T0_NS_9allocatorIS6_EEEES6_S6_, symObjAddr: 0x1B810, symBinAddr: 0x10001EB20, symSize: 0x3C }
  - { offsetInCU: 0x54895, offset: 0x54895, size: 0x8, addend: 0x0, symName: __ZNKSt3__16bitsetILm1EE9to_stringB7v160006IcNS_11char_traitsIcEENS_9allocatorIcEEEENS_12basic_stringIT_T0_T1_EES8_S8_, symObjAddr: 0x1B84C, symBinAddr: 0x10001EB5C, symSize: 0x104 }
  - { offsetInCU: 0x54923, offset: 0x54923, size: 0x8, addend: 0x0, symName: __ZNSt3__112basic_stringIcNS_11char_traitsIcEENS_9allocatorIcEEEixB7v160006Em, symObjAddr: 0x1B950, symBinAddr: 0x10001EC60, symSize: 0x30 }
  - { offsetInCU: 0x54958, offset: 0x54958, size: 0x8, addend: 0x0, symName: __ZNSt3__16vectorI3RGBNS_9allocatorIS1_EEE11__make_iterB7v160006EPS1_, symObjAddr: 0x1B980, symBinAddr: 0x10001EC90, symSize: 0x34 }
  - { offsetInCU: 0x5498D, offset: 0x5498D, size: 0x8, addend: 0x0, symName: __ZNSt3__111__wrap_iterIP3RGBEC1B7v160006EPKvS2_, symObjAddr: 0x1B9B4, symBinAddr: 0x10001ECC4, symSize: 0x3C }
  - { offsetInCU: 0x549D3, offset: 0x549D3, size: 0x8, addend: 0x0, symName: __ZNSt3__111__wrap_iterIP3RGBEC2B7v160006EPKvS2_, symObjAddr: 0x1B9F0, symBinAddr: 0x10001ED00, symSize: 0x24 }
  - { offsetInCU: 0x54A19, offset: 0x54A19, size: 0x8, addend: 0x0, symName: __ZNSt3__18__bitsetILm1ELm1EE10__make_refB7v160006Em, symObjAddr: 0x1BA14, symBinAddr: 0x10001ED24, symSize: 0x40 }
  - { offsetInCU: 0x54A4E, offset: 0x54A4E, size: 0x8, addend: 0x0, symName: __ZNSt3__115__bit_referenceINS_8__bitsetILm1ELm1EEELb1EEC1B7v160006EPmm, symObjAddr: 0x1BA54, symBinAddr: 0x10001ED64, symSize: 0x3C }
  - { offsetInCU: 0x54A94, offset: 0x54A94, size: 0x8, addend: 0x0, symName: __ZNSt3__115__bit_referenceINS_8__bitsetILm1ELm1EEELb1EEC2B7v160006EPmm, symObjAddr: 0x1BA90, symBinAddr: 0x10001EDA0, symSize: 0x2C }
  - { offsetInCU: 0x54ADA, offset: 0x54ADA, size: 0x8, addend: 0x0, symName: __ZNKSt3__111__wrap_iterIPKiEdeB7v160006Ev, symObjAddr: 0x1BABC, symBinAddr: 0x10001EDCC, symSize: 0x18 }
  - { offsetInCU: 0x54B00, offset: 0x54B00, size: 0x8, addend: 0x0, symName: __ZNSt3__111__wrap_iterIPKiEppB7v160006Ev, symObjAddr: 0x1BAD4, symBinAddr: 0x10001EDE4, symSize: 0x20 }
  - { offsetInCU: 0x54B26, offset: 0x54B26, size: 0x8, addend: 0x0, symName: __ZNKSt3__16vectorIbNS_9allocatorIbEEE10__make_refB7v160006Em, symObjAddr: 0x1BAF4, symBinAddr: 0x10001EE04, symSize: 0x60 }
  - { offsetInCU: 0x54B5B, offset: 0x54B5B, size: 0x8, addend: 0x0, symName: __ZNSt3__121__bit_const_referenceINS_6vectorIbNS_9allocatorIbEEEEEC1B7v160006EPKmm, symObjAddr: 0x1BB54, symBinAddr: 0x10001EE64, symSize: 0x3C }
  - { offsetInCU: 0x54BA1, offset: 0x54BA1, size: 0x8, addend: 0x0, symName: __ZNSt3__121__bit_const_referenceINS_6vectorIbNS_9allocatorIbEEEEEC2B7v160006EPKmm, symObjAddr: 0x1BB90, symBinAddr: 0x10001EEA0, symSize: 0x2C }
  - { offsetInCU: 0x54BE7, offset: 0x54BE7, size: 0x8, addend: 0x0, symName: __ZN2cv3VecIhLi3EEC2ERKS1_, symObjAddr: 0x1BBBC, symBinAddr: 0x10001EECC, symSize: 0x34 }
  - { offsetInCU: 0x54C22, offset: 0x54C22, size: 0x8, addend: 0x0, symName: __ZN2cv4MatxIhLi3ELi1EEC2EPKh, symObjAddr: 0x1BBF0, symBinAddr: 0x10001EF00, symSize: 0x74 }
  - { offsetInCU: 0x54C79, offset: 0x54C79, size: 0x8, addend: 0x0, symName: __ZNSt3__16vectorIbNS_9allocatorIbEEE10__make_refB7v160006Em, symObjAddr: 0x1BC64, symBinAddr: 0x10001EF74, symSize: 0x60 }
  - { offsetInCU: 0x54CAE, offset: 0x54CAE, size: 0x8, addend: 0x0, symName: __ZNSt3__115__bit_referenceINS_6vectorIbNS_9allocatorIbEEEELb1EEC1B7v160006EPmm, symObjAddr: 0x1BCC4, symBinAddr: 0x10001EFD4, symSize: 0x3C }
  - { offsetInCU: 0x54CF4, offset: 0x54CF4, size: 0x8, addend: 0x0, symName: __ZNSt3__115__bit_referenceINS_6vectorIbNS_9allocatorIbEEEELb1EEC2B7v160006EPmm, symObjAddr: 0x1BD00, symBinAddr: 0x10001F010, symSize: 0x2C }
  - { offsetInCU: 0x54D3A, offset: 0x54D3A, size: 0x8, addend: 0x0, symName: __ZNSt3__120back_insert_iteratorINS_6vectorIiNS_9allocatorIiEEEEEC1B7v160006ERS4_, symObjAddr: 0x1BD2C, symBinAddr: 0x10001F03C, symSize: 0x34 }
  - { offsetInCU: 0x54D72, offset: 0x54D72, size: 0x8, addend: 0x0, symName: __ZNSt3__120back_insert_iteratorINS_6vectorIiNS_9allocatorIiEEEEEC2B7v160006ERS4_, symObjAddr: 0x1BD60, symBinAddr: 0x10001F070, symSize: 0x20 }
  - { offsetInCU: 0x54DAA, offset: 0x54DAA, size: 0x8, addend: 0x0, symName: __ZNK6andres9PartitionIiE16numberOfElementsEv, symObjAddr: 0x1BD80, symBinAddr: 0x10001F090, symSize: 0x24 }
  - { offsetInCU: 0x54DD1, offset: 0x54DD1, size: 0x8, addend: 0x0, symName: __ZNKSt3__16vectorIiNS_9allocatorIiEEEixB7v160006Em, symObjAddr: 0x1BDA4, symBinAddr: 0x10001F0B4, symSize: 0x24 }
  - { offsetInCU: 0x54E08, offset: 0x54E08, size: 0x8, addend: 0x0, symName: __ZNSt3__120back_insert_iteratorINS_6vectorIiNS_9allocatorIiEEEEEdeB7v160006Ev, symObjAddr: 0x1BDC8, symBinAddr: 0x10001F0D8, symSize: 0x14 }
  - { offsetInCU: 0x54E2E, offset: 0x54E2E, size: 0x8, addend: 0x0, symName: __ZNSt3__120back_insert_iteratorINS_6vectorIiNS_9allocatorIiEEEEEaSB7v160006ERKi, symObjAddr: 0x1BDDC, symBinAddr: 0x10001F0EC, symSize: 0x38 }
  - { offsetInCU: 0x54E62, offset: 0x54E62, size: 0x8, addend: 0x0, symName: __ZNSt3__120back_insert_iteratorINS_6vectorIiNS_9allocatorIiEEEEEppB7v160006Ev, symObjAddr: 0x1BE14, symBinAddr: 0x10001F124, symSize: 0x14 }
  - { offsetInCU: 0x54E88, offset: 0x54E88, size: 0x8, addend: 0x0, symName: __ZNSt3__16vectorI3RGBNS_9allocatorIS1_EEE22__construct_one_at_endB7v160006IJS1_EEEvDpOT_, symObjAddr: 0x1BE28, symBinAddr: 0x10001F138, symSize: 0x90 }
  - { offsetInCU: 0x54ED7, offset: 0x54ED7, size: 0x8, addend: 0x0, symName: __ZNSt3__16vectorI3RGBNS_9allocatorIS1_EEE21__push_back_slow_pathIS1_EEvOT_, symObjAddr: 0x1BEB8, symBinAddr: 0x10001F1C8, symSize: 0xD8 }
  - { offsetInCU: 0x54F35, offset: 0x54F35, size: 0x8, addend: 0x0, symName: __ZNSt3__116allocator_traitsINS_9allocatorI3RGBEEE9constructB7v160006IS2_JS2_EvEEvRS3_PT_DpOT0_, symObjAddr: 0x1BF90, symBinAddr: 0x10001F2A0, symSize: 0x34 }
  - { offsetInCU: 0x54F8C, offset: 0x54F8C, size: 0x8, addend: 0x0, symName: __ZNSt3__19allocatorI3RGBE9constructB7v160006IS1_JS1_EEEvPT_DpOT0_, symObjAddr: 0x1BFC4, symBinAddr: 0x10001F2D4, symSize: 0x30 }
  - { offsetInCU: 0x54FE2, offset: 0x54FE2, size: 0x8, addend: 0x0, symName: __ZNSt3__16vectorIbNS_9allocatorIbEEE13__move_assignERS3_NS_17integral_constantIbLb1EEE, symObjAddr: 0x1C058, symBinAddr: 0x10001F368, symSize: 0x94 }
  - { offsetInCU: 0x55025, offset: 0x55025, size: 0x8, addend: 0x0, symName: __ZNSt3__16vectorIbNS_9allocatorIbEEE13__vdeallocateEv, symObjAddr: 0x1C0EC, symBinAddr: 0x10001F3FC, symSize: 0x90 }
  - { offsetInCU: 0x5504D, offset: 0x5504D, size: 0x8, addend: 0x0, symName: __ZNSt3__16vectorIbNS_9allocatorIbEEE19__move_assign_allocB7v160006ERS3_, symObjAddr: 0x1C17C, symBinAddr: 0x10001F48C, symSize: 0x2C }
  - { offsetInCU: 0x55082, offset: 0x55082, size: 0x8, addend: 0x0, symName: __ZNSt3__16vectorIbNS_9allocatorIbEEE19__move_assign_allocB7v160006ERS3_NS_17integral_constantIbLb1EEE, symObjAddr: 0x1C1A8, symBinAddr: 0x10001F4B8, symSize: 0x38 }
  - { offsetInCU: 0x550C3, offset: 0x550C3, size: 0x8, addend: 0x0, symName: __ZNSt3__16vectorINS_5tupleIJi9DirectionNS0_IbNS_9allocatorIbEEEEEEENS3_IS6_EEE9__end_capB7v160006Ev, symObjAddr: 0x1C1E0, symBinAddr: 0x10001F4F0, symSize: 0x28 }
  - { offsetInCU: 0x550E9, offset: 0x550E9, size: 0x8, addend: 0x0, symName: __ZNSt3__16vectorINS_5tupleIJi9DirectionNS0_IbNS_9allocatorIbEEEEEEENS3_IS6_EEE22__construct_one_at_endB7v160006IJRiRS2_RS5_EEEvDpOT_, symObjAddr: 0x1C208, symBinAddr: 0x10001F518, symSize: 0xA0 }
  - { offsetInCU: 0x55160, offset: 0x55160, size: 0x8, addend: 0x0, symName: __ZNSt3__16vectorINS_5tupleIJi9DirectionNS0_IbNS_9allocatorIbEEEEEEENS3_IS6_EEE24__emplace_back_slow_pathIJRiRS2_RS5_EEEvDpOT_, symObjAddr: 0x1C2A8, symBinAddr: 0x10001F5B8, symSize: 0xE8 }
  - { offsetInCU: 0x551E8, offset: 0x551E8, size: 0x8, addend: 0x0, symName: __ZNSt3__16vectorINS_5tupleIJi9DirectionNS0_IbNS_9allocatorIbEEEEEEENS3_IS6_EEE4backB7v160006Ev, symObjAddr: 0x1C390, symBinAddr: 0x10001F6A0, symSize: 0x1C }
  - { offsetInCU: 0x5520E, offset: 0x5520E, size: 0x8, addend: 0x0, symName: __ZNSt3__117__compressed_pairIPNS_5tupleIJi9DirectionNS_6vectorIbNS_9allocatorIbEEEEEEENS4_IS7_EEE5firstB7v160006Ev, symObjAddr: 0x1C3AC, symBinAddr: 0x10001F6BC, symSize: 0x24 }
  - { offsetInCU: 0x55234, offset: 0x55234, size: 0x8, addend: 0x0, symName: __ZNSt3__122__compressed_pair_elemIPNS_5tupleIJi9DirectionNS_6vectorIbNS_9allocatorIbEEEEEEELi0ELb0EE5__getB7v160006Ev, symObjAddr: 0x1C3D0, symBinAddr: 0x10001F6E0, symSize: 0x14 }
  - { offsetInCU: 0x55276, offset: 0x55276, size: 0x8, addend: 0x0, symName: __ZNSt3__16vectorINS_5tupleIJi9DirectionNS0_IbNS_9allocatorIbEEEEEEENS3_IS6_EEE21_ConstructTransactionC1B7v160006ERS8_m, symObjAddr: 0x1C3E4, symBinAddr: 0x10001F6F4, symSize: 0x3C }
  - { offsetInCU: 0x552BE, offset: 0x552BE, size: 0x8, addend: 0x0, symName: __ZNSt3__116allocator_traitsINS_9allocatorINS_5tupleIJi9DirectionNS_6vectorIbNS1_IbEEEEEEEEEE9constructB7v160006IS7_JRiRS3_RS6_EvEEvRS8_PT_DpOT0_, symObjAddr: 0x1C420, symBinAddr: 0x10001F730, symSize: 0x44 }
  - { offsetInCU: 0x5533D, offset: 0x5533D, size: 0x8, addend: 0x0, symName: __ZNSt3__16vectorINS_5tupleIJi9DirectionNS0_IbNS_9allocatorIbEEEEEEENS3_IS6_EEE21_ConstructTransactionD1B7v160006Ev, symObjAddr: 0x1C464, symBinAddr: 0x10001F774, symSize: 0x2C }
  - { offsetInCU: 0x55367, offset: 0x55367, size: 0x8, addend: 0x0, symName: __ZNSt3__16vectorINS_5tupleIJi9DirectionNS0_IbNS_9allocatorIbEEEEEEENS3_IS6_EEE21_ConstructTransactionC2B7v160006ERS8_m, symObjAddr: 0x1C490, symBinAddr: 0x10001F7A0, symSize: 0x44 }
  - { offsetInCU: 0x553AF, offset: 0x553AF, size: 0x8, addend: 0x0, symName: __ZNSt3__19allocatorINS_5tupleIJi9DirectionNS_6vectorIbNS0_IbEEEEEEEE9constructB7v160006IS6_JRiRS2_RS5_EEEvPT_DpOT0_, symObjAddr: 0x1C4D4, symBinAddr: 0x10001F7E4, symSize: 0x40 }
  - { offsetInCU: 0x5542B, offset: 0x5542B, size: 0x8, addend: 0x0, symName: __ZNSt3__15tupleIJi9DirectionNS_6vectorIbNS_9allocatorIbEEEEEEC1B7v160006IJRiRS1_RS5_ELi0EEEDpOT_, symObjAddr: 0x1C514, symBinAddr: 0x10001F824, symSize: 0x44 }
  - { offsetInCU: 0x5549D, offset: 0x5549D, size: 0x8, addend: 0x0, symName: __ZNSt3__15tupleIJi9DirectionNS_6vectorIbNS_9allocatorIbEEEEEEC2B7v160006IJRiRS1_RS5_ELi0EEEDpOT_, symObjAddr: 0x1C558, symBinAddr: 0x10001F868, symSize: 0x44 }
  - { offsetInCU: 0x5550F, offset: 0x5550F, size: 0x8, addend: 0x0, symName: __ZNSt3__112__tuple_implINS_15__tuple_indicesIJLm0ELm1ELm2EEEEJi9DirectionNS_6vectorIbNS_9allocatorIbEEEEEEC1B7v160006IJLm0ELm1ELm2EEJiS3_S7_EJEJEJRiRS3_RS7_EEENS1_IJXspT_EEEENS_13__tuple_typesIJDpT0_EEENS1_IJXspT1_EEEENSE_IJDpT2_EEEDpOT3_, symObjAddr: 0x1C59C, symBinAddr: 0x10001F8AC, symSize: 0x44 }
  - { offsetInCU: 0x555E2, offset: 0x555E2, size: 0x8, addend: 0x0, symName: __ZNSt3__112__tuple_implINS_15__tuple_indicesIJLm0ELm1ELm2EEEEJi9DirectionNS_6vectorIbNS_9allocatorIbEEEEEEC2B7v160006IJLm0ELm1ELm2EEJiS3_S7_EJEJEJRiRS3_RS7_EEENS1_IJXspT_EEEENS_13__tuple_typesIJDpT0_EEENS1_IJXspT1_EEEENSE_IJDpT2_EEEDpOT3_, symObjAddr: 0x1C5E0, symBinAddr: 0x10001F8F0, symSize: 0x5C }
  - { offsetInCU: 0x556B5, offset: 0x556B5, size: 0x8, addend: 0x0, symName: __ZNSt3__112__tuple_leafILm0EiLb0EEC2B7v160006IRivEEOT_, symObjAddr: 0x1C63C, symBinAddr: 0x10001F94C, symSize: 0x24 }
  - { offsetInCU: 0x556F8, offset: 0x556F8, size: 0x8, addend: 0x0, symName: __ZNSt3__112__tuple_leafILm1E9DirectionLb0EEC2B7v160006IRS1_vEEOT_, symObjAddr: 0x1C660, symBinAddr: 0x10001F970, symSize: 0x24 }
  - { offsetInCU: 0x5573B, offset: 0x5573B, size: 0x8, addend: 0x0, symName: __ZNSt3__112__tuple_leafILm2ENS_6vectorIbNS_9allocatorIbEEEELb0EEC2B7v160006IRS4_vEEOT_, symObjAddr: 0x1C684, symBinAddr: 0x10001F994, symSize: 0x34 }
  - { offsetInCU: 0x5577E, offset: 0x5577E, size: 0x8, addend: 0x0, symName: __ZNSt3__16vectorINS_5tupleIJi9DirectionNS0_IbNS_9allocatorIbEEEEEEENS3_IS6_EEE21_ConstructTransactionD2B7v160006Ev, symObjAddr: 0x1C6B8, symBinAddr: 0x10001F9C8, symSize: 0x20 }
  - { offsetInCU: 0x557A8, offset: 0x557A8, size: 0x8, addend: 0x0, symName: __ZNKSt3__16vectorINS_5tupleIJi9DirectionNS0_IbNS_9allocatorIbEEEEEEENS3_IS6_EEE11__recommendB7v160006Em, symObjAddr: 0x1C6D8, symBinAddr: 0x10001F9E8, symSize: 0xB4 }
  - { offsetInCU: 0x557FD, offset: 0x557FD, size: 0x8, addend: 0x0, symName: __ZNSt3__114__split_bufferINS_5tupleIJi9DirectionNS_6vectorIbNS_9allocatorIbEEEEEEERNS4_IS7_EEEC1EmmS9_, symObjAddr: 0x1C78C, symBinAddr: 0x10001FA9C, symSize: 0x44 }
  - { offsetInCU: 0x55853, offset: 0x55853, size: 0x8, addend: 0x0, symName: __ZNSt3__114__split_bufferINS_5tupleIJi9DirectionNS_6vectorIbNS_9allocatorIbEEEEEEERNS4_IS7_EEED1Ev, symObjAddr: 0x1C8E8, symBinAddr: 0x10001FBF8, symSize: 0x2C }
  - { offsetInCU: 0x5587F, offset: 0x5587F, size: 0x8, addend: 0x0, symName: __ZNKSt3__16vectorINS_5tupleIJi9DirectionNS0_IbNS_9allocatorIbEEEEEEENS3_IS6_EEE8max_sizeEv, symObjAddr: 0x1C914, symBinAddr: 0x10001FC24, symSize: 0x60 }
  - { offsetInCU: 0x558A7, offset: 0x558A7, size: 0x8, addend: 0x0, symName: __ZNKSt3__16vectorINS_5tupleIJi9DirectionNS0_IbNS_9allocatorIbEEEEEEENS3_IS6_EEE20__throw_length_errorB7v160006Ev, symObjAddr: 0x1C974, symBinAddr: 0x10001FC84, symSize: 0x1C }
  - { offsetInCU: 0x558D8, offset: 0x558D8, size: 0x8, addend: 0x0, symName: __ZNSt3__116allocator_traitsINS_9allocatorINS_5tupleIJi9DirectionNS_6vectorIbNS1_IbEEEEEEEEEE8max_sizeB7v160006IS8_vEEmRKS8_, symObjAddr: 0x1C990, symBinAddr: 0x10001FCA0, symSize: 0x24 }
  - { offsetInCU: 0x55906, offset: 0x55906, size: 0x8, addend: 0x0, symName: __ZNKSt3__16vectorINS_5tupleIJi9DirectionNS0_IbNS_9allocatorIbEEEEEEENS3_IS6_EEE7__allocB7v160006Ev, symObjAddr: 0x1C9B4, symBinAddr: 0x10001FCC4, symSize: 0x28 }
  - { offsetInCU: 0x5592C, offset: 0x5592C, size: 0x8, addend: 0x0, symName: __ZNKSt3__19allocatorINS_5tupleIJi9DirectionNS_6vectorIbNS0_IbEEEEEEEE8max_sizeB7v160006Ev, symObjAddr: 0x1C9DC, symBinAddr: 0x10001FCEC, symSize: 0x14 }
  - { offsetInCU: 0x55952, offset: 0x55952, size: 0x8, addend: 0x0, symName: __ZNKSt3__117__compressed_pairIPNS_5tupleIJi9DirectionNS_6vectorIbNS_9allocatorIbEEEEEEENS4_IS7_EEE6secondB7v160006Ev, symObjAddr: 0x1C9F0, symBinAddr: 0x10001FD00, symSize: 0x24 }
  - { offsetInCU: 0x55978, offset: 0x55978, size: 0x8, addend: 0x0, symName: __ZNKSt3__122__compressed_pair_elemINS_9allocatorINS_5tupleIJi9DirectionNS_6vectorIbNS1_IbEEEEEEEEELi1ELb1EE5__getB7v160006Ev, symObjAddr: 0x1CA14, symBinAddr: 0x10001FD24, symSize: 0x14 }
  - { offsetInCU: 0x5599E, offset: 0x5599E, size: 0x8, addend: 0x0, symName: __ZNSt3__114__split_bufferINS_5tupleIJi9DirectionNS_6vectorIbNS_9allocatorIbEEEEEEERNS4_IS7_EEEC2EmmS9_, symObjAddr: 0x1CA28, symBinAddr: 0x10001FD38, symSize: 0xD4 }
  - { offsetInCU: 0x55A11, offset: 0x55A11, size: 0x8, addend: 0x0, symName: __ZNSt3__117__compressed_pairIPNS_5tupleIJi9DirectionNS_6vectorIbNS_9allocatorIbEEEEEEERNS4_IS7_EEEC1B7v160006IDnSA_EEOT_OT0_, symObjAddr: 0x1CAFC, symBinAddr: 0x10001FE0C, symSize: 0x3C }
  - { offsetInCU: 0x55A69, offset: 0x55A69, size: 0x8, addend: 0x0, symName: __ZNSt3__114__split_bufferINS_5tupleIJi9DirectionNS_6vectorIbNS_9allocatorIbEEEEEEERNS4_IS7_EEE7__allocB7v160006Ev, symObjAddr: 0x1CB78, symBinAddr: 0x10001FE88, symSize: 0x28 }
  - { offsetInCU: 0x55A8F, offset: 0x55A8F, size: 0x8, addend: 0x0, symName: __ZNSt3__114__split_bufferINS_5tupleIJi9DirectionNS_6vectorIbNS_9allocatorIbEEEEEEERNS4_IS7_EEE9__end_capB7v160006Ev, symObjAddr: 0x1CBA0, symBinAddr: 0x10001FEB0, symSize: 0x28 }
  - { offsetInCU: 0x55AB5, offset: 0x55AB5, size: 0x8, addend: 0x0, symName: __ZNSt3__117__compressed_pairIPNS_5tupleIJi9DirectionNS_6vectorIbNS_9allocatorIbEEEEEEERNS4_IS7_EEEC2B7v160006IDnSA_EEOT_OT0_, symObjAddr: 0x1CBC8, symBinAddr: 0x10001FED8, symSize: 0x48 }
  - { offsetInCU: 0x55B0D, offset: 0x55B0D, size: 0x8, addend: 0x0, symName: __ZNSt3__122__compressed_pair_elemIRNS_9allocatorINS_5tupleIJi9DirectionNS_6vectorIbNS1_IbEEEEEEEEELi1ELb0EEC2B7v160006IS9_vEEOT_, symObjAddr: 0x1CC10, symBinAddr: 0x10001FF20, symSize: 0x20 }
  - { offsetInCU: 0x55B4F, offset: 0x55B4F, size: 0x8, addend: 0x0, symName: __ZNSt3__19allocatorINS_5tupleIJi9DirectionNS_6vectorIbNS0_IbEEEEEEEE8allocateB7v160006Em, symObjAddr: 0x1CC30, symBinAddr: 0x10001FF40, symSize: 0x58 }
  - { offsetInCU: 0x55B83, offset: 0x55B83, size: 0x8, addend: 0x0, symName: __ZNSt3__117__compressed_pairIPNS_5tupleIJi9DirectionNS_6vectorIbNS_9allocatorIbEEEEEEERNS4_IS7_EEE6secondB7v160006Ev, symObjAddr: 0x1CC88, symBinAddr: 0x10001FF98, symSize: 0x28 }
  - { offsetInCU: 0x55BA9, offset: 0x55BA9, size: 0x8, addend: 0x0, symName: __ZNSt3__122__compressed_pair_elemIRNS_9allocatorINS_5tupleIJi9DirectionNS_6vectorIbNS1_IbEEEEEEEEELi1ELb0EE5__getB7v160006Ev, symObjAddr: 0x1CCB0, symBinAddr: 0x10001FFC0, symSize: 0x18 }
  - { offsetInCU: 0x55BCF, offset: 0x55BCF, size: 0x8, addend: 0x0, symName: __ZNSt3__117__compressed_pairIPNS_5tupleIJi9DirectionNS_6vectorIbNS_9allocatorIbEEEEEEERNS4_IS7_EEE5firstB7v160006Ev, symObjAddr: 0x1CCC8, symBinAddr: 0x10001FFD8, symSize: 0x24 }
  - { offsetInCU: 0x55BF5, offset: 0x55BF5, size: 0x8, addend: 0x0, symName: __ZNSt3__116reverse_iteratorIPNS_5tupleIJi9DirectionNS_6vectorIbNS_9allocatorIbEEEEEEEEC1B7v160006ES8_, symObjAddr: 0x1CE18, symBinAddr: 0x100020128, symSize: 0x34 }
  - { offsetInCU: 0x55C2D, offset: 0x55C2D, size: 0x8, addend: 0x0, symName: __ZNKSt3__116reverse_iteratorIPNS_5tupleIJi9DirectionNS_6vectorIbNS_9allocatorIbEEEEEEEE4baseB7v160006Ev, symObjAddr: 0x1CE4C, symBinAddr: 0x10002015C, symSize: 0x18 }
  - { offsetInCU: 0x55C53, offset: 0x55C53, size: 0x8, addend: 0x0, symName: __ZNKSt3__16vectorINS_5tupleIJi9DirectionNS0_IbNS_9allocatorIbEEEEEEENS3_IS6_EEE14__annotate_newB7v160006Em, symObjAddr: 0x1CEA0, symBinAddr: 0x1000201B0, symSize: 0xAC }
  - { offsetInCU: 0x55C88, offset: 0x55C88, size: 0x8, addend: 0x0, symName: __ZNSt3__129_AllocatorDestroyRangeReverseINS_9allocatorINS_5tupleIJi9DirectionNS_6vectorIbNS1_IbEEEEEEEEENS_16reverse_iteratorIPS7_EEEC1B7v160006ERS8_RSB_SE_, symObjAddr: 0x1CFA8, symBinAddr: 0x1000202B8, symSize: 0x44 }
  - { offsetInCU: 0x55CDF, offset: 0x55CDF, size: 0x8, addend: 0x0, symName: __ZNSt3__116allocator_traitsINS_9allocatorINS_5tupleIJi9DirectionNS_6vectorIbNS1_IbEEEEEEEEEE9constructB7v160006IS7_JS7_EvEEvRS8_PT_DpOT0_, symObjAddr: 0x1D034, symBinAddr: 0x100020344, symSize: 0x34 }
  - { offsetInCU: 0x55D36, offset: 0x55D36, size: 0x8, addend: 0x0, symName: __ZNKSt3__116reverse_iteratorIPNS_5tupleIJi9DirectionNS_6vectorIbNS_9allocatorIbEEEEEEEEdeB7v160006Ev, symObjAddr: 0x1D08C, symBinAddr: 0x10002039C, symSize: 0x28 }
  - { offsetInCU: 0x55D6A, offset: 0x55D6A, size: 0x8, addend: 0x0, symName: __ZNSt3__116reverse_iteratorIPNS_5tupleIJi9DirectionNS_6vectorIbNS_9allocatorIbEEEEEEEEppB7v160006Ev, symObjAddr: 0x1D0B4, symBinAddr: 0x1000203C4, symSize: 0x20 }
  - { offsetInCU: 0x55D90, offset: 0x55D90, size: 0x8, addend: 0x0, symName: __ZNSt3__128__exception_guard_exceptionsINS_29_AllocatorDestroyRangeReverseINS_9allocatorINS_5tupleIJi9DirectionNS_6vectorIbNS2_IbEEEEEEEEENS_16reverse_iteratorIPS8_EEEEE10__completeB7v160006Ev, symObjAddr: 0x1D0D4, symBinAddr: 0x1000203E4, symSize: 0x1C }
  - { offsetInCU: 0x55DB6, offset: 0x55DB6, size: 0x8, addend: 0x0, symName: __ZNSt3__128__exception_guard_exceptionsINS_29_AllocatorDestroyRangeReverseINS_9allocatorINS_5tupleIJi9DirectionNS_6vectorIbNS2_IbEEEEEEEEENS_16reverse_iteratorIPS8_EEEEED1B7v160006Ev, symObjAddr: 0x1D0F0, symBinAddr: 0x100020400, symSize: 0x2C }
  - { offsetInCU: 0x55DE0, offset: 0x55DE0, size: 0x8, addend: 0x0, symName: __ZNSt3__128__exception_guard_exceptionsINS_29_AllocatorDestroyRangeReverseINS_9allocatorINS_5tupleIJi9DirectionNS_6vectorIbNS2_IbEEEEEEEEENS_16reverse_iteratorIPS8_EEEEEC1B7v160006ESD_, symObjAddr: 0x1D11C, symBinAddr: 0x10002042C, symSize: 0x34 }
  - { offsetInCU: 0x55E19, offset: 0x55E19, size: 0x8, addend: 0x0, symName: __ZNSt3__128__exception_guard_exceptionsINS_29_AllocatorDestroyRangeReverseINS_9allocatorINS_5tupleIJi9DirectionNS_6vectorIbNS2_IbEEEEEEEEENS_16reverse_iteratorIPS8_EEEEEC2B7v160006ESD_, symObjAddr: 0x1D150, symBinAddr: 0x100020460, symSize: 0x30 }
  - { offsetInCU: 0x55E52, offset: 0x55E52, size: 0x8, addend: 0x0, symName: __ZNSt3__129_AllocatorDestroyRangeReverseINS_9allocatorINS_5tupleIJi9DirectionNS_6vectorIbNS1_IbEEEEEEEEENS_16reverse_iteratorIPS7_EEEC2B7v160006ERS8_RSB_SE_, symObjAddr: 0x1D180, symBinAddr: 0x100020490, symSize: 0x38 }
  - { offsetInCU: 0x55EA9, offset: 0x55EA9, size: 0x8, addend: 0x0, symName: __ZNSt3__19allocatorINS_5tupleIJi9DirectionNS_6vectorIbNS0_IbEEEEEEEE9constructB7v160006IS6_JS6_EEEvPT_DpOT0_, symObjAddr: 0x1D1B8, symBinAddr: 0x1000204C8, symSize: 0x30 }
  - { offsetInCU: 0x55EFF, offset: 0x55EFF, size: 0x8, addend: 0x0, symName: __ZNSt3__15tupleIJi9DirectionNS_6vectorIbNS_9allocatorIbEEEEEEC1EOS6_, symObjAddr: 0x1D1E8, symBinAddr: 0x1000204F8, symSize: 0x34 }
  - { offsetInCU: 0x55F35, offset: 0x55F35, size: 0x8, addend: 0x0, symName: __ZNSt3__15tupleIJi9DirectionNS_6vectorIbNS_9allocatorIbEEEEEEC2EOS6_, symObjAddr: 0x1D21C, symBinAddr: 0x10002052C, symSize: 0x34 }
  - { offsetInCU: 0x55F6B, offset: 0x55F6B, size: 0x8, addend: 0x0, symName: __ZNSt3__112__tuple_implINS_15__tuple_indicesIJLm0ELm1ELm2EEEEJi9DirectionNS_6vectorIbNS_9allocatorIbEEEEEEC1EOS8_, symObjAddr: 0x1D250, symBinAddr: 0x100020560, symSize: 0x34 }
  - { offsetInCU: 0x55FA1, offset: 0x55FA1, size: 0x8, addend: 0x0, symName: __ZNSt3__112__tuple_implINS_15__tuple_indicesIJLm0ELm1ELm2EEEEJi9DirectionNS_6vectorIbNS_9allocatorIbEEEEEEC2EOS8_, symObjAddr: 0x1D284, symBinAddr: 0x100020594, symSize: 0x54 }
  - { offsetInCU: 0x55FD7, offset: 0x55FD7, size: 0x8, addend: 0x0, symName: __ZNSt3__112__tuple_leafILm2ENS_6vectorIbNS_9allocatorIbEEEELb0EEC2EOS5_, symObjAddr: 0x1D2D8, symBinAddr: 0x1000205E8, symSize: 0x34 }
  - { offsetInCU: 0x56010, offset: 0x56010, size: 0x8, addend: 0x0, symName: __ZNSt3__16vectorIbNS_9allocatorIbEEEC1B7v160006EOS3_, symObjAddr: 0x1D30C, symBinAddr: 0x10002061C, symSize: 0x34 }
  - { offsetInCU: 0x5604B, offset: 0x5604B, size: 0x8, addend: 0x0, symName: __ZNSt3__16vectorIbNS_9allocatorIbEEEC2B7v160006EOS3_, symObjAddr: 0x1D340, symBinAddr: 0x100020650, symSize: 0x70 }
  - { offsetInCU: 0x5608C, offset: 0x5608C, size: 0x8, addend: 0x0, symName: __ZNSt3__119__to_address_helperINS_16reverse_iteratorIPNS_5tupleIJi9DirectionNS_6vectorIbNS_9allocatorIbEEEEEEEEEvE6__callB7v160006ERKSA_, symObjAddr: 0x1D3B0, symBinAddr: 0x1000206C0, symSize: 0x38 }
  - { offsetInCU: 0x560AF, offset: 0x560AF, size: 0x8, addend: 0x0, symName: __ZNKSt3__116reverse_iteratorIPNS_5tupleIJi9DirectionNS_6vectorIbNS_9allocatorIbEEEEEEEEptB7v160006Ev, symObjAddr: 0x1D3E8, symBinAddr: 0x1000206F8, symSize: 0x24 }
  - { offsetInCU: 0x560D5, offset: 0x560D5, size: 0x8, addend: 0x0, symName: __ZNSt3__128__exception_guard_exceptionsINS_29_AllocatorDestroyRangeReverseINS_9allocatorINS_5tupleIJi9DirectionNS_6vectorIbNS2_IbEEEEEEEEENS_16reverse_iteratorIPS8_EEEEED2B7v160006Ev, symObjAddr: 0x1D40C, symBinAddr: 0x10002071C, symSize: 0x50 }
  - { offsetInCU: 0x560FF, offset: 0x560FF, size: 0x8, addend: 0x0, symName: __ZNKSt3__129_AllocatorDestroyRangeReverseINS_9allocatorINS_5tupleIJi9DirectionNS_6vectorIbNS1_IbEEEEEEEEENS_16reverse_iteratorIPS7_EEEclB7v160006Ev, symObjAddr: 0x1D45C, symBinAddr: 0x10002076C, symSize: 0xB4 }
  - { offsetInCU: 0x56126, offset: 0x56126, size: 0x8, addend: 0x0, symName: __ZNSt3__116reverse_iteratorINS0_IPNS_5tupleIJi9DirectionNS_6vectorIbNS_9allocatorIbEEEEEEEEEEC1B7v160006ES9_, symObjAddr: 0x1D580, symBinAddr: 0x100020890, symSize: 0x3C }
  - { offsetInCU: 0x5615E, offset: 0x5615E, size: 0x8, addend: 0x0, symName: __ZNSt3__116reverse_iteratorINS0_IPNS_5tupleIJi9DirectionNS_6vectorIbNS_9allocatorIbEEEEEEEEEEppB7v160006Ev, symObjAddr: 0x1D640, symBinAddr: 0x100020950, symSize: 0x30 }
  - { offsetInCU: 0x56184, offset: 0x56184, size: 0x8, addend: 0x0, symName: __ZNKSt3__116reverse_iteratorINS0_IPNS_5tupleIJi9DirectionNS_6vectorIbNS_9allocatorIbEEEEEEEEEE4baseB7v160006Ev, symObjAddr: 0x1D670, symBinAddr: 0x100020980, symSize: 0x24 }
  - { offsetInCU: 0x561B0, offset: 0x561B0, size: 0x8, addend: 0x0, symName: __ZNSt3__119__to_address_helperINS_16reverse_iteratorINS1_IPNS_5tupleIJi9DirectionNS_6vectorIbNS_9allocatorIbEEEEEEEEEEEvE6__callB7v160006ERKSB_, symObjAddr: 0x1D694, symBinAddr: 0x1000209A4, symSize: 0x38 }
  - { offsetInCU: 0x561D3, offset: 0x561D3, size: 0x8, addend: 0x0, symName: __ZNKSt3__116reverse_iteratorINS0_IPNS_5tupleIJi9DirectionNS_6vectorIbNS_9allocatorIbEEEEEEEEEEptB7v160006Ev, symObjAddr: 0x1D6CC, symBinAddr: 0x1000209DC, symSize: 0x24 }
  - { offsetInCU: 0x561F9, offset: 0x561F9, size: 0x8, addend: 0x0, symName: __ZNKSt3__116reverse_iteratorINS0_IPNS_5tupleIJi9DirectionNS_6vectorIbNS_9allocatorIbEEEEEEEEEEdeB7v160006Ev, symObjAddr: 0x1D6F0, symBinAddr: 0x100020A00, symSize: 0x34 }
  - { offsetInCU: 0x5622D, offset: 0x5622D, size: 0x8, addend: 0x0, symName: __ZNSt3__116reverse_iteratorIPNS_5tupleIJi9DirectionNS_6vectorIbNS_9allocatorIbEEEEEEEEmmB7v160006Ev, symObjAddr: 0x1D724, symBinAddr: 0x100020A34, symSize: 0x20 }
  - { offsetInCU: 0x56253, offset: 0x56253, size: 0x8, addend: 0x0, symName: __ZNSt3__116reverse_iteratorINS0_IPNS_5tupleIJi9DirectionNS_6vectorIbNS_9allocatorIbEEEEEEEEEEC2B7v160006ES9_, symObjAddr: 0x1D744, symBinAddr: 0x100020A54, symSize: 0x2C }
  - { offsetInCU: 0x5628B, offset: 0x5628B, size: 0x8, addend: 0x0, symName: __ZNSt3__116reverse_iteratorIPNS_5tupleIJi9DirectionNS_6vectorIbNS_9allocatorIbEEEEEEEEC2B7v160006ES8_, symObjAddr: 0x1D770, symBinAddr: 0x100020A80, symSize: 0x28 }
  - { offsetInCU: 0x562C3, offset: 0x562C3, size: 0x8, addend: 0x0, symName: __ZNSt3__114__split_bufferINS_5tupleIJi9DirectionNS_6vectorIbNS_9allocatorIbEEEEEEERNS4_IS7_EEED2Ev, symObjAddr: 0x1D798, symBinAddr: 0x100020AA8, symSize: 0x8C }
  - { offsetInCU: 0x562EF, offset: 0x562EF, size: 0x8, addend: 0x0, symName: __ZNSt3__114__split_bufferINS_5tupleIJi9DirectionNS_6vectorIbNS_9allocatorIbEEEEEEERNS4_IS7_EEE5clearB7v160006Ev, symObjAddr: 0x1D824, symBinAddr: 0x100020B34, symSize: 0x28 }
  - { offsetInCU: 0x56315, offset: 0x56315, size: 0x8, addend: 0x0, symName: __ZNKSt3__114__split_bufferINS_5tupleIJi9DirectionNS_6vectorIbNS_9allocatorIbEEEEEEERNS4_IS7_EEE8capacityB7v160006Ev, symObjAddr: 0x1D84C, symBinAddr: 0x100020B5C, symSize: 0x40 }
  - { offsetInCU: 0x5633B, offset: 0x5633B, size: 0x8, addend: 0x0, symName: __ZNSt3__114__split_bufferINS_5tupleIJi9DirectionNS_6vectorIbNS_9allocatorIbEEEEEEERNS4_IS7_EEE17__destruct_at_endB7v160006EPS7_, symObjAddr: 0x1D88C, symBinAddr: 0x100020B9C, symSize: 0x2C }
  - { offsetInCU: 0x5636F, offset: 0x5636F, size: 0x8, addend: 0x0, symName: __ZNSt3__114__split_bufferINS_5tupleIJi9DirectionNS_6vectorIbNS_9allocatorIbEEEEEEERNS4_IS7_EEE17__destruct_at_endB7v160006EPS7_NS_17integral_constantIbLb0EEE, symObjAddr: 0x1D8B8, symBinAddr: 0x100020BC8, symSize: 0x80 }
  - { offsetInCU: 0x563AF, offset: 0x563AF, size: 0x8, addend: 0x0, symName: __ZNKSt3__114__split_bufferINS_5tupleIJi9DirectionNS_6vectorIbNS_9allocatorIbEEEEEEERNS4_IS7_EEE9__end_capB7v160006Ev, symObjAddr: 0x1D938, symBinAddr: 0x100020C48, symSize: 0x28 }
  - { offsetInCU: 0x563D5, offset: 0x563D5, size: 0x8, addend: 0x0, symName: __ZNKSt3__117__compressed_pairIPNS_5tupleIJi9DirectionNS_6vectorIbNS_9allocatorIbEEEEEEERNS4_IS7_EEE5firstB7v160006Ev, symObjAddr: 0x1D960, symBinAddr: 0x100020C70, symSize: 0x24 }
  - { offsetInCU: 0x563FB, offset: 0x563FB, size: 0x8, addend: 0x0, symName: __ZNSt3__15stackIiNS_5dequeIiNS_9allocatorIiEEEEEC2B7v160006Ev, symObjAddr: 0x1D984, symBinAddr: 0x100020C94, symSize: 0x2C }
  - { offsetInCU: 0x56425, offset: 0x56425, size: 0x8, addend: 0x0, symName: __ZNSt3__15dequeIiNS_9allocatorIiEEEC1B7v160006Ev, symObjAddr: 0x1D9B0, symBinAddr: 0x100020CC0, symSize: 0x2C }
  - { offsetInCU: 0x5644F, offset: 0x5644F, size: 0x8, addend: 0x0, symName: __ZNSt3__15dequeIiNS_9allocatorIiEEEC2B7v160006Ev, symObjAddr: 0x1D9DC, symBinAddr: 0x100020CEC, symSize: 0x50 }
  - { offsetInCU: 0x56479, offset: 0x56479, size: 0x8, addend: 0x0, symName: __ZNSt3__114__split_bufferIPiNS_9allocatorIS1_EEEC1Ev, symObjAddr: 0x1DA2C, symBinAddr: 0x100020D3C, symSize: 0x2C }
  - { offsetInCU: 0x564A5, offset: 0x564A5, size: 0x8, addend: 0x0, symName: __ZNSt3__117__compressed_pairImNS_9allocatorIiEEEC1B7v160006IiNS_18__default_init_tagEEEOT_OT0_, symObjAddr: 0x1DA58, symBinAddr: 0x100020D68, symSize: 0x3C }
  - { offsetInCU: 0x564FD, offset: 0x564FD, size: 0x8, addend: 0x0, symName: __ZNSt3__114__split_bufferIPiNS_9allocatorIS1_EEEC2Ev, symObjAddr: 0x1DA94, symBinAddr: 0x100020DA4, symSize: 0x50 }
  - { offsetInCU: 0x56529, offset: 0x56529, size: 0x8, addend: 0x0, symName: __ZNSt3__117__compressed_pairIPPiNS_9allocatorIS1_EEEC1B7v160006IDnNS_18__default_init_tagEEEOT_OT0_, symObjAddr: 0x1DAE4, symBinAddr: 0x100020DF4, symSize: 0x3C }
  - { offsetInCU: 0x56581, offset: 0x56581, size: 0x8, addend: 0x0, symName: __ZNSt3__117__compressed_pairIPPiNS_9allocatorIS1_EEEC2B7v160006IDnNS_18__default_init_tagEEEOT_OT0_, symObjAddr: 0x1DB20, symBinAddr: 0x100020E30, symSize: 0x40 }
  - { offsetInCU: 0x565D9, offset: 0x565D9, size: 0x8, addend: 0x0, symName: __ZNSt3__122__compressed_pair_elemIPPiLi0ELb0EEC2B7v160006IDnvEEOT_, symObjAddr: 0x1DB60, symBinAddr: 0x100020E70, symSize: 0x1C }
  - { offsetInCU: 0x5661B, offset: 0x5661B, size: 0x8, addend: 0x0, symName: __ZNSt3__122__compressed_pair_elemINS_9allocatorIPiEELi1ELb1EEC2B7v160006ENS_18__default_init_tagE, symObjAddr: 0x1DB7C, symBinAddr: 0x100020E8C, symSize: 0x2C }
  - { offsetInCU: 0x5664F, offset: 0x5664F, size: 0x8, addend: 0x0, symName: __ZNSt3__19allocatorIPiEC2B7v160006Ev, symObjAddr: 0x1DBA8, symBinAddr: 0x100020EB8, symSize: 0x2C }
  - { offsetInCU: 0x56679, offset: 0x56679, size: 0x8, addend: 0x0, symName: __ZNSt3__116__non_trivial_ifILb1ENS_9allocatorIPiEEEC2B7v160006Ev, symObjAddr: 0x1DBD4, symBinAddr: 0x100020EE4, symSize: 0x14 }
  - { offsetInCU: 0x566A3, offset: 0x566A3, size: 0x8, addend: 0x0, symName: __ZNSt3__117__compressed_pairImNS_9allocatorIiEEEC2B7v160006IiNS_18__default_init_tagEEEOT_OT0_, symObjAddr: 0x1DBE8, symBinAddr: 0x100020EF8, symSize: 0x40 }
  - { offsetInCU: 0x566FB, offset: 0x566FB, size: 0x8, addend: 0x0, symName: __ZNSt3__13setIiNS_4lessIiEENS_9allocatorIiEEEC2B7v160006Ev, symObjAddr: 0x1DC28, symBinAddr: 0x100020F38, symSize: 0x30 }
  - { offsetInCU: 0x56725, offset: 0x56725, size: 0x8, addend: 0x0, symName: __ZNSt3__16__treeIiNS_4lessIiEENS_9allocatorIiEEEC1ERKS2_, symObjAddr: 0x1DC58, symBinAddr: 0x100020F68, symSize: 0x34 }
  - { offsetInCU: 0x56760, offset: 0x56760, size: 0x8, addend: 0x0, symName: __ZNSt3__16__treeIiNS_4lessIiEENS_9allocatorIiEEEC2ERKS2_, symObjAddr: 0x1DC8C, symBinAddr: 0x100020F9C, symSize: 0x7C }
  - { offsetInCU: 0x5679B, offset: 0x5679B, size: 0x8, addend: 0x0, symName: __ZNSt3__117__compressed_pairINS_15__tree_end_nodeIPNS_16__tree_node_baseIPvEEEENS_9allocatorINS_11__tree_nodeIiS3_EEEEEC1B7v160006ILb1EvEEv, symObjAddr: 0x1DD08, symBinAddr: 0x100021018, symSize: 0x2C }
  - { offsetInCU: 0x567D0, offset: 0x567D0, size: 0x8, addend: 0x0, symName: __ZNSt3__117__compressed_pairImNS_4lessIiEEEC1B7v160006IiRKS2_EEOT_OT0_, symObjAddr: 0x1DD34, symBinAddr: 0x100021044, symSize: 0x3C }
  - { offsetInCU: 0x56828, offset: 0x56828, size: 0x8, addend: 0x0, symName: __ZNSt3__16__treeIiNS_4lessIiEENS_9allocatorIiEEE10__end_nodeB7v160006Ev, symObjAddr: 0x1DD70, symBinAddr: 0x100021080, symSize: 0x2C }
  - { offsetInCU: 0x5684E, offset: 0x5684E, size: 0x8, addend: 0x0, symName: __ZNSt3__16__treeIiNS_4lessIiEENS_9allocatorIiEEE12__begin_nodeB7v160006Ev, symObjAddr: 0x1DD9C, symBinAddr: 0x1000210AC, symSize: 0x14 }
  - { offsetInCU: 0x56874, offset: 0x56874, size: 0x8, addend: 0x0, symName: __ZNSt3__117__compressed_pairINS_15__tree_end_nodeIPNS_16__tree_node_baseIPvEEEENS_9allocatorINS_11__tree_nodeIiS3_EEEEEC2B7v160006ILb1EvEEv, symObjAddr: 0x1DDB0, symBinAddr: 0x1000210C0, symSize: 0x34 }
  - { offsetInCU: 0x568A9, offset: 0x568A9, size: 0x8, addend: 0x0, symName: __ZNSt3__122__compressed_pair_elemINS_15__tree_end_nodeIPNS_16__tree_node_baseIPvEEEELi0ELb0EEC2B7v160006ENS_16__value_init_tagE, symObjAddr: 0x1DDE4, symBinAddr: 0x1000210F4, symSize: 0x2C }
  - { offsetInCU: 0x568DD, offset: 0x568DD, size: 0x8, addend: 0x0, symName: __ZNSt3__122__compressed_pair_elemINS_9allocatorINS_11__tree_nodeIiPvEEEELi1ELb1EEC2B7v160006ENS_16__value_init_tagE, symObjAddr: 0x1DE10, symBinAddr: 0x100021120, symSize: 0x2C }
  - { offsetInCU: 0x56911, offset: 0x56911, size: 0x8, addend: 0x0, symName: __ZNSt3__115__tree_end_nodeIPNS_16__tree_node_baseIPvEEEC1B7v160006Ev, symObjAddr: 0x1DE3C, symBinAddr: 0x10002114C, symSize: 0x2C }
  - { offsetInCU: 0x5693B, offset: 0x5693B, size: 0x8, addend: 0x0, symName: __ZNSt3__115__tree_end_nodeIPNS_16__tree_node_baseIPvEEEC2B7v160006Ev, symObjAddr: 0x1DE68, symBinAddr: 0x100021178, symSize: 0x18 }
  - { offsetInCU: 0x56965, offset: 0x56965, size: 0x8, addend: 0x0, symName: __ZNSt3__19allocatorINS_11__tree_nodeIiPvEEEC2B7v160006Ev, symObjAddr: 0x1DE80, symBinAddr: 0x100021190, symSize: 0x2C }
  - { offsetInCU: 0x5698F, offset: 0x5698F, size: 0x8, addend: 0x0, symName: __ZNSt3__116__non_trivial_ifILb1ENS_9allocatorINS_11__tree_nodeIiPvEEEEEC2B7v160006Ev, symObjAddr: 0x1DEAC, symBinAddr: 0x1000211BC, symSize: 0x14 }
  - { offsetInCU: 0x569B9, offset: 0x569B9, size: 0x8, addend: 0x0, symName: __ZNSt3__117__compressed_pairImNS_4lessIiEEEC2B7v160006IiRKS2_EEOT_OT0_, symObjAddr: 0x1DEC0, symBinAddr: 0x1000211D0, symSize: 0x44 }
  - { offsetInCU: 0x56A11, offset: 0x56A11, size: 0x8, addend: 0x0, symName: __ZNSt3__122__compressed_pair_elemINS_4lessIiEELi1ELb1EEC2B7v160006IRKS2_vEEOT_, symObjAddr: 0x1DF04, symBinAddr: 0x100021214, symSize: 0x18 }
  - { offsetInCU: 0x56A53, offset: 0x56A53, size: 0x8, addend: 0x0, symName: __ZNSt3__114pointer_traitsIPNS_15__tree_end_nodeIPNS_16__tree_node_baseIPvEEEEE10pointer_toB7v160006ERS6_, symObjAddr: 0x1DF1C, symBinAddr: 0x10002122C, symSize: 0x14 }
  - { offsetInCU: 0x56A76, offset: 0x56A76, size: 0x8, addend: 0x0, symName: __ZNSt3__117__compressed_pairINS_15__tree_end_nodeIPNS_16__tree_node_baseIPvEEEENS_9allocatorINS_11__tree_nodeIiS3_EEEEE5firstB7v160006Ev, symObjAddr: 0x1DF30, symBinAddr: 0x100021240, symSize: 0x24 }
  - { offsetInCU: 0x56A9C, offset: 0x56A9C, size: 0x8, addend: 0x0, symName: __ZNSt3__122__compressed_pair_elemINS_15__tree_end_nodeIPNS_16__tree_node_baseIPvEEEELi0ELb0EE5__getB7v160006Ev, symObjAddr: 0x1DF54, symBinAddr: 0x100021264, symSize: 0x14 }
  - { offsetInCU: 0x56AC2, offset: 0x56AC2, size: 0x8, addend: 0x0, symName: __ZNSt3__13setIiNS_4lessIiEENS_9allocatorIiEEED2B7v160006Ev, symObjAddr: 0x1DF68, symBinAddr: 0x100021278, symSize: 0x2C }
  - { offsetInCU: 0x56AEC, offset: 0x56AEC, size: 0x8, addend: 0x0, symName: __ZNSt3__16__treeIiNS_4lessIiEENS_9allocatorIiEEED1Ev, symObjAddr: 0x1DF94, symBinAddr: 0x1000212A4, symSize: 0x2C }
  - { offsetInCU: 0x56B18, offset: 0x56B18, size: 0x8, addend: 0x0, symName: __ZNSt3__16__treeIiNS_4lessIiEENS_9allocatorIiEEED2Ev, symObjAddr: 0x1DFC0, symBinAddr: 0x1000212D0, symSize: 0x38 }
  - { offsetInCU: 0x56B44, offset: 0x56B44, size: 0x8, addend: 0x0, symName: __ZNSt3__16__treeIiNS_4lessIiEENS_9allocatorIiEEE7destroyEPNS_11__tree_nodeIiPvEE, symObjAddr: 0x1DFF8, symBinAddr: 0x100021308, symSize: 0xAC }
  - { offsetInCU: 0x56B90, offset: 0x56B90, size: 0x8, addend: 0x0, symName: __ZNKSt3__16__treeIiNS_4lessIiEENS_9allocatorIiEEE6__rootB7v160006Ev, symObjAddr: 0x1E0A4, symBinAddr: 0x1000213B4, symSize: 0x28 }
  - { offsetInCU: 0x56BB6, offset: 0x56BB6, size: 0x8, addend: 0x0, symName: __ZNSt3__16__treeIiNS_4lessIiEENS_9allocatorIiEEE12__node_allocB7v160006Ev, symObjAddr: 0x1E0CC, symBinAddr: 0x1000213DC, symSize: 0x28 }
  - { offsetInCU: 0x56BDC, offset: 0x56BDC, size: 0x8, addend: 0x0, symName: __ZNSt3__116allocator_traitsINS_9allocatorINS_11__tree_nodeIiPvEEEEE7destroyB7v160006IivvEEvRS5_PT_, symObjAddr: 0x1E0F4, symBinAddr: 0x100021404, symSize: 0x14 }
  - { offsetInCU: 0x56C17, offset: 0x56C17, size: 0x8, addend: 0x0, symName: __ZNSt3__122__tree_key_value_typesIiE9__get_ptrB7v160006ERi, symObjAddr: 0x1E108, symBinAddr: 0x100021418, symSize: 0x14 }
  - { offsetInCU: 0x56C3B, offset: 0x56C3B, size: 0x8, addend: 0x0, symName: __ZNSt3__116allocator_traitsINS_9allocatorINS_11__tree_nodeIiPvEEEEE10deallocateB7v160006ERS5_PS4_m, symObjAddr: 0x1E11C, symBinAddr: 0x10002142C, symSize: 0x34 }
  - { offsetInCU: 0x56C7D, offset: 0x56C7D, size: 0x8, addend: 0x0, symName: __ZNSt3__117__compressed_pairINS_15__tree_end_nodeIPNS_16__tree_node_baseIPvEEEENS_9allocatorINS_11__tree_nodeIiS3_EEEEE6secondB7v160006Ev, symObjAddr: 0x1E150, symBinAddr: 0x100021460, symSize: 0x24 }
  - { offsetInCU: 0x56CA3, offset: 0x56CA3, size: 0x8, addend: 0x0, symName: __ZNSt3__122__compressed_pair_elemINS_9allocatorINS_11__tree_nodeIiPvEEEELi1ELb1EE5__getB7v160006Ev, symObjAddr: 0x1E174, symBinAddr: 0x100021484, symSize: 0x14 }
  - { offsetInCU: 0x56CC9, offset: 0x56CC9, size: 0x8, addend: 0x0, symName: __ZNSt3__19allocatorINS_11__tree_nodeIiPvEEE10deallocateB7v160006EPS3_m, symObjAddr: 0x1E188, symBinAddr: 0x100021498, symSize: 0x40 }
  - { offsetInCU: 0x56D0B, offset: 0x56D0B, size: 0x8, addend: 0x0, symName: __ZNKSt3__16__treeIiNS_4lessIiEENS_9allocatorIiEEE10__end_nodeB7v160006Ev, symObjAddr: 0x1E1C8, symBinAddr: 0x1000214D8, symSize: 0x2C }
  - { offsetInCU: 0x56D31, offset: 0x56D31, size: 0x8, addend: 0x0, symName: __ZNKSt3__117__compressed_pairINS_15__tree_end_nodeIPNS_16__tree_node_baseIPvEEEENS_9allocatorINS_11__tree_nodeIiS3_EEEEE5firstB7v160006Ev, symObjAddr: 0x1E1F4, symBinAddr: 0x100021504, symSize: 0x24 }
  - { offsetInCU: 0x56D57, offset: 0x56D57, size: 0x8, addend: 0x0, symName: __ZNKSt3__122__compressed_pair_elemINS_15__tree_end_nodeIPNS_16__tree_node_baseIPvEEEELi0ELb0EE5__getB7v160006Ev, symObjAddr: 0x1E218, symBinAddr: 0x100021528, symSize: 0x14 }
  - { offsetInCU: 0x56D7D, offset: 0x56D7D, size: 0x8, addend: 0x0, symName: __ZNSt3__15dequeIiNS_9allocatorIiEEE9push_backERKi, symObjAddr: 0x1E22C, symBinAddr: 0x10002153C, symSize: 0xA0 }
  - { offsetInCU: 0x56DC3, offset: 0x56DC3, size: 0x8, addend: 0x0, symName: __ZNKSt3__15dequeIiNS_9allocatorIiEEE12__back_spareB7v160006Ev, symObjAddr: 0x1E2CC, symBinAddr: 0x1000215DC, symSize: 0x54 }
  - { offsetInCU: 0x56DE9, offset: 0x56DE9, size: 0x8, addend: 0x0, symName: __ZNSt3__15dequeIiNS_9allocatorIiEEE19__add_back_capacityEv, symObjAddr: 0x1E320, symBinAddr: 0x100021630, symSize: 0x314 }
  - { offsetInCU: 0x56E9E, offset: 0x56E9E, size: 0x8, addend: 0x0, symName: __ZNKSt3__15dequeIiNS_9allocatorIiEEE10__capacityB7v160006Ev, symObjAddr: 0x1E634, symBinAddr: 0x100021944, symSize: 0x60 }
  - { offsetInCU: 0x56EC4, offset: 0x56EC4, size: 0x8, addend: 0x0, symName: __ZNKSt3__15dequeIiNS_9allocatorIiEEE13__front_spareB7v160006Ev, symObjAddr: 0x1E694, symBinAddr: 0x1000219A4, symSize: 0x18 }
  - { offsetInCU: 0x56EEA, offset: 0x56EEA, size: 0x8, addend: 0x0, symName: __ZNSt3__114__split_bufferIPiNS_9allocatorIS1_EEE9push_backB7v160006ERKS1_, symObjAddr: 0x1E6AC, symBinAddr: 0x1000219BC, symSize: 0x260 }
  - { offsetInCU: 0x56F62, offset: 0x56F62, size: 0x8, addend: 0x0, symName: __ZNKSt3__114__split_bufferIPiNS_9allocatorIS1_EEE12__back_spareB7v160006Ev, symObjAddr: 0x1E90C, symBinAddr: 0x100021C1C, symSize: 0x40 }
  - { offsetInCU: 0x56F88, offset: 0x56F88, size: 0x8, addend: 0x0, symName: __ZNSt3__114__split_bufferIPiNS_9allocatorIS1_EEE9push_backEOS1_, symObjAddr: 0x1E94C, symBinAddr: 0x100021C5C, symSize: 0x260 }
  - { offsetInCU: 0x57000, offset: 0x57000, size: 0x8, addend: 0x0, symName: __ZNSt3__116allocator_traitsINS_9allocatorIiEEE8allocateB7v160006ERS2_m, symObjAddr: 0x1EBAC, symBinAddr: 0x100021EBC, symSize: 0x2C }
  - { offsetInCU: 0x57033, offset: 0x57033, size: 0x8, addend: 0x0, symName: __ZNSt3__114__split_bufferIPiNS_9allocatorIS1_EEE10push_frontEOS1_, symObjAddr: 0x1EBD8, symBinAddr: 0x100021EE8, symSize: 0x25C }
  - { offsetInCU: 0x570AB, offset: 0x570AB, size: 0x8, addend: 0x0, symName: __ZNSt3__114__split_bufferIPiRNS_9allocatorIS1_EEEC1EmmS4_, symObjAddr: 0x1EE34, symBinAddr: 0x100022144, symSize: 0x44 }
  - { offsetInCU: 0x57107, offset: 0x57107, size: 0x8, addend: 0x0, symName: __ZNSt3__122__allocator_destructorINS_9allocatorIiEEEC1B7v160006ERS2_m, symObjAddr: 0x1EE78, symBinAddr: 0x100022188, symSize: 0x3C }
  - { offsetInCU: 0x571C6, offset: 0x571C6, size: 0x8, addend: 0x0, symName: __ZNSt3__110unique_ptrIPiNS_22__allocator_destructorINS_9allocatorIiEEEEEC1B7v160006ILb1EvEES1_NS_16__dependent_typeINS_27__unique_ptr_deleter_sfinaeIS5_EEXT_EE20__good_rval_ref_typeE, symObjAddr: 0x1EEB4, symBinAddr: 0x1000221C4, symSize: 0x3C }
  - { offsetInCU: 0x57217, offset: 0x57217, size: 0x8, addend: 0x0, symName: __ZNSt3__114__split_bufferIPiRNS_9allocatorIS1_EEE9push_backEOS1_, symObjAddr: 0x1EEF0, symBinAddr: 0x100022200, symSize: 0x260 }
  - { offsetInCU: 0x5728F, offset: 0x5728F, size: 0x8, addend: 0x0, symName: __ZNKSt3__110unique_ptrIPiNS_22__allocator_destructorINS_9allocatorIiEEEEE3getB7v160006Ev, symObjAddr: 0x1F150, symBinAddr: 0x100022460, symSize: 0x28 }
  - { offsetInCU: 0x572B5, offset: 0x572B5, size: 0x8, addend: 0x0, symName: __ZNSt3__110unique_ptrIPiNS_22__allocator_destructorINS_9allocatorIiEEEEE7releaseB7v160006Ev, symObjAddr: 0x1F178, symBinAddr: 0x100022488, symSize: 0x44 }
  - { offsetInCU: 0x572EA, offset: 0x572EA, size: 0x8, addend: 0x0, symName: __ZNSt3__114__split_bufferIPiRNS_9allocatorIS1_EEE10push_frontERKS1_, symObjAddr: 0x1F1BC, symBinAddr: 0x1000224CC, symSize: 0x25C }
  - { offsetInCU: 0x57362, offset: 0x57362, size: 0x8, addend: 0x0, symName: __ZNSt3__114__split_bufferIPiNS_9allocatorIS1_EEE9__end_capB7v160006Ev, symObjAddr: 0x1F454, symBinAddr: 0x100022764, symSize: 0x28 }
  - { offsetInCU: 0x57388, offset: 0x57388, size: 0x8, addend: 0x0, symName: __ZNSt3__114__split_bufferIPiRNS_9allocatorIS1_EEE9__end_capB7v160006Ev, symObjAddr: 0x1F47C, symBinAddr: 0x10002278C, symSize: 0x28 }
  - { offsetInCU: 0x573AE, offset: 0x573AE, size: 0x8, addend: 0x0, symName: __ZNSt3__110unique_ptrIPiNS_22__allocator_destructorINS_9allocatorIiEEEEED1B7v160006Ev, symObjAddr: 0x1F4A4, symBinAddr: 0x1000227B4, symSize: 0x2C }
  - { offsetInCU: 0x573D8, offset: 0x573D8, size: 0x8, addend: 0x0, symName: __ZNSt3__114__split_bufferIPiRNS_9allocatorIS1_EEED1Ev, symObjAddr: 0x1F4D0, symBinAddr: 0x1000227E0, symSize: 0x2C }
  - { offsetInCU: 0x57404, offset: 0x57404, size: 0x8, addend: 0x0, symName: __ZNSt3__114__split_bufferIPiRNS_9allocatorIS1_EEE18__construct_at_endINS_13move_iteratorIPS1_EEEENS_9enable_ifIXsr27__is_cpp17_forward_iteratorIT_EE5valueEvE4typeESB_SB_, symObjAddr: 0x1F53C, symBinAddr: 0x10002284C, symSize: 0xFC }
  - { offsetInCU: 0x57460, offset: 0x57460, size: 0x8, addend: 0x0, symName: __ZNSt3__113move_iteratorIPPiEC1B7v160006ES2_, symObjAddr: 0x1F638, symBinAddr: 0x100022948, symSize: 0x34 }
  - { offsetInCU: 0x57498, offset: 0x57498, size: 0x8, addend: 0x0, symName: __ZNSt3__116allocator_traitsINS_9allocatorIPiEEE9constructB7v160006IS2_JRKS2_EvEEvRS3_PT_DpOT0_, symObjAddr: 0x1F66C, symBinAddr: 0x10002297C, symSize: 0x34 }
  - { offsetInCU: 0x57517, offset: 0x57517, size: 0x8, addend: 0x0, symName: __ZNKSt3__114__move_trivialclB7v160006IPiS2_Li0EEENS_4pairIPT_PT0_EES5_S5_S7_, symObjAddr: 0x1F83C, symBinAddr: 0x100022B4C, symSize: 0x48 }
  - { offsetInCU: 0x57585, offset: 0x57585, size: 0x8, addend: 0x0, symName: __ZNSt3__14pairIPPiS2_EC1B7v160006IRS2_S2_LPv0EEEOT_OT0_, symObjAddr: 0x1FA04, symBinAddr: 0x100022D14, symSize: 0x3C }
  - { offsetInCU: 0x575E3, offset: 0x575E3, size: 0x8, addend: 0x0, symName: __ZNSt3__14pairIPPiS2_EC2B7v160006IRS2_S2_LPv0EEEOT_OT0_, symObjAddr: 0x1FA40, symBinAddr: 0x100022D50, symSize: 0x34 }
  - { offsetInCU: 0x57641, offset: 0x57641, size: 0x8, addend: 0x0, symName: __ZNSt3__118__unwrap_iter_implIPPiLb1EE8__unwrapB7v160006ES2_, symObjAddr: 0x1FA74, symBinAddr: 0x100022D84, symSize: 0x24 }
  - { offsetInCU: 0x57664, offset: 0x57664, size: 0x8, addend: 0x0, symName: __ZNSt3__14pairIPPiS2_EC1B7v160006IS2_S2_LPv0EEEOT_OT0_, symObjAddr: 0x1FA98, symBinAddr: 0x100022DA8, symSize: 0x3C }
  - { offsetInCU: 0x576C2, offset: 0x576C2, size: 0x8, addend: 0x0, symName: __ZNSt3__14pairIPPiS2_EC2B7v160006IS2_S2_LPv0EEEOT_OT0_, symObjAddr: 0x1FAD4, symBinAddr: 0x100022DE4, symSize: 0x34 }
  - { offsetInCU: 0x57720, offset: 0x57720, size: 0x8, addend: 0x0, symName: __ZNSt3__118__unwrap_iter_implIPPiLb1EE8__rewrapB7v160006ES2_S2_, symObjAddr: 0x1FB08, symBinAddr: 0x100022E18, symSize: 0x50 }
  - { offsetInCU: 0x5775D, offset: 0x5775D, size: 0x8, addend: 0x0, symName: __ZNSt3__114__split_bufferIPiRNS_9allocatorIS1_EEE21_ConstructTransactionC1B7v160006EPPS1_m, symObjAddr: 0x1FB94, symBinAddr: 0x100022EA4, symSize: 0x3C }
  - { offsetInCU: 0x577A3, offset: 0x577A3, size: 0x8, addend: 0x0, symName: __ZNSt3__116allocator_traitsINS_9allocatorIPiEEE9constructB7v160006IS2_JS2_EvEEvRS3_PT_DpOT0_, symObjAddr: 0x1FBD0, symBinAddr: 0x100022EE0, symSize: 0x34 }
  - { offsetInCU: 0x577FA, offset: 0x577FA, size: 0x8, addend: 0x0, symName: __ZNSt3__114__split_bufferIPiRNS_9allocatorIS1_EEE7__allocB7v160006Ev, symObjAddr: 0x1FC04, symBinAddr: 0x100022F14, symSize: 0x28 }
  - { offsetInCU: 0x57820, offset: 0x57820, size: 0x8, addend: 0x0, symName: __ZNKSt3__113move_iteratorIPPiEdeB7v160006Ev, symObjAddr: 0x1FC2C, symBinAddr: 0x100022F3C, symSize: 0x18 }
  - { offsetInCU: 0x57846, offset: 0x57846, size: 0x8, addend: 0x0, symName: __ZNSt3__113move_iteratorIPPiEppB7v160006Ev, symObjAddr: 0x1FC44, symBinAddr: 0x100022F54, symSize: 0x20 }
  - { offsetInCU: 0x5786C, offset: 0x5786C, size: 0x8, addend: 0x0, symName: __ZNSt3__114__split_bufferIPiRNS_9allocatorIS1_EEE21_ConstructTransactionD1B7v160006Ev, symObjAddr: 0x1FC64, symBinAddr: 0x100022F74, symSize: 0x2C }
  - { offsetInCU: 0x57896, offset: 0x57896, size: 0x8, addend: 0x0, symName: __ZNKSt3__113move_iteratorIPPiE4baseB7v160006Ev, symObjAddr: 0x1FD08, symBinAddr: 0x100023018, symSize: 0x18 }
  - { offsetInCU: 0x578BC, offset: 0x578BC, size: 0x8, addend: 0x0, symName: __ZNSt3__114__split_bufferIPiRNS_9allocatorIS1_EEE21_ConstructTransactionC2B7v160006EPPS1_m, symObjAddr: 0x1FD20, symBinAddr: 0x100023030, symSize: 0x44 }
  - { offsetInCU: 0x57902, offset: 0x57902, size: 0x8, addend: 0x0, symName: __ZNSt3__19allocatorIPiE9constructB7v160006IS1_JS1_EEEvPT_DpOT0_, symObjAddr: 0x1FD64, symBinAddr: 0x100023074, symSize: 0x28 }
  - { offsetInCU: 0x57958, offset: 0x57958, size: 0x8, addend: 0x0, symName: __ZNSt3__117__compressed_pairIPPiRNS_9allocatorIS1_EEE6secondB7v160006Ev, symObjAddr: 0x1FD8C, symBinAddr: 0x10002309C, symSize: 0x28 }
  - { offsetInCU: 0x5797E, offset: 0x5797E, size: 0x8, addend: 0x0, symName: __ZNSt3__122__compressed_pair_elemIRNS_9allocatorIPiEELi1ELb0EE5__getB7v160006Ev, symObjAddr: 0x1FDB4, symBinAddr: 0x1000230C4, symSize: 0x18 }
  - { offsetInCU: 0x579A4, offset: 0x579A4, size: 0x8, addend: 0x0, symName: __ZNSt3__114__split_bufferIPiRNS_9allocatorIS1_EEE21_ConstructTransactionD2B7v160006Ev, symObjAddr: 0x1FDCC, symBinAddr: 0x1000230DC, symSize: 0x20 }
  - { offsetInCU: 0x579CE, offset: 0x579CE, size: 0x8, addend: 0x0, symName: __ZNSt3__113move_iteratorIPPiEC2B7v160006ES2_, symObjAddr: 0x1FDEC, symBinAddr: 0x1000230FC, symSize: 0x20 }
  - { offsetInCU: 0x57A06, offset: 0x57A06, size: 0x8, addend: 0x0, symName: __ZNSt3__19allocatorIPiE9constructB7v160006IS1_JRKS1_EEEvPT_DpOT0_, symObjAddr: 0x1FE0C, symBinAddr: 0x10002311C, symSize: 0x28 }
  - { offsetInCU: 0x57A67, offset: 0x57A67, size: 0x8, addend: 0x0, symName: __ZNKSt3__123__move_backward_trivialclB7v160006IPiS2_Li0EEENS_4pairIPT_PT0_EES5_S5_S7_, symObjAddr: 0x1FFB0, symBinAddr: 0x1000232C0, symSize: 0x48 }
  - { offsetInCU: 0x57ACF, offset: 0x57ACF, size: 0x8, addend: 0x0, symName: __ZNSt3__14pairIPPiS2_EC1B7v160006IRS2_S5_LPv0EEEOT_OT0_, symObjAddr: 0x200C4, symBinAddr: 0x1000233D4, symSize: 0x3C }
  - { offsetInCU: 0x57B2D, offset: 0x57B2D, size: 0x8, addend: 0x0, symName: __ZNSt3__14pairIPPiS2_EC2B7v160006IRS2_S5_LPv0EEEOT_OT0_, symObjAddr: 0x20100, symBinAddr: 0x100023410, symSize: 0x34 }
  - { offsetInCU: 0x57B8B, offset: 0x57B8B, size: 0x8, addend: 0x0, symName: __ZNSt3__114__split_bufferIPiRNS_9allocatorIS1_EEEC2EmmS4_, symObjAddr: 0x20134, symBinAddr: 0x100023444, symSize: 0xD4 }
  - { offsetInCU: 0x57BFE, offset: 0x57BFE, size: 0x8, addend: 0x0, symName: __ZNSt3__117__compressed_pairIPPiRNS_9allocatorIS1_EEEC1B7v160006IDnS5_EEOT_OT0_, symObjAddr: 0x20208, symBinAddr: 0x100023518, symSize: 0x3C }
  - { offsetInCU: 0x57C56, offset: 0x57C56, size: 0x8, addend: 0x0, symName: __ZNSt3__117__compressed_pairIPPiRNS_9allocatorIS1_EEEC2B7v160006IDnS5_EEOT_OT0_, symObjAddr: 0x20284, symBinAddr: 0x100023594, symSize: 0x48 }
  - { offsetInCU: 0x57CAE, offset: 0x57CAE, size: 0x8, addend: 0x0, symName: __ZNSt3__122__compressed_pair_elemIRNS_9allocatorIPiEELi1ELb0EEC2B7v160006IS4_vEEOT_, symObjAddr: 0x202CC, symBinAddr: 0x1000235DC, symSize: 0x20 }
  - { offsetInCU: 0x57CF0, offset: 0x57CF0, size: 0x8, addend: 0x0, symName: __ZNSt3__19allocatorIPiE8allocateB7v160006Em, symObjAddr: 0x202EC, symBinAddr: 0x1000235FC, symSize: 0x58 }
  - { offsetInCU: 0x57D2F, offset: 0x57D2F, size: 0x8, addend: 0x0, symName: __ZNSt3__116allocator_traitsINS_9allocatorIPiEEE8max_sizeB7v160006IS3_vEEmRKS3_, symObjAddr: 0x20344, symBinAddr: 0x100023654, symSize: 0x24 }
  - { offsetInCU: 0x57D5D, offset: 0x57D5D, size: 0x8, addend: 0x0, symName: __ZNKSt3__19allocatorIPiE8max_sizeB7v160006Ev, symObjAddr: 0x20368, symBinAddr: 0x100023678, symSize: 0x14 }
  - { offsetInCU: 0x57D83, offset: 0x57D83, size: 0x8, addend: 0x0, symName: __ZNSt3__122__allocator_destructorINS_9allocatorIiEEEC2B7v160006ERS2_m, symObjAddr: 0x2037C, symBinAddr: 0x10002368C, symSize: 0x2C }
  - { offsetInCU: 0x57DC9, offset: 0x57DC9, size: 0x8, addend: 0x0, symName: __ZNSt3__110unique_ptrIPiNS_22__allocator_destructorINS_9allocatorIiEEEEEC2B7v160006ILb1EvEES1_NS_16__dependent_typeINS_27__unique_ptr_deleter_sfinaeIS5_EEXT_EE20__good_rval_ref_typeE, symObjAddr: 0x203A8, symBinAddr: 0x1000236B8, symSize: 0x48 }
  - { offsetInCU: 0x57E1A, offset: 0x57E1A, size: 0x8, addend: 0x0, symName: __ZNSt3__117__compressed_pairIPiNS_22__allocator_destructorINS_9allocatorIiEEEEEC1B7v160006IRS1_S5_EEOT_OT0_, symObjAddr: 0x203F0, symBinAddr: 0x100023700, symSize: 0x3C }
  - { offsetInCU: 0x57E72, offset: 0x57E72, size: 0x8, addend: 0x0, symName: __ZNSt3__117__compressed_pairIPiNS_22__allocator_destructorINS_9allocatorIiEEEEEC2B7v160006IRS1_S5_EEOT_OT0_, symObjAddr: 0x2042C, symBinAddr: 0x10002373C, symSize: 0x48 }
  - { offsetInCU: 0x57ECA, offset: 0x57ECA, size: 0x8, addend: 0x0, symName: __ZNSt3__122__compressed_pair_elemIPiLi0ELb0EEC2B7v160006IRS1_vEEOT_, symObjAddr: 0x20474, symBinAddr: 0x100023784, symSize: 0x24 }
  - { offsetInCU: 0x57F0C, offset: 0x57F0C, size: 0x8, addend: 0x0, symName: __ZNSt3__122__compressed_pair_elemINS_22__allocator_destructorINS_9allocatorIiEEEELi1ELb0EEC2B7v160006IS4_vEEOT_, symObjAddr: 0x20498, symBinAddr: 0x1000237A8, symSize: 0x24 }
  - { offsetInCU: 0x57F4E, offset: 0x57F4E, size: 0x8, addend: 0x0, symName: __ZNKSt3__117__compressed_pairIPiNS_22__allocator_destructorINS_9allocatorIiEEEEE5firstB7v160006Ev, symObjAddr: 0x204BC, symBinAddr: 0x1000237CC, symSize: 0x24 }
  - { offsetInCU: 0x57F74, offset: 0x57F74, size: 0x8, addend: 0x0, symName: __ZNSt3__117__compressed_pairIPiNS_22__allocator_destructorINS_9allocatorIiEEEEE5firstB7v160006Ev, symObjAddr: 0x204E0, symBinAddr: 0x1000237F0, symSize: 0x24 }
  - { offsetInCU: 0x57F9A, offset: 0x57F9A, size: 0x8, addend: 0x0, symName: __ZNSt3__117__compressed_pairIPPiNS_9allocatorIS1_EEE5firstB7v160006Ev, symObjAddr: 0x20504, symBinAddr: 0x100023814, symSize: 0x24 }
  - { offsetInCU: 0x57FC0, offset: 0x57FC0, size: 0x8, addend: 0x0, symName: __ZNSt3__122__compressed_pair_elemIPPiLi0ELb0EE5__getB7v160006Ev, symObjAddr: 0x20528, symBinAddr: 0x100023838, symSize: 0x14 }
  - { offsetInCU: 0x57FE6, offset: 0x57FE6, size: 0x8, addend: 0x0, symName: __ZNSt3__117__compressed_pairIPPiRNS_9allocatorIS1_EEE5firstB7v160006Ev, symObjAddr: 0x2053C, symBinAddr: 0x10002384C, symSize: 0x24 }
  - { offsetInCU: 0x5800C, offset: 0x5800C, size: 0x8, addend: 0x0, symName: __ZNSt3__110unique_ptrIPiNS_22__allocator_destructorINS_9allocatorIiEEEEED2B7v160006Ev, symObjAddr: 0x20560, symBinAddr: 0x100023870, symSize: 0x30 }
  - { offsetInCU: 0x58036, offset: 0x58036, size: 0x8, addend: 0x0, symName: __ZNSt3__110unique_ptrIPiNS_22__allocator_destructorINS_9allocatorIiEEEEE5resetB7v160006ES1_, symObjAddr: 0x20590, symBinAddr: 0x1000238A0, symSize: 0x78 }
  - { offsetInCU: 0x5807A, offset: 0x5807A, size: 0x8, addend: 0x0, symName: __ZNSt3__117__compressed_pairIPiNS_22__allocator_destructorINS_9allocatorIiEEEEE6secondB7v160006Ev, symObjAddr: 0x20608, symBinAddr: 0x100023918, symSize: 0x28 }
  - { offsetInCU: 0x580A0, offset: 0x580A0, size: 0x8, addend: 0x0, symName: __ZNSt3__122__allocator_destructorINS_9allocatorIiEEEclB7v160006EPi, symObjAddr: 0x20630, symBinAddr: 0x100023940, symSize: 0x34 }
  - { offsetInCU: 0x580D4, offset: 0x580D4, size: 0x8, addend: 0x0, symName: __ZNSt3__122__compressed_pair_elemINS_22__allocator_destructorINS_9allocatorIiEEEELi1ELb0EE5__getB7v160006Ev, symObjAddr: 0x20664, symBinAddr: 0x100023974, symSize: 0x14 }
  - { offsetInCU: 0x580FA, offset: 0x580FA, size: 0x8, addend: 0x0, symName: __ZNSt3__114__split_bufferIPiRNS_9allocatorIS1_EEED2Ev, symObjAddr: 0x20678, symBinAddr: 0x100023988, symSize: 0x8C }
  - { offsetInCU: 0x58126, offset: 0x58126, size: 0x8, addend: 0x0, symName: __ZNSt3__114__split_bufferIPiRNS_9allocatorIS1_EEE5clearB7v160006Ev, symObjAddr: 0x20704, symBinAddr: 0x100023A14, symSize: 0x28 }
  - { offsetInCU: 0x5814C, offset: 0x5814C, size: 0x8, addend: 0x0, symName: __ZNKSt3__114__split_bufferIPiRNS_9allocatorIS1_EEE8capacityB7v160006Ev, symObjAddr: 0x2072C, symBinAddr: 0x100023A3C, symSize: 0x40 }
  - { offsetInCU: 0x58172, offset: 0x58172, size: 0x8, addend: 0x0, symName: __ZNSt3__114__split_bufferIPiRNS_9allocatorIS1_EEE17__destruct_at_endB7v160006EPS1_, symObjAddr: 0x2076C, symBinAddr: 0x100023A7C, symSize: 0x2C }
  - { offsetInCU: 0x581A6, offset: 0x581A6, size: 0x8, addend: 0x0, symName: __ZNSt3__114__split_bufferIPiRNS_9allocatorIS1_EEE17__destruct_at_endB7v160006EPS1_NS_17integral_constantIbLb0EEE, symObjAddr: 0x20798, symBinAddr: 0x100023AA8, symSize: 0x80 }
  - { offsetInCU: 0x581E6, offset: 0x581E6, size: 0x8, addend: 0x0, symName: __ZNKSt3__114__split_bufferIPiRNS_9allocatorIS1_EEE9__end_capB7v160006Ev, symObjAddr: 0x20818, symBinAddr: 0x100023B28, symSize: 0x28 }
  - { offsetInCU: 0x5820C, offset: 0x5820C, size: 0x8, addend: 0x0, symName: __ZNKSt3__117__compressed_pairIPPiRNS_9allocatorIS1_EEE5firstB7v160006Ev, symObjAddr: 0x20840, symBinAddr: 0x100023B50, symSize: 0x24 }
  - { offsetInCU: 0x58232, offset: 0x58232, size: 0x8, addend: 0x0, symName: __ZNKSt3__15dequeIiNS_9allocatorIiEEE5emptyB7v160006Ev, symObjAddr: 0x20864, symBinAddr: 0x100023B74, symSize: 0x30 }
  - { offsetInCU: 0x58258, offset: 0x58258, size: 0x8, addend: 0x0, symName: __ZNSt3__15dequeIiNS_9allocatorIiEEE4backEv, symObjAddr: 0x20894, symBinAddr: 0x100023BA4, symSize: 0x68 }
  - { offsetInCU: 0x5828F, offset: 0x5828F, size: 0x8, addend: 0x0, symName: __ZNSt3__15dequeIiNS_9allocatorIiEEE8pop_backEv, symObjAddr: 0x208FC, symBinAddr: 0x100023C0C, symSize: 0xB8 }
  - { offsetInCU: 0x582D5, offset: 0x582D5, size: 0x8, addend: 0x0, symName: __ZNSt3__15dequeIiNS_9allocatorIiEEE25__maybe_remove_back_spareB7v160006Eb, symObjAddr: 0x209B4, symBinAddr: 0x100023CC4, symSize: 0xCC }
  - { offsetInCU: 0x5830A, offset: 0x5830A, size: 0x8, addend: 0x0, symName: __ZNKSt3__15dequeIiNS_9allocatorIiEEE19__back_spare_blocksB7v160006Ev, symObjAddr: 0x20A80, symBinAddr: 0x100023D90, symSize: 0x2C }
  - { offsetInCU: 0x58330, offset: 0x58330, size: 0x8, addend: 0x0, symName: __ZNSt3__114__split_bufferIPiNS_9allocatorIS1_EEE4backB7v160006Ev, symObjAddr: 0x20AAC, symBinAddr: 0x100023DBC, symSize: 0x1C }
  - { offsetInCU: 0x58356, offset: 0x58356, size: 0x8, addend: 0x0, symName: __ZNSt3__114__split_bufferIPiNS_9allocatorIS1_EEE8pop_backB7v160006Ev, symObjAddr: 0x20AC8, symBinAddr: 0x100023DD8, symSize: 0x2C }
  - { offsetInCU: 0x5837C, offset: 0x5837C, size: 0x8, addend: 0x0, symName: __ZNKSt3__16__treeIiNS_4lessIiEENS_9allocatorIiEEE14__count_uniqueIiEEmRKT_, symObjAddr: 0x20AF4, symBinAddr: 0x100023E04, symSize: 0xC8 }
  - { offsetInCU: 0x583CB, offset: 0x583CB, size: 0x8, addend: 0x0, symName: __ZNKSt3__16__treeIiNS_4lessIiEENS_9allocatorIiEEE10value_compB7v160006Ev, symObjAddr: 0x20BBC, symBinAddr: 0x100023ECC, symSize: 0x28 }
  - { offsetInCU: 0x583F1, offset: 0x583F1, size: 0x8, addend: 0x0, symName: __ZNKSt3__14lessIiEclB7v160006ERKiS3_, symObjAddr: 0x20BE4, symBinAddr: 0x100023EF4, symSize: 0x34 }
  - { offsetInCU: 0x58435, offset: 0x58435, size: 0x8, addend: 0x0, symName: __ZNKSt3__117__compressed_pairImNS_4lessIiEEE6secondB7v160006Ev, symObjAddr: 0x20C18, symBinAddr: 0x100023F28, symSize: 0x24 }
  - { offsetInCU: 0x5845B, offset: 0x5845B, size: 0x8, addend: 0x0, symName: __ZNKSt3__122__compressed_pair_elemINS_4lessIiEELi1ELb1EE5__getB7v160006Ev, symObjAddr: 0x20C3C, symBinAddr: 0x100023F4C, symSize: 0x14 }
  - { offsetInCU: 0x58481, offset: 0x58481, size: 0x8, addend: 0x0, symName: __ZNSt3__16__treeIiNS_4lessIiEENS_9allocatorIiEEE15__insert_uniqueB7v160006ERKi, symObjAddr: 0x20C50, symBinAddr: 0x100023F60, symSize: 0x50 }
  - { offsetInCU: 0x584B6, offset: 0x584B6, size: 0x8, addend: 0x0, symName: __ZNSt3__14pairINS_21__tree_const_iteratorIiPNS_11__tree_nodeIiPvEElEEbEC1B7v160006INS_15__tree_iteratorIiS5_lEEbLS3_0EEEONS0_IT_T0_EE, symObjAddr: 0x20CA0, symBinAddr: 0x100023FB0, symSize: 0x34 }
  - { offsetInCU: 0x58507, offset: 0x58507, size: 0x8, addend: 0x0, symName: __ZNSt3__16__treeIiNS_4lessIiEENS_9allocatorIiEEE25__emplace_unique_key_argsIiJRKiEEENS_4pairINS_15__tree_iteratorIiPNS_11__tree_nodeIiPvEElEEbEERKT_DpOT0_, symObjAddr: 0x20CD4, symBinAddr: 0x100023FE4, symSize: 0xF0 }
  - { offsetInCU: 0x585B3, offset: 0x585B3, size: 0x8, addend: 0x0, symName: __ZNSt3__122__tree_key_value_typesIiE9__get_keyB7v160006ERKi, symObjAddr: 0x20DC4, symBinAddr: 0x1000240D4, symSize: 0x14 }
  - { offsetInCU: 0x585D7, offset: 0x585D7, size: 0x8, addend: 0x0, symName: __ZNSt3__16__treeIiNS_4lessIiEENS_9allocatorIiEEE12__find_equalIiEERPNS_16__tree_node_baseIPvEERPNS_15__tree_end_nodeISA_EERKT_, symObjAddr: 0x20DD8, symBinAddr: 0x1000240E8, symSize: 0x184 }
  - { offsetInCU: 0x58644, offset: 0x58644, size: 0x8, addend: 0x0, symName: __ZNSt3__16__treeIiNS_4lessIiEENS_9allocatorIiEEE16__construct_nodeIJRKiEEENS_10unique_ptrINS_11__tree_nodeIiPvEENS_22__tree_node_destructorINS3_ISC_EEEEEEDpOT_, symObjAddr: 0x20F5C, symBinAddr: 0x10002426C, symSize: 0x108 }
  - { offsetInCU: 0x586A5, offset: 0x586A5, size: 0x8, addend: 0x0, symName: __ZNSt3__16__treeIiNS_4lessIiEENS_9allocatorIiEEE16__insert_node_atEPNS_15__tree_end_nodeIPNS_16__tree_node_baseIPvEEEERSA_SA_, symObjAddr: 0x21064, symBinAddr: 0x100024374, symSize: 0xCC }
  - { offsetInCU: 0x586FA, offset: 0x586FA, size: 0x8, addend: 0x0, symName: __ZNKSt3__110unique_ptrINS_11__tree_nodeIiPvEENS_22__tree_node_destructorINS_9allocatorIS3_EEEEE3getB7v160006Ev, symObjAddr: 0x21130, symBinAddr: 0x100024440, symSize: 0x28 }
  - { offsetInCU: 0x58720, offset: 0x58720, size: 0x8, addend: 0x0, symName: __ZNSt3__110unique_ptrINS_11__tree_nodeIiPvEENS_22__tree_node_destructorINS_9allocatorIS3_EEEEE7releaseB7v160006Ev, symObjAddr: 0x21158, symBinAddr: 0x100024468, symSize: 0x44 }
  - { offsetInCU: 0x58755, offset: 0x58755, size: 0x8, addend: 0x0, symName: __ZNSt3__110unique_ptrINS_11__tree_nodeIiPvEENS_22__tree_node_destructorINS_9allocatorIS3_EEEEED1B7v160006Ev, symObjAddr: 0x2119C, symBinAddr: 0x1000244AC, symSize: 0x2C }
  - { offsetInCU: 0x5877F, offset: 0x5877F, size: 0x8, addend: 0x0, symName: __ZNSt3__115__tree_iteratorIiPNS_11__tree_nodeIiPvEElEC1B7v160006ES4_, symObjAddr: 0x211C8, symBinAddr: 0x1000244D8, symSize: 0x34 }
  - { offsetInCU: 0x587BE, offset: 0x587BE, size: 0x8, addend: 0x0, symName: __ZNSt3__14pairINS_15__tree_iteratorIiPNS_11__tree_nodeIiPvEElEEbEC1B7v160006IS6_RbLS3_0EEEOT_OT0_, symObjAddr: 0x211FC, symBinAddr: 0x10002450C, symSize: 0x3C }
  - { offsetInCU: 0x5881C, offset: 0x5881C, size: 0x8, addend: 0x0, symName: __ZNKSt3__16__treeIiNS_4lessIiEENS_9allocatorIiEEE10__root_ptrEv, symObjAddr: 0x21238, symBinAddr: 0x100024548, symSize: 0x24 }
  - { offsetInCU: 0x58842, offset: 0x58842, size: 0x8, addend: 0x0, symName: __ZNSt3__16__treeIiNS_4lessIiEENS_9allocatorIiEEE10value_compB7v160006Ev, symObjAddr: 0x2125C, symBinAddr: 0x10002456C, symSize: 0x28 }
  - { offsetInCU: 0x58868, offset: 0x58868, size: 0x8, addend: 0x0, symName: __ZNSt3__117__compressed_pairImNS_4lessIiEEE6secondB7v160006Ev, symObjAddr: 0x21284, symBinAddr: 0x100024594, symSize: 0x24 }
  - { offsetInCU: 0x5888E, offset: 0x5888E, size: 0x8, addend: 0x0, symName: __ZNSt3__122__compressed_pair_elemINS_4lessIiEELi1ELb1EE5__getB7v160006Ev, symObjAddr: 0x212A8, symBinAddr: 0x1000245B8, symSize: 0x14 }
  - { offsetInCU: 0x588B4, offset: 0x588B4, size: 0x8, addend: 0x0, symName: __ZNSt3__116allocator_traitsINS_9allocatorINS_11__tree_nodeIiPvEEEEE8allocateB7v160006ERS5_m, symObjAddr: 0x212BC, symBinAddr: 0x1000245CC, symSize: 0x2C }
  - { offsetInCU: 0x588E7, offset: 0x588E7, size: 0x8, addend: 0x0, symName: __ZNSt3__122__tree_node_destructorINS_9allocatorINS_11__tree_nodeIiPvEEEEEC1B7v160006ERS5_b, symObjAddr: 0x212E8, symBinAddr: 0x1000245F8, symSize: 0x48 }
  - { offsetInCU: 0x58935, offset: 0x58935, size: 0x8, addend: 0x0, symName: __ZNSt3__110unique_ptrINS_11__tree_nodeIiPvEENS_22__tree_node_destructorINS_9allocatorIS3_EEEEEC1B7v160006ILb1EvEEPS3_NS_16__dependent_typeINS_27__unique_ptr_deleter_sfinaeIS7_EEXT_EE20__good_rval_ref_typeE, symObjAddr: 0x21330, symBinAddr: 0x100024640, symSize: 0x3C }
  - { offsetInCU: 0x58986, offset: 0x58986, size: 0x8, addend: 0x0, symName: __ZNSt3__116allocator_traitsINS_9allocatorINS_11__tree_nodeIiPvEEEEE9constructB7v160006IiJRKiEvEEvRS5_PT_DpOT0_, symObjAddr: 0x2136C, symBinAddr: 0x10002467C, symSize: 0x34 }
  - { offsetInCU: 0x589DD, offset: 0x589DD, size: 0x8, addend: 0x0, symName: __ZNKSt3__110unique_ptrINS_11__tree_nodeIiPvEENS_22__tree_node_destructorINS_9allocatorIS3_EEEEEptB7v160006Ev, symObjAddr: 0x213A0, symBinAddr: 0x1000246B0, symSize: 0x28 }
  - { offsetInCU: 0x58A03, offset: 0x58A03, size: 0x8, addend: 0x0, symName: __ZNSt3__110unique_ptrINS_11__tree_nodeIiPvEENS_22__tree_node_destructorINS_9allocatorIS3_EEEEE11get_deleterB7v160006Ev, symObjAddr: 0x213C8, symBinAddr: 0x1000246D8, symSize: 0x24 }
  - { offsetInCU: 0x58A29, offset: 0x58A29, size: 0x8, addend: 0x0, symName: __ZNSt3__19allocatorINS_11__tree_nodeIiPvEEE8allocateB7v160006Em, symObjAddr: 0x213EC, symBinAddr: 0x1000246FC, symSize: 0x58 }
  - { offsetInCU: 0x58A68, offset: 0x58A68, size: 0x8, addend: 0x0, symName: __ZNSt3__116allocator_traitsINS_9allocatorINS_11__tree_nodeIiPvEEEEE8max_sizeB7v160006IS5_vEEmRKS5_, symObjAddr: 0x21444, symBinAddr: 0x100024754, symSize: 0x24 }
  - { offsetInCU: 0x58A96, offset: 0x58A96, size: 0x8, addend: 0x0, symName: __ZNKSt3__19allocatorINS_11__tree_nodeIiPvEEE8max_sizeB7v160006Ev, symObjAddr: 0x21468, symBinAddr: 0x100024778, symSize: 0x14 }
  - { offsetInCU: 0x58ABC, offset: 0x58ABC, size: 0x8, addend: 0x0, symName: __ZNSt3__122__tree_node_destructorINS_9allocatorINS_11__tree_nodeIiPvEEEEEC2B7v160006ERS5_b, symObjAddr: 0x2147C, symBinAddr: 0x10002478C, symSize: 0x38 }
  - { offsetInCU: 0x58B04, offset: 0x58B04, size: 0x8, addend: 0x0, symName: __ZNSt3__110unique_ptrINS_11__tree_nodeIiPvEENS_22__tree_node_destructorINS_9allocatorIS3_EEEEEC2B7v160006ILb1EvEEPS3_NS_16__dependent_typeINS_27__unique_ptr_deleter_sfinaeIS7_EEXT_EE20__good_rval_ref_typeE, symObjAddr: 0x214B4, symBinAddr: 0x1000247C4, symSize: 0x48 }
  - { offsetInCU: 0x58B55, offset: 0x58B55, size: 0x8, addend: 0x0, symName: __ZNSt3__117__compressed_pairIPNS_11__tree_nodeIiPvEENS_22__tree_node_destructorINS_9allocatorIS3_EEEEEC1B7v160006IRS4_S8_EEOT_OT0_, symObjAddr: 0x214FC, symBinAddr: 0x10002480C, symSize: 0x3C }
  - { offsetInCU: 0x58BAD, offset: 0x58BAD, size: 0x8, addend: 0x0, symName: __ZNSt3__117__compressed_pairIPNS_11__tree_nodeIiPvEENS_22__tree_node_destructorINS_9allocatorIS3_EEEEEC2B7v160006IRS4_S8_EEOT_OT0_, symObjAddr: 0x21538, symBinAddr: 0x100024848, symSize: 0x48 }
  - { offsetInCU: 0x58C05, offset: 0x58C05, size: 0x8, addend: 0x0, symName: __ZNSt3__122__compressed_pair_elemIPNS_11__tree_nodeIiPvEELi0ELb0EEC2B7v160006IRS4_vEEOT_, symObjAddr: 0x21580, symBinAddr: 0x100024890, symSize: 0x24 }
  - { offsetInCU: 0x58C47, offset: 0x58C47, size: 0x8, addend: 0x0, symName: __ZNSt3__122__compressed_pair_elemINS_22__tree_node_destructorINS_9allocatorINS_11__tree_nodeIiPvEEEEEELi1ELb0EEC2B7v160006IS7_vEEOT_, symObjAddr: 0x215A4, symBinAddr: 0x1000248B4, symSize: 0x24 }
  - { offsetInCU: 0x58C89, offset: 0x58C89, size: 0x8, addend: 0x0, symName: __ZNSt3__19allocatorINS_11__tree_nodeIiPvEEE9constructB7v160006IiJRKiEEEvPT_DpOT0_, symObjAddr: 0x215C8, symBinAddr: 0x1000248D8, symSize: 0x28 }
  - { offsetInCU: 0x58CDF, offset: 0x58CDF, size: 0x8, addend: 0x0, symName: __ZNKSt3__117__compressed_pairIPNS_11__tree_nodeIiPvEENS_22__tree_node_destructorINS_9allocatorIS3_EEEEE5firstB7v160006Ev, symObjAddr: 0x215F0, symBinAddr: 0x100024900, symSize: 0x24 }
  - { offsetInCU: 0x58D05, offset: 0x58D05, size: 0x8, addend: 0x0, symName: __ZNKSt3__122__compressed_pair_elemIPNS_11__tree_nodeIiPvEELi0ELb0EE5__getB7v160006Ev, symObjAddr: 0x21614, symBinAddr: 0x100024924, symSize: 0x14 }
  - { offsetInCU: 0x58D2B, offset: 0x58D2B, size: 0x8, addend: 0x0, symName: __ZNSt3__117__compressed_pairIPNS_11__tree_nodeIiPvEENS_22__tree_node_destructorINS_9allocatorIS3_EEEEE6secondB7v160006Ev, symObjAddr: 0x21628, symBinAddr: 0x100024938, symSize: 0x28 }
  - { offsetInCU: 0x58D51, offset: 0x58D51, size: 0x8, addend: 0x0, symName: __ZNSt3__122__compressed_pair_elemINS_22__tree_node_destructorINS_9allocatorINS_11__tree_nodeIiPvEEEEEELi1ELb0EE5__getB7v160006Ev, symObjAddr: 0x21650, symBinAddr: 0x100024960, symSize: 0x14 }
  - { offsetInCU: 0x58D77, offset: 0x58D77, size: 0x8, addend: 0x0, symName: __ZNSt3__16__treeIiNS_4lessIiEENS_9allocatorIiEEE4sizeB7v160006Ev, symObjAddr: 0x21990, symBinAddr: 0x100024CA0, symSize: 0x28 }
  - { offsetInCU: 0x58D9D, offset: 0x58D9D, size: 0x8, addend: 0x0, symName: __ZNKSt3__116__tree_node_baseIPvE15__parent_unsafeB7v160006Ev, symObjAddr: 0x219B8, symBinAddr: 0x100024CC8, symSize: 0x18 }
  - { offsetInCU: 0x58DC3, offset: 0x58DC3, size: 0x8, addend: 0x0, symName: __ZNSt3__116__tree_node_baseIPvE12__set_parentB7v160006EPS2_, symObjAddr: 0x21BA0, symBinAddr: 0x100024EB0, symSize: 0x20 }
  - { offsetInCU: 0x58DF8, offset: 0x58DF8, size: 0x8, addend: 0x0, symName: __ZNSt3__117__compressed_pairImNS_4lessIiEEE5firstB7v160006Ev, symObjAddr: 0x21BC0, symBinAddr: 0x100024ED0, symSize: 0x24 }
  - { offsetInCU: 0x58E1E, offset: 0x58E1E, size: 0x8, addend: 0x0, symName: __ZNSt3__117__compressed_pairIPNS_11__tree_nodeIiPvEENS_22__tree_node_destructorINS_9allocatorIS3_EEEEE5firstB7v160006Ev, symObjAddr: 0x21BE4, symBinAddr: 0x100024EF4, symSize: 0x24 }
  - { offsetInCU: 0x58E44, offset: 0x58E44, size: 0x8, addend: 0x0, symName: __ZNSt3__122__compressed_pair_elemIPNS_11__tree_nodeIiPvEELi0ELb0EE5__getB7v160006Ev, symObjAddr: 0x21C08, symBinAddr: 0x100024F18, symSize: 0x14 }
  - { offsetInCU: 0x58E6A, offset: 0x58E6A, size: 0x8, addend: 0x0, symName: __ZNSt3__110unique_ptrINS_11__tree_nodeIiPvEENS_22__tree_node_destructorINS_9allocatorIS3_EEEEED2B7v160006Ev, symObjAddr: 0x21C1C, symBinAddr: 0x100024F2C, symSize: 0x30 }
  - { offsetInCU: 0x58E94, offset: 0x58E94, size: 0x8, addend: 0x0, symName: __ZNSt3__110unique_ptrINS_11__tree_nodeIiPvEENS_22__tree_node_destructorINS_9allocatorIS3_EEEEE5resetB7v160006EPS3_, symObjAddr: 0x21C4C, symBinAddr: 0x100024F5C, symSize: 0x78 }
  - { offsetInCU: 0x58ED8, offset: 0x58ED8, size: 0x8, addend: 0x0, symName: __ZNSt3__122__tree_node_destructorINS_9allocatorINS_11__tree_nodeIiPvEEEEEclB7v160006EPS4_, symObjAddr: 0x21CC4, symBinAddr: 0x100024FD4, symSize: 0x88 }
  - { offsetInCU: 0x58F0D, offset: 0x58F0D, size: 0x8, addend: 0x0, symName: __ZNSt3__115__tree_iteratorIiPNS_11__tree_nodeIiPvEElEC2B7v160006ES4_, symObjAddr: 0x21D4C, symBinAddr: 0x10002505C, symSize: 0x20 }
  - { offsetInCU: 0x58F46, offset: 0x58F46, size: 0x8, addend: 0x0, symName: __ZNSt3__14pairINS_15__tree_iteratorIiPNS_11__tree_nodeIiPvEElEEbEC2B7v160006IS6_RbLS3_0EEEOT_OT0_, symObjAddr: 0x21D6C, symBinAddr: 0x10002507C, symSize: 0x38 }
  - { offsetInCU: 0x58FA4, offset: 0x58FA4, size: 0x8, addend: 0x0, symName: __ZNSt3__14pairINS_21__tree_const_iteratorIiPNS_11__tree_nodeIiPvEElEEbEC2B7v160006INS_15__tree_iteratorIiS5_lEEbLS3_0EEEONS0_IT_T0_EE, symObjAddr: 0x21DA4, symBinAddr: 0x1000250B4, symSize: 0x50 }
  - { offsetInCU: 0x58FF5, offset: 0x58FF5, size: 0x8, addend: 0x0, symName: __ZNSt3__121__tree_const_iteratorIiPNS_11__tree_nodeIiPvEElEC1B7v160006ENS_15__tree_iteratorIiS4_lEE, symObjAddr: 0x21DF4, symBinAddr: 0x100025104, symSize: 0x34 }
  - { offsetInCU: 0x5902E, offset: 0x5902E, size: 0x8, addend: 0x0, symName: __ZNSt3__121__tree_const_iteratorIiPNS_11__tree_nodeIiPvEElEC2B7v160006ENS_15__tree_iteratorIiS4_lEE, symObjAddr: 0x21E28, symBinAddr: 0x100025138, symSize: 0x20 }
  - { offsetInCU: 0x59067, offset: 0x59067, size: 0x8, addend: 0x0, symName: __ZNSt3__16vectorINS0_IiNS_9allocatorIiEEEENS1_IS3_EEE11__make_iterB7v160006EPS3_, symObjAddr: 0x21E48, symBinAddr: 0x100025158, symSize: 0x34 }
  - { offsetInCU: 0x5909C, offset: 0x5909C, size: 0x8, addend: 0x0, symName: __ZNSt3__111__wrap_iterIPNS_6vectorIiNS_9allocatorIiEEEEEC1B7v160006EPKvS5_, symObjAddr: 0x21E7C, symBinAddr: 0x10002518C, symSize: 0x3C }
  - { offsetInCU: 0x590E2, offset: 0x590E2, size: 0x8, addend: 0x0, symName: __ZNSt3__111__wrap_iterIPNS_6vectorIiNS_9allocatorIiEEEEEC2B7v160006EPKvS5_, symObjAddr: 0x21EB8, symBinAddr: 0x1000251C8, symSize: 0x24 }
  - { offsetInCU: 0x59128, offset: 0x59128, size: 0x8, addend: 0x0, symName: __ZNSt3__16vectorINS0_IiNS_9allocatorIiEEEENS1_IS3_EEE22__construct_one_at_endB7v160006IJRKS3_EEEvDpOT_, symObjAddr: 0x21EDC, symBinAddr: 0x1000251EC, symSize: 0x90 }
  - { offsetInCU: 0x59177, offset: 0x59177, size: 0x8, addend: 0x0, symName: __ZNSt3__16vectorINS0_IiNS_9allocatorIiEEEENS1_IS3_EEE21__push_back_slow_pathIRKS3_EEvOT_, symObjAddr: 0x21F6C, symBinAddr: 0x10002527C, symSize: 0xD8 }
  - { offsetInCU: 0x591D5, offset: 0x591D5, size: 0x8, addend: 0x0, symName: __ZNSt3__116allocator_traitsINS_9allocatorINS_6vectorIiNS1_IiEEEEEEE9constructB7v160006IS4_JRKS4_EvEEvRS5_PT_DpOT0_, symObjAddr: 0x22044, symBinAddr: 0x100025354, symSize: 0x34 }
  - { offsetInCU: 0x5922C, offset: 0x5922C, size: 0x8, addend: 0x0, symName: __ZNSt3__19allocatorINS_6vectorIiNS0_IiEEEEE9constructB7v160006IS3_JRKS3_EEEvPT_DpOT0_, symObjAddr: 0x22078, symBinAddr: 0x100025388, symSize: 0x30 }
  - { offsetInCU: 0x59282, offset: 0x59282, size: 0x8, addend: 0x0, symName: __ZNSt3__16vectorIiNS_9allocatorIiEEEC2EmRKi, symObjAddr: 0x220A8, symBinAddr: 0x1000253B8, symSize: 0xE4 }
  - { offsetInCU: 0x592E1, offset: 0x592E1, size: 0x8, addend: 0x0, symName: __ZNSt3__16vectorI3RGBNS_9allocatorIS1_EEE22__construct_one_at_endB7v160006IJRKS1_EEEvDpOT_, symObjAddr: 0x2218C, symBinAddr: 0x10002549C, symSize: 0x90 }
  - { offsetInCU: 0x59330, offset: 0x59330, size: 0x8, addend: 0x0, symName: __ZNSt3__16vectorI3RGBNS_9allocatorIS1_EEE21__push_back_slow_pathIRKS1_EEvOT_, symObjAddr: 0x2221C, symBinAddr: 0x10002552C, symSize: 0xD8 }
  - { offsetInCU: 0x5938E, offset: 0x5938E, size: 0x8, addend: 0x0, symName: __ZNSt3__116allocator_traitsINS_9allocatorI3RGBEEE9constructB7v160006IS2_JRKS2_EvEEvRS3_PT_DpOT0_, symObjAddr: 0x222F4, symBinAddr: 0x100025604, symSize: 0x34 }
  - { offsetInCU: 0x593E5, offset: 0x593E5, size: 0x8, addend: 0x0, symName: __ZNSt3__19allocatorI3RGBE9constructB7v160006IS1_JRKS1_EEEvPT_DpOT0_, symObjAddr: 0x22328, symBinAddr: 0x100025638, symSize: 0x30 }
  - { offsetInCU: 0x5943B, offset: 0x5943B, size: 0x8, addend: 0x0, symName: __ZNKSt3__16vectorINS0_IiNS_9allocatorIiEEEENS1_IS3_EEE11__make_iterB7v160006EPKS3_, symObjAddr: 0x22358, symBinAddr: 0x100025668, symSize: 0x34 }
  - { offsetInCU: 0x59470, offset: 0x59470, size: 0x8, addend: 0x0, symName: __ZNSt3__111__wrap_iterIPKNS_6vectorIiNS_9allocatorIiEEEEEC1B7v160006EPKvS6_, symObjAddr: 0x2238C, symBinAddr: 0x10002569C, symSize: 0x3C }
  - { offsetInCU: 0x594B6, offset: 0x594B6, size: 0x8, addend: 0x0, symName: __ZNSt3__111__wrap_iterIPKNS_6vectorIiNS_9allocatorIiEEEEEC2B7v160006EPKvS6_, symObjAddr: 0x223C8, symBinAddr: 0x1000256D8, symSize: 0x24 }
  - { offsetInCU: 0x59507, offset: 0x59507, size: 0x8, addend: 0x0, symName: '__ZZN5Graph15findVectorIndexERKNSt3__16vectorINS1_IiNS0_9allocatorIiEEEENS2_IS4_EEEEiENK3$_0clERKS4_', symObjAddr: 0x223EC, symBinAddr: 0x1000256FC, symSize: 0x7C }
  - { offsetInCU: 0x59540, offset: 0x59540, size: 0x8, addend: 0x0, symName: __ZNKSt3__111__wrap_iterIPKNS_6vectorIiNS_9allocatorIiEEEEEdeB7v160006Ev, symObjAddr: 0x22468, symBinAddr: 0x100025778, symSize: 0x18 }
  - { offsetInCU: 0x59566, offset: 0x59566, size: 0x8, addend: 0x0, symName: __ZNSt3__111__wrap_iterIPKNS_6vectorIiNS_9allocatorIiEEEEEppB7v160006Ev, symObjAddr: 0x22480, symBinAddr: 0x100025790, symSize: 0x20 }
  - { offsetInCU: 0x5958C, offset: 0x5958C, size: 0x8, addend: 0x0, symName: __ZN2cv3VecIhLi3EEC2Ehhh, symObjAddr: 0x22504, symBinAddr: 0x100025814, symSize: 0x44 }
  - { offsetInCU: 0x595E5, offset: 0x595E5, size: 0x8, addend: 0x0, symName: __ZN2cv4MatxIhLi3ELi1EEC2Ehhh, symObjAddr: 0x22548, symBinAddr: 0x100025858, symSize: 0x8C }
  - { offsetInCU: 0x59658, offset: 0x59658, size: 0x8, addend: 0x0, symName: __ZNSt3__18ios_base9precisionB7v160006El, symObjAddr: 0x225D4, symBinAddr: 0x1000258E4, symSize: 0x2C }
  - { offsetInCU: 0x5969E, offset: 0x5969E, size: 0x8, addend: 0x0, symName: __ZN6andres9PartitionImEC2Em, symObjAddr: 0x22600, symBinAddr: 0x100025910, symSize: 0xD0 }
  - { offsetInCU: 0x596F3, offset: 0x596F3, size: 0x8, addend: 0x0, symName: __ZNSt3__16vectorImNS_9allocatorImEEEC1Em, symObjAddr: 0x226D0, symBinAddr: 0x1000259E0, symSize: 0x34 }
  - { offsetInCU: 0x5972E, offset: 0x5972E, size: 0x8, addend: 0x0, symName: __ZNSt3__16vectorImNS_9allocatorImEEEixB7v160006Em, symObjAddr: 0x22704, symBinAddr: 0x100025A14, symSize: 0x24 }
  - { offsetInCU: 0x59765, offset: 0x59765, size: 0x8, addend: 0x0, symName: __ZNSt3__16vectorImNS_9allocatorImEEEC2Em, symObjAddr: 0x22728, symBinAddr: 0x100025A38, symSize: 0xE0 }
  - { offsetInCU: 0x597B5, offset: 0x597B5, size: 0x8, addend: 0x0, symName: __ZNSt3__117__compressed_pairIPmNS_9allocatorImEEEC1B7v160006IDnNS_18__default_init_tagEEEOT_OT0_, symObjAddr: 0x22808, symBinAddr: 0x100025B18, symSize: 0x3C }
  - { offsetInCU: 0x5980D, offset: 0x5980D, size: 0x8, addend: 0x0, symName: __ZNSt3__16vectorImNS_9allocatorImEEE11__vallocateB7v160006Em, symObjAddr: 0x22894, symBinAddr: 0x100025BA4, symSize: 0xAC }
  - { offsetInCU: 0x59851, offset: 0x59851, size: 0x8, addend: 0x0, symName: __ZNSt3__16vectorImNS_9allocatorImEEE18__construct_at_endEm, symObjAddr: 0x22940, symBinAddr: 0x100025C50, symSize: 0xC8 }
  - { offsetInCU: 0x598C3, offset: 0x598C3, size: 0x8, addend: 0x0, symName: __ZNSt3__128__exception_guard_exceptionsINS_6vectorImNS_9allocatorImEEE16__destroy_vectorEE10__completeB7v160006Ev, symObjAddr: 0x22A08, symBinAddr: 0x100025D18, symSize: 0x1C }
  - { offsetInCU: 0x598E9, offset: 0x598E9, size: 0x8, addend: 0x0, symName: __ZNSt3__128__exception_guard_exceptionsINS_6vectorImNS_9allocatorImEEE16__destroy_vectorEED1B7v160006Ev, symObjAddr: 0x22A24, symBinAddr: 0x100025D34, symSize: 0x2C }
  - { offsetInCU: 0x59913, offset: 0x59913, size: 0x8, addend: 0x0, symName: __ZNSt3__117__compressed_pairIPmNS_9allocatorImEEEC2B7v160006IDnNS_18__default_init_tagEEEOT_OT0_, symObjAddr: 0x22A50, symBinAddr: 0x100025D60, symSize: 0x40 }
  - { offsetInCU: 0x5996B, offset: 0x5996B, size: 0x8, addend: 0x0, symName: __ZNSt3__122__compressed_pair_elemIPmLi0ELb0EEC2B7v160006IDnvEEOT_, symObjAddr: 0x22A90, symBinAddr: 0x100025DA0, symSize: 0x1C }
  - { offsetInCU: 0x599AD, offset: 0x599AD, size: 0x8, addend: 0x0, symName: __ZNSt3__128__exception_guard_exceptionsINS_6vectorImNS_9allocatorImEEE16__destroy_vectorEEC1B7v160006ES5_, symObjAddr: 0x22AAC, symBinAddr: 0x100025DBC, symSize: 0x34 }
  - { offsetInCU: 0x599E5, offset: 0x599E5, size: 0x8, addend: 0x0, symName: __ZNSt3__128__exception_guard_exceptionsINS_6vectorImNS_9allocatorImEEE16__destroy_vectorEEC2B7v160006ES5_, symObjAddr: 0x22AE0, symBinAddr: 0x100025DF0, symSize: 0x24 }
  - { offsetInCU: 0x59A1D, offset: 0x59A1D, size: 0x8, addend: 0x0, symName: __ZNKSt3__16vectorImNS_9allocatorImEEE8max_sizeEv, symObjAddr: 0x22B04, symBinAddr: 0x100025E14, symSize: 0x60 }
  - { offsetInCU: 0x59A45, offset: 0x59A45, size: 0x8, addend: 0x0, symName: __ZNKSt3__16vectorImNS_9allocatorImEEE20__throw_length_errorB7v160006Ev, symObjAddr: 0x22B64, symBinAddr: 0x100025E74, symSize: 0x1C }
  - { offsetInCU: 0x59A6B, offset: 0x59A6B, size: 0x8, addend: 0x0, symName: __ZNSt3__16vectorImNS_9allocatorImEEE9__end_capB7v160006Ev, symObjAddr: 0x22B80, symBinAddr: 0x100025E90, symSize: 0x28 }
  - { offsetInCU: 0x59A91, offset: 0x59A91, size: 0x8, addend: 0x0, symName: __ZNKSt3__16vectorImNS_9allocatorImEEE14__annotate_newB7v160006Em, symObjAddr: 0x22BA8, symBinAddr: 0x100025EB8, symSize: 0xAC }
  - { offsetInCU: 0x59AC6, offset: 0x59AC6, size: 0x8, addend: 0x0, symName: __ZNKSt3__16vectorImNS_9allocatorImEEE7__allocB7v160006Ev, symObjAddr: 0x22C54, symBinAddr: 0x100025F64, symSize: 0x28 }
  - { offsetInCU: 0x59AEC, offset: 0x59AEC, size: 0x8, addend: 0x0, symName: __ZNKSt3__117__compressed_pairIPmNS_9allocatorImEEE6secondB7v160006Ev, symObjAddr: 0x22C7C, symBinAddr: 0x100025F8C, symSize: 0x24 }
  - { offsetInCU: 0x59B12, offset: 0x59B12, size: 0x8, addend: 0x0, symName: __ZNSt3__117__compressed_pairIPmNS_9allocatorImEEE5firstB7v160006Ev, symObjAddr: 0x22CA0, symBinAddr: 0x100025FB0, symSize: 0x24 }
  - { offsetInCU: 0x59B38, offset: 0x59B38, size: 0x8, addend: 0x0, symName: __ZNSt3__122__compressed_pair_elemIPmLi0ELb0EE5__getB7v160006Ev, symObjAddr: 0x22CC4, symBinAddr: 0x100025FD4, symSize: 0x14 }
  - { offsetInCU: 0x59B7A, offset: 0x59B7A, size: 0x8, addend: 0x0, symName: __ZNSt3__16vectorImNS_9allocatorImEEE21_ConstructTransactionC1B7v160006ERS3_m, symObjAddr: 0x22CD8, symBinAddr: 0x100025FE8, symSize: 0x3C }
  - { offsetInCU: 0x59BC2, offset: 0x59BC2, size: 0x8, addend: 0x0, symName: __ZNSt3__116allocator_traitsINS_9allocatorImEEE9constructB7v160006ImJEvEEvRS2_PT_DpOT0_, symObjAddr: 0x22D14, symBinAddr: 0x100026024, symSize: 0x2C }
  - { offsetInCU: 0x59C04, offset: 0x59C04, size: 0x8, addend: 0x0, symName: __ZNSt3__16vectorImNS_9allocatorImEEE21_ConstructTransactionD1B7v160006Ev, symObjAddr: 0x22D40, symBinAddr: 0x100026050, symSize: 0x2C }
  - { offsetInCU: 0x59C2E, offset: 0x59C2E, size: 0x8, addend: 0x0, symName: __ZNSt3__16vectorImNS_9allocatorImEEE21_ConstructTransactionC2B7v160006ERS3_m, symObjAddr: 0x22D6C, symBinAddr: 0x10002607C, symSize: 0x44 }
  - { offsetInCU: 0x59C76, offset: 0x59C76, size: 0x8, addend: 0x0, symName: __ZNSt3__19allocatorImE9constructB7v160006ImJEEEvPT_DpOT0_, symObjAddr: 0x22DB0, symBinAddr: 0x1000260C0, symSize: 0x1C }
  - { offsetInCU: 0x59CB8, offset: 0x59CB8, size: 0x8, addend: 0x0, symName: __ZNSt3__16vectorImNS_9allocatorImEEE21_ConstructTransactionD2B7v160006Ev, symObjAddr: 0x22DCC, symBinAddr: 0x1000260DC, symSize: 0x20 }
  - { offsetInCU: 0x59CE2, offset: 0x59CE2, size: 0x8, addend: 0x0, symName: __ZNSt3__128__exception_guard_exceptionsINS_6vectorImNS_9allocatorImEEE16__destroy_vectorEED2B7v160006Ev, symObjAddr: 0x22DEC, symBinAddr: 0x1000260FC, symSize: 0x50 }
  - { offsetInCU: 0x59D0C, offset: 0x59D0C, size: 0x8, addend: 0x0, symName: __ZN2cv7Scalar_IdEC2Edddd, symObjAddr: 0x22E3C, symBinAddr: 0x10002614C, symSize: 0x5C }
  - { offsetInCU: 0x59D74, offset: 0x59D74, size: 0x8, addend: 0x0, symName: __ZN2cv3VecIdLi4EEC2Ev, symObjAddr: 0x22E98, symBinAddr: 0x1000261A8, symSize: 0x2C }
  - { offsetInCU: 0x59DA0, offset: 0x59DA0, size: 0x8, addend: 0x0, symName: __ZN2cv4MatxIdLi4ELi1EEC2Ev, symObjAddr: 0x22EC4, symBinAddr: 0x1000261D4, symSize: 0x60 }
  - { offsetInCU: 0x59DE9, offset: 0x59DE9, size: 0x8, addend: 0x0, symName: __ZNSt3__15queueIiNS_5dequeIiNS_9allocatorIiEEEEEC2B7v160006Ev, symObjAddr: 0x22F24, symBinAddr: 0x100026234, symSize: 0x2C }
  - { offsetInCU: 0x59E13, offset: 0x59E13, size: 0x8, addend: 0x0, symName: __ZNSt3__15dequeIiNS_9allocatorIiEEE5frontEv, symObjAddr: 0x22F50, symBinAddr: 0x100026260, symSize: 0x50 }
  - { offsetInCU: 0x59E3B, offset: 0x59E3B, size: 0x8, addend: 0x0, symName: __ZNSt3__15dequeIiNS_9allocatorIiEEE9pop_frontEv, symObjAddr: 0x22FA0, symBinAddr: 0x1000262B0, symSize: 0xAC }
  - { offsetInCU: 0x59E72, offset: 0x59E72, size: 0x8, addend: 0x0, symName: __ZNSt3__15dequeIiNS_9allocatorIiEEE26__maybe_remove_front_spareB7v160006Eb, symObjAddr: 0x2304C, symBinAddr: 0x10002635C, symSize: 0xDC }
  - { offsetInCU: 0x59EA7, offset: 0x59EA7, size: 0x8, addend: 0x0, symName: __ZNKSt3__15dequeIiNS_9allocatorIiEEE20__front_spare_blocksB7v160006Ev, symObjAddr: 0x23128, symBinAddr: 0x100026438, symSize: 0x2C }
  - { offsetInCU: 0x59ECD, offset: 0x59ECD, size: 0x8, addend: 0x0, symName: __ZN6andres9PartitionIiEC2Ei, symObjAddr: 0x23154, symBinAddr: 0x100026464, symSize: 0xD0 }
  - { offsetInCU: 0x59F22, offset: 0x59F22, size: 0x8, addend: 0x0, symName: __ZNSt3__16vectorIiNS_9allocatorIiEEEC1Em, symObjAddr: 0x23224, symBinAddr: 0x100026534, symSize: 0x34 }
  - { offsetInCU: 0x59F5D, offset: 0x59F5D, size: 0x8, addend: 0x0, symName: __ZNSt3__16vectorIiNS_9allocatorIiEEEC2Em, symObjAddr: 0x23258, symBinAddr: 0x100026568, symSize: 0xDC }
  - { offsetInCU: 0x59FAD, offset: 0x59FAD, size: 0x8, addend: 0x0, symName: __ZNSt3__16vectorIiNS_9allocatorIiEEE18__construct_at_endEm, symObjAddr: 0x23334, symBinAddr: 0x100026644, symSize: 0xC8 }
  - { offsetInCU: 0x5A01F, offset: 0x5A01F, size: 0x8, addend: 0x0, symName: __ZNSt3__116allocator_traitsINS_9allocatorIiEEE9constructB7v160006IiJEvEEvRS2_PT_DpOT0_, symObjAddr: 0x233FC, symBinAddr: 0x10002670C, symSize: 0x2C }
  - { offsetInCU: 0x5A061, offset: 0x5A061, size: 0x8, addend: 0x0, symName: __ZNSt3__19allocatorIiE9constructB7v160006IiJEEEvPT_DpOT0_, symObjAddr: 0x23428, symBinAddr: 0x100026738, symSize: 0x1C }
  - { offsetInCU: 0x5A0A3, offset: 0x5A0A3, size: 0x8, addend: 0x0, symName: __ZNSt3__16vectorINS_4pairIihEENS_9allocatorIS2_EEE9__end_capB7v160006Ev, symObjAddr: 0x23444, symBinAddr: 0x100026754, symSize: 0x28 }
  - { offsetInCU: 0x5A0C9, offset: 0x5A0C9, size: 0x8, addend: 0x0, symName: __ZNSt3__16vectorINS_4pairIihEENS_9allocatorIS2_EEE22__construct_one_at_endB7v160006IJRiRhEEEvDpOT_, symObjAddr: 0x2346C, symBinAddr: 0x10002677C, symSize: 0x98 }
  - { offsetInCU: 0x5A12C, offset: 0x5A12C, size: 0x8, addend: 0x0, symName: __ZNSt3__16vectorINS_4pairIihEENS_9allocatorIS2_EEE24__emplace_back_slow_pathIJRiRhEEEvDpOT_, symObjAddr: 0x23504, symBinAddr: 0x100026814, symSize: 0xE0 }
  - { offsetInCU: 0x5A1A0, offset: 0x5A1A0, size: 0x8, addend: 0x0, symName: __ZNSt3__16vectorINS_4pairIihEENS_9allocatorIS2_EEE4backB7v160006Ev, symObjAddr: 0x235E4, symBinAddr: 0x1000268F4, symSize: 0x1C }
  - { offsetInCU: 0x5A1C6, offset: 0x5A1C6, size: 0x8, addend: 0x0, symName: __ZNSt3__117__compressed_pairIPNS_4pairIihEENS_9allocatorIS2_EEE5firstB7v160006Ev, symObjAddr: 0x23600, symBinAddr: 0x100026910, symSize: 0x24 }
  - { offsetInCU: 0x5A1EC, offset: 0x5A1EC, size: 0x8, addend: 0x0, symName: __ZNSt3__122__compressed_pair_elemIPNS_4pairIihEELi0ELb0EE5__getB7v160006Ev, symObjAddr: 0x23624, symBinAddr: 0x100026934, symSize: 0x14 }
  - { offsetInCU: 0x5A22E, offset: 0x5A22E, size: 0x8, addend: 0x0, symName: __ZNSt3__16vectorINS_4pairIihEENS_9allocatorIS2_EEE21_ConstructTransactionC1B7v160006ERS5_m, symObjAddr: 0x23638, symBinAddr: 0x100026948, symSize: 0x3C }
  - { offsetInCU: 0x5A276, offset: 0x5A276, size: 0x8, addend: 0x0, symName: __ZNSt3__116allocator_traitsINS_9allocatorINS_4pairIihEEEEE9constructB7v160006IS3_JRiRhEvEEvRS4_PT_DpOT0_, symObjAddr: 0x23674, symBinAddr: 0x100026984, symSize: 0x3C }
  - { offsetInCU: 0x5A2E1, offset: 0x5A2E1, size: 0x8, addend: 0x0, symName: __ZNSt3__16vectorINS_4pairIihEENS_9allocatorIS2_EEE7__allocB7v160006Ev, symObjAddr: 0x236B0, symBinAddr: 0x1000269C0, symSize: 0x28 }
  - { offsetInCU: 0x5A307, offset: 0x5A307, size: 0x8, addend: 0x0, symName: __ZNSt3__16vectorINS_4pairIihEENS_9allocatorIS2_EEE21_ConstructTransactionD1B7v160006Ev, symObjAddr: 0x236EC, symBinAddr: 0x1000269FC, symSize: 0x2C }
  - { offsetInCU: 0x5A331, offset: 0x5A331, size: 0x8, addend: 0x0, symName: __ZNSt3__16vectorINS_4pairIihEENS_9allocatorIS2_EEE21_ConstructTransactionC2B7v160006ERS5_m, symObjAddr: 0x23718, symBinAddr: 0x100026A28, symSize: 0x44 }
  - { offsetInCU: 0x5A379, offset: 0x5A379, size: 0x8, addend: 0x0, symName: __ZNSt3__19allocatorINS_4pairIihEEE9constructB7v160006IS2_JRiRhEEEvPT_DpOT0_, symObjAddr: 0x2375C, symBinAddr: 0x100026A6C, symSize: 0x38 }
  - { offsetInCU: 0x5A3E2, offset: 0x5A3E2, size: 0x8, addend: 0x0, symName: __ZNSt3__14pairIihEC1B7v160006IRiRhLPv0EEEOT_OT0_, symObjAddr: 0x23794, symBinAddr: 0x100026AA4, symSize: 0x3C }
  - { offsetInCU: 0x5A440, offset: 0x5A440, size: 0x8, addend: 0x0, symName: __ZNSt3__14pairIihEC2B7v160006IRiRhLPv0EEEOT_OT0_, symObjAddr: 0x237D0, symBinAddr: 0x100026AE0, symSize: 0x34 }
  - { offsetInCU: 0x5A49E, offset: 0x5A49E, size: 0x8, addend: 0x0, symName: __ZNSt3__117__compressed_pairIPNS_4pairIihEENS_9allocatorIS2_EEE6secondB7v160006Ev, symObjAddr: 0x23804, symBinAddr: 0x100026B14, symSize: 0x24 }
  - { offsetInCU: 0x5A4C4, offset: 0x5A4C4, size: 0x8, addend: 0x0, symName: __ZNSt3__122__compressed_pair_elemINS_9allocatorINS_4pairIihEEEELi1ELb1EE5__getB7v160006Ev, symObjAddr: 0x23828, symBinAddr: 0x100026B38, symSize: 0x14 }
  - { offsetInCU: 0x5A4EA, offset: 0x5A4EA, size: 0x8, addend: 0x0, symName: __ZNSt3__16vectorINS_4pairIihEENS_9allocatorIS2_EEE21_ConstructTransactionD2B7v160006Ev, symObjAddr: 0x2383C, symBinAddr: 0x100026B4C, symSize: 0x20 }
  - { offsetInCU: 0x5A514, offset: 0x5A514, size: 0x8, addend: 0x0, symName: __ZNKSt3__16vectorINS_4pairIihEENS_9allocatorIS2_EEE11__recommendB7v160006Em, symObjAddr: 0x2385C, symBinAddr: 0x100026B6C, symSize: 0xB4 }
  - { offsetInCU: 0x5A569, offset: 0x5A569, size: 0x8, addend: 0x0, symName: __ZNKSt3__16vectorINS_4pairIihEENS_9allocatorIS2_EEE4sizeB7v160006Ev, symObjAddr: 0x23910, symBinAddr: 0x100026C20, symSize: 0x28 }
  - { offsetInCU: 0x5A58F, offset: 0x5A58F, size: 0x8, addend: 0x0, symName: __ZNSt3__114__split_bufferINS_4pairIihEERNS_9allocatorIS2_EEEC1EmmS5_, symObjAddr: 0x23938, symBinAddr: 0x100026C48, symSize: 0x44 }
  - { offsetInCU: 0x5A5E5, offset: 0x5A5E5, size: 0x8, addend: 0x0, symName: __ZNSt3__114__split_bufferINS_4pairIihEERNS_9allocatorIS2_EEED1Ev, symObjAddr: 0x23A94, symBinAddr: 0x100026DA4, symSize: 0x2C }
  - { offsetInCU: 0x5A611, offset: 0x5A611, size: 0x8, addend: 0x0, symName: __ZNKSt3__16vectorINS_4pairIihEENS_9allocatorIS2_EEE8max_sizeEv, symObjAddr: 0x23AC0, symBinAddr: 0x100026DD0, symSize: 0x60 }
  - { offsetInCU: 0x5A639, offset: 0x5A639, size: 0x8, addend: 0x0, symName: __ZNKSt3__16vectorINS_4pairIihEENS_9allocatorIS2_EEE20__throw_length_errorB7v160006Ev, symObjAddr: 0x23B20, symBinAddr: 0x100026E30, symSize: 0x1C }
  - { offsetInCU: 0x5A65F, offset: 0x5A65F, size: 0x8, addend: 0x0, symName: __ZNKSt3__16vectorINS_4pairIihEENS_9allocatorIS2_EEE8capacityB7v160006Ev, symObjAddr: 0x23B3C, symBinAddr: 0x100026E4C, symSize: 0x40 }
  - { offsetInCU: 0x5A690, offset: 0x5A690, size: 0x8, addend: 0x0, symName: __ZNSt3__116allocator_traitsINS_9allocatorINS_4pairIihEEEEE8max_sizeB7v160006IS4_vEEmRKS4_, symObjAddr: 0x23B7C, symBinAddr: 0x100026E8C, symSize: 0x24 }
  - { offsetInCU: 0x5A6BE, offset: 0x5A6BE, size: 0x8, addend: 0x0, symName: __ZNKSt3__16vectorINS_4pairIihEENS_9allocatorIS2_EEE7__allocB7v160006Ev, symObjAddr: 0x23BA0, symBinAddr: 0x100026EB0, symSize: 0x28 }
  - { offsetInCU: 0x5A6E4, offset: 0x5A6E4, size: 0x8, addend: 0x0, symName: __ZNKSt3__19allocatorINS_4pairIihEEE8max_sizeB7v160006Ev, symObjAddr: 0x23BC8, symBinAddr: 0x100026ED8, symSize: 0x14 }
  - { offsetInCU: 0x5A70A, offset: 0x5A70A, size: 0x8, addend: 0x0, symName: __ZNKSt3__117__compressed_pairIPNS_4pairIihEENS_9allocatorIS2_EEE6secondB7v160006Ev, symObjAddr: 0x23BDC, symBinAddr: 0x100026EEC, symSize: 0x24 }
  - { offsetInCU: 0x5A730, offset: 0x5A730, size: 0x8, addend: 0x0, symName: __ZNKSt3__122__compressed_pair_elemINS_9allocatorINS_4pairIihEEEELi1ELb1EE5__getB7v160006Ev, symObjAddr: 0x23C00, symBinAddr: 0x100026F10, symSize: 0x14 }
  - { offsetInCU: 0x5A756, offset: 0x5A756, size: 0x8, addend: 0x0, symName: __ZNKSt3__16vectorINS_4pairIihEENS_9allocatorIS2_EEE9__end_capB7v160006Ev, symObjAddr: 0x23C14, symBinAddr: 0x100026F24, symSize: 0x28 }
  - { offsetInCU: 0x5A77C, offset: 0x5A77C, size: 0x8, addend: 0x0, symName: __ZNKSt3__117__compressed_pairIPNS_4pairIihEENS_9allocatorIS2_EEE5firstB7v160006Ev, symObjAddr: 0x23C3C, symBinAddr: 0x100026F4C, symSize: 0x24 }
  - { offsetInCU: 0x5A7A2, offset: 0x5A7A2, size: 0x8, addend: 0x0, symName: __ZNKSt3__122__compressed_pair_elemIPNS_4pairIihEELi0ELb0EE5__getB7v160006Ev, symObjAddr: 0x23C60, symBinAddr: 0x100026F70, symSize: 0x14 }
  - { offsetInCU: 0x5A7C8, offset: 0x5A7C8, size: 0x8, addend: 0x0, symName: __ZNSt3__114__split_bufferINS_4pairIihEERNS_9allocatorIS2_EEEC2EmmS5_, symObjAddr: 0x23C74, symBinAddr: 0x100026F84, symSize: 0xD4 }
  - { offsetInCU: 0x5A83B, offset: 0x5A83B, size: 0x8, addend: 0x0, symName: __ZNSt3__117__compressed_pairIPNS_4pairIihEERNS_9allocatorIS2_EEEC1B7v160006IDnS6_EEOT_OT0_, symObjAddr: 0x23D48, symBinAddr: 0x100027058, symSize: 0x3C }
  - { offsetInCU: 0x5A893, offset: 0x5A893, size: 0x8, addend: 0x0, symName: __ZNSt3__114__split_bufferINS_4pairIihEERNS_9allocatorIS2_EEE7__allocB7v160006Ev, symObjAddr: 0x23DC4, symBinAddr: 0x1000270D4, symSize: 0x28 }
  - { offsetInCU: 0x5A8B9, offset: 0x5A8B9, size: 0x8, addend: 0x0, symName: __ZNSt3__114__split_bufferINS_4pairIihEERNS_9allocatorIS2_EEE9__end_capB7v160006Ev, symObjAddr: 0x23DEC, symBinAddr: 0x1000270FC, symSize: 0x28 }
  - { offsetInCU: 0x5A8DF, offset: 0x5A8DF, size: 0x8, addend: 0x0, symName: __ZNSt3__117__compressed_pairIPNS_4pairIihEERNS_9allocatorIS2_EEEC2B7v160006IDnS6_EEOT_OT0_, symObjAddr: 0x23E14, symBinAddr: 0x100027124, symSize: 0x48 }
  - { offsetInCU: 0x5A937, offset: 0x5A937, size: 0x8, addend: 0x0, symName: __ZNSt3__122__compressed_pair_elemIPNS_4pairIihEELi0ELb0EEC2B7v160006IDnvEEOT_, symObjAddr: 0x23E5C, symBinAddr: 0x10002716C, symSize: 0x1C }
  - { offsetInCU: 0x5A979, offset: 0x5A979, size: 0x8, addend: 0x0, symName: __ZNSt3__122__compressed_pair_elemIRNS_9allocatorINS_4pairIihEEEELi1ELb0EEC2B7v160006IS5_vEEOT_, symObjAddr: 0x23E78, symBinAddr: 0x100027188, symSize: 0x20 }
  - { offsetInCU: 0x5A9BB, offset: 0x5A9BB, size: 0x8, addend: 0x0, symName: __ZNSt3__19allocatorINS_4pairIihEEE8allocateB7v160006Em, symObjAddr: 0x23E98, symBinAddr: 0x1000271A8, symSize: 0x58 }
  - { offsetInCU: 0x5A9EF, offset: 0x5A9EF, size: 0x8, addend: 0x0, symName: __ZNSt3__117__compressed_pairIPNS_4pairIihEERNS_9allocatorIS2_EEE6secondB7v160006Ev, symObjAddr: 0x23EF0, symBinAddr: 0x100027200, symSize: 0x28 }
  - { offsetInCU: 0x5AA15, offset: 0x5AA15, size: 0x8, addend: 0x0, symName: __ZNSt3__122__compressed_pair_elemIRNS_9allocatorINS_4pairIihEEEELi1ELb0EE5__getB7v160006Ev, symObjAddr: 0x23F18, symBinAddr: 0x100027228, symSize: 0x18 }
  - { offsetInCU: 0x5AA3B, offset: 0x5AA3B, size: 0x8, addend: 0x0, symName: __ZNSt3__117__compressed_pairIPNS_4pairIihEERNS_9allocatorIS2_EEE5firstB7v160006Ev, symObjAddr: 0x23F30, symBinAddr: 0x100027240, symSize: 0x24 }
  - { offsetInCU: 0x5AA61, offset: 0x5AA61, size: 0x8, addend: 0x0, symName: __ZNKSt3__16vectorINS_4pairIihEENS_9allocatorIS2_EEE17__annotate_deleteB7v160006Ev, symObjAddr: 0x23F54, symBinAddr: 0x100027264, symSize: 0xB8 }
  - { offsetInCU: 0x5AA87, offset: 0x5AA87, size: 0x8, addend: 0x0, symName: __ZNSt3__116reverse_iteratorIPNS_4pairIihEEEC1B7v160006ES3_, symObjAddr: 0x24138, symBinAddr: 0x100027448, symSize: 0x34 }
  - { offsetInCU: 0x5AABF, offset: 0x5AABF, size: 0x8, addend: 0x0, symName: __ZNKSt3__116reverse_iteratorIPNS_4pairIihEEE4baseB7v160006Ev, symObjAddr: 0x2416C, symBinAddr: 0x10002747C, symSize: 0x18 }
  - { offsetInCU: 0x5AAE5, offset: 0x5AAE5, size: 0x8, addend: 0x0, symName: __ZNKSt3__16vectorINS_4pairIihEENS_9allocatorIS2_EEE14__annotate_newB7v160006Em, symObjAddr: 0x241C0, symBinAddr: 0x1000274D0, symSize: 0xAC }
  - { offsetInCU: 0x5AB1A, offset: 0x5AB1A, size: 0x8, addend: 0x0, symName: __ZNKSt3__16vectorINS_4pairIihEENS_9allocatorIS2_EEE31__annotate_contiguous_containerB7v160006EPKvS7_S7_S7_, symObjAddr: 0x2427C, symBinAddr: 0x10002758C, symSize: 0x20 }
  - { offsetInCU: 0x5AB70, offset: 0x5AB70, size: 0x8, addend: 0x0, symName: __ZNKSt3__16vectorINS_4pairIihEENS_9allocatorIS2_EEE4dataB7v160006Ev, symObjAddr: 0x2429C, symBinAddr: 0x1000275AC, symSize: 0x28 }
  - { offsetInCU: 0x5AB96, offset: 0x5AB96, size: 0x8, addend: 0x0, symName: __ZNSt3__129_AllocatorDestroyRangeReverseINS_9allocatorINS_4pairIihEEEENS_16reverse_iteratorIPS3_EEEC1B7v160006ERS4_RS7_SA_, symObjAddr: 0x24310, symBinAddr: 0x100027620, symSize: 0x44 }
  - { offsetInCU: 0x5ABED, offset: 0x5ABED, size: 0x8, addend: 0x0, symName: __ZNSt3__116allocator_traitsINS_9allocatorINS_4pairIihEEEEE9constructB7v160006IS3_JS3_EvEEvRS4_PT_DpOT0_, symObjAddr: 0x2439C, symBinAddr: 0x1000276AC, symSize: 0x34 }
  - { offsetInCU: 0x5AC44, offset: 0x5AC44, size: 0x8, addend: 0x0, symName: __ZNKSt3__116reverse_iteratorIPNS_4pairIihEEEdeB7v160006Ev, symObjAddr: 0x243F4, symBinAddr: 0x100027704, symSize: 0x28 }
  - { offsetInCU: 0x5AC78, offset: 0x5AC78, size: 0x8, addend: 0x0, symName: __ZNSt3__116reverse_iteratorIPNS_4pairIihEEEppB7v160006Ev, symObjAddr: 0x2441C, symBinAddr: 0x10002772C, symSize: 0x20 }
  - { offsetInCU: 0x5AC9E, offset: 0x5AC9E, size: 0x8, addend: 0x0, symName: __ZNSt3__128__exception_guard_exceptionsINS_29_AllocatorDestroyRangeReverseINS_9allocatorINS_4pairIihEEEENS_16reverse_iteratorIPS4_EEEEE10__completeB7v160006Ev, symObjAddr: 0x2443C, symBinAddr: 0x10002774C, symSize: 0x1C }
  - { offsetInCU: 0x5ACC4, offset: 0x5ACC4, size: 0x8, addend: 0x0, symName: __ZNSt3__128__exception_guard_exceptionsINS_29_AllocatorDestroyRangeReverseINS_9allocatorINS_4pairIihEEEENS_16reverse_iteratorIPS4_EEEEED1B7v160006Ev, symObjAddr: 0x24458, symBinAddr: 0x100027768, symSize: 0x2C }
  - { offsetInCU: 0x5ACEE, offset: 0x5ACEE, size: 0x8, addend: 0x0, symName: __ZNSt3__128__exception_guard_exceptionsINS_29_AllocatorDestroyRangeReverseINS_9allocatorINS_4pairIihEEEENS_16reverse_iteratorIPS4_EEEEEC1B7v160006ES9_, symObjAddr: 0x24484, symBinAddr: 0x100027794, symSize: 0x34 }
  - { offsetInCU: 0x5AD27, offset: 0x5AD27, size: 0x8, addend: 0x0, symName: __ZNSt3__128__exception_guard_exceptionsINS_29_AllocatorDestroyRangeReverseINS_9allocatorINS_4pairIihEEEENS_16reverse_iteratorIPS4_EEEEEC2B7v160006ES9_, symObjAddr: 0x244B8, symBinAddr: 0x1000277C8, symSize: 0x30 }
  - { offsetInCU: 0x5AD60, offset: 0x5AD60, size: 0x8, addend: 0x0, symName: __ZNSt3__129_AllocatorDestroyRangeReverseINS_9allocatorINS_4pairIihEEEENS_16reverse_iteratorIPS3_EEEC2B7v160006ERS4_RS7_SA_, symObjAddr: 0x244E8, symBinAddr: 0x1000277F8, symSize: 0x38 }
  - { offsetInCU: 0x5ADB7, offset: 0x5ADB7, size: 0x8, addend: 0x0, symName: __ZNSt3__19allocatorINS_4pairIihEEE9constructB7v160006IS2_JS2_EEEvPT_DpOT0_, symObjAddr: 0x24520, symBinAddr: 0x100027830, symSize: 0x28 }
  - { offsetInCU: 0x5AE13, offset: 0x5AE13, size: 0x8, addend: 0x0, symName: __ZNSt3__119__to_address_helperINS_16reverse_iteratorIPNS_4pairIihEEEEvE6__callB7v160006ERKS5_, symObjAddr: 0x24548, symBinAddr: 0x100027858, symSize: 0x38 }
  - { offsetInCU: 0x5AE36, offset: 0x5AE36, size: 0x8, addend: 0x0, symName: __ZNKSt3__116reverse_iteratorIPNS_4pairIihEEEptB7v160006Ev, symObjAddr: 0x24580, symBinAddr: 0x100027890, symSize: 0x24 }
  - { offsetInCU: 0x5AE5C, offset: 0x5AE5C, size: 0x8, addend: 0x0, symName: __ZNSt3__128__exception_guard_exceptionsINS_29_AllocatorDestroyRangeReverseINS_9allocatorINS_4pairIihEEEENS_16reverse_iteratorIPS4_EEEEED2B7v160006Ev, symObjAddr: 0x245A4, symBinAddr: 0x1000278B4, symSize: 0x50 }
  - { offsetInCU: 0x5AE86, offset: 0x5AE86, size: 0x8, addend: 0x0, symName: __ZNKSt3__129_AllocatorDestroyRangeReverseINS_9allocatorINS_4pairIihEEEENS_16reverse_iteratorIPS3_EEEclB7v160006Ev, symObjAddr: 0x245F4, symBinAddr: 0x100027904, symSize: 0xB4 }
  - { offsetInCU: 0x5AEAD, offset: 0x5AEAD, size: 0x8, addend: 0x0, symName: __ZNSt3__116reverse_iteratorINS0_IPNS_4pairIihEEEEEC1B7v160006ES4_, symObjAddr: 0x24718, symBinAddr: 0x100027A28, symSize: 0x3C }
  - { offsetInCU: 0x5AEE5, offset: 0x5AEE5, size: 0x8, addend: 0x0, symName: __ZNSt3__116allocator_traitsINS_9allocatorINS_4pairIihEEEEE7destroyB7v160006IS3_vEEvRS4_PT_, symObjAddr: 0x247B4, symBinAddr: 0x100027AC4, symSize: 0x2C }
  - { offsetInCU: 0x5AF22, offset: 0x5AF22, size: 0x8, addend: 0x0, symName: __ZNSt3__116reverse_iteratorINS0_IPNS_4pairIihEEEEEppB7v160006Ev, symObjAddr: 0x24804, symBinAddr: 0x100027B14, symSize: 0x30 }
  - { offsetInCU: 0x5AF48, offset: 0x5AF48, size: 0x8, addend: 0x0, symName: __ZNKSt3__116reverse_iteratorINS0_IPNS_4pairIihEEEEE4baseB7v160006Ev, symObjAddr: 0x24834, symBinAddr: 0x100027B44, symSize: 0x24 }
  - { offsetInCU: 0x5AF6E, offset: 0x5AF6E, size: 0x8, addend: 0x0, symName: __ZNSt3__19allocatorINS_4pairIihEEE7destroyB7v160006EPS2_, symObjAddr: 0x24858, symBinAddr: 0x100027B68, symSize: 0x14 }
  - { offsetInCU: 0x5AFA8, offset: 0x5AFA8, size: 0x8, addend: 0x0, symName: __ZNSt3__119__to_address_helperINS_16reverse_iteratorINS1_IPNS_4pairIihEEEEEEvE6__callB7v160006ERKS6_, symObjAddr: 0x2486C, symBinAddr: 0x100027B7C, symSize: 0x38 }
  - { offsetInCU: 0x5AFCB, offset: 0x5AFCB, size: 0x8, addend: 0x0, symName: __ZNKSt3__116reverse_iteratorINS0_IPNS_4pairIihEEEEEptB7v160006Ev, symObjAddr: 0x248A4, symBinAddr: 0x100027BB4, symSize: 0x24 }
  - { offsetInCU: 0x5AFF1, offset: 0x5AFF1, size: 0x8, addend: 0x0, symName: __ZNKSt3__116reverse_iteratorINS0_IPNS_4pairIihEEEEEdeB7v160006Ev, symObjAddr: 0x248C8, symBinAddr: 0x100027BD8, symSize: 0x34 }
  - { offsetInCU: 0x5B025, offset: 0x5B025, size: 0x8, addend: 0x0, symName: __ZNSt3__116reverse_iteratorIPNS_4pairIihEEEmmB7v160006Ev, symObjAddr: 0x248FC, symBinAddr: 0x100027C0C, symSize: 0x20 }
  - { offsetInCU: 0x5B04B, offset: 0x5B04B, size: 0x8, addend: 0x0, symName: __ZNSt3__116reverse_iteratorINS0_IPNS_4pairIihEEEEEC2B7v160006ES4_, symObjAddr: 0x2491C, symBinAddr: 0x100027C2C, symSize: 0x2C }
  - { offsetInCU: 0x5B083, offset: 0x5B083, size: 0x8, addend: 0x0, symName: __ZNSt3__116reverse_iteratorIPNS_4pairIihEEEC2B7v160006ES3_, symObjAddr: 0x24948, symBinAddr: 0x100027C58, symSize: 0x28 }
  - { offsetInCU: 0x5B0BB, offset: 0x5B0BB, size: 0x8, addend: 0x0, symName: __ZNSt3__114__split_bufferINS_4pairIihEERNS_9allocatorIS2_EEED2Ev, symObjAddr: 0x24970, symBinAddr: 0x100027C80, symSize: 0x8C }
  - { offsetInCU: 0x5B0E7, offset: 0x5B0E7, size: 0x8, addend: 0x0, symName: __ZNSt3__114__split_bufferINS_4pairIihEERNS_9allocatorIS2_EEE5clearB7v160006Ev, symObjAddr: 0x249FC, symBinAddr: 0x100027D0C, symSize: 0x28 }
  - { offsetInCU: 0x5B10D, offset: 0x5B10D, size: 0x8, addend: 0x0, symName: __ZNSt3__116allocator_traitsINS_9allocatorINS_4pairIihEEEEE10deallocateB7v160006ERS4_PS3_m, symObjAddr: 0x24A24, symBinAddr: 0x100027D34, symSize: 0x34 }
  - { offsetInCU: 0x5B14F, offset: 0x5B14F, size: 0x8, addend: 0x0, symName: __ZNKSt3__114__split_bufferINS_4pairIihEERNS_9allocatorIS2_EEE8capacityB7v160006Ev, symObjAddr: 0x24A58, symBinAddr: 0x100027D68, symSize: 0x40 }
  - { offsetInCU: 0x5B175, offset: 0x5B175, size: 0x8, addend: 0x0, symName: __ZNSt3__114__split_bufferINS_4pairIihEERNS_9allocatorIS2_EEE17__destruct_at_endB7v160006EPS2_, symObjAddr: 0x24A98, symBinAddr: 0x100027DA8, symSize: 0x2C }
  - { offsetInCU: 0x5B1A9, offset: 0x5B1A9, size: 0x8, addend: 0x0, symName: __ZNSt3__114__split_bufferINS_4pairIihEERNS_9allocatorIS2_EEE17__destruct_at_endB7v160006EPS2_NS_17integral_constantIbLb0EEE, symObjAddr: 0x24AC4, symBinAddr: 0x100027DD4, symSize: 0x80 }
  - { offsetInCU: 0x5B1E9, offset: 0x5B1E9, size: 0x8, addend: 0x0, symName: __ZNSt3__19allocatorINS_4pairIihEEE10deallocateB7v160006EPS2_m, symObjAddr: 0x24B44, symBinAddr: 0x100027E54, symSize: 0x40 }
  - { offsetInCU: 0x5B22B, offset: 0x5B22B, size: 0x8, addend: 0x0, symName: __ZNKSt3__114__split_bufferINS_4pairIihEERNS_9allocatorIS2_EEE9__end_capB7v160006Ev, symObjAddr: 0x24B84, symBinAddr: 0x100027E94, symSize: 0x28 }
  - { offsetInCU: 0x5B251, offset: 0x5B251, size: 0x8, addend: 0x0, symName: __ZNKSt3__117__compressed_pairIPNS_4pairIihEERNS_9allocatorIS2_EEE5firstB7v160006Ev, symObjAddr: 0x24BAC, symBinAddr: 0x100027EBC, symSize: 0x24 }
  - { offsetInCU: 0x5B277, offset: 0x5B277, size: 0x8, addend: 0x0, symName: __ZNSt3__16vectorIbNS_9allocatorIbEEEC2EmRKb, symObjAddr: 0x24BD0, symBinAddr: 0x100027EE0, symSize: 0x90 }
  - { offsetInCU: 0x5B2C1, offset: 0x5B2C1, size: 0x8, addend: 0x0, symName: __ZNSt3__16vectorIbNS_9allocatorIbEEE18__construct_at_endB7v160006Emb, symObjAddr: 0x24C60, symBinAddr: 0x100027F70, symSize: 0x108 }
  - { offsetInCU: 0x5B316, offset: 0x5B316, size: 0x8, addend: 0x0, symName: __ZNSt3__16vectorINS0_INS_4pairIihEENS_9allocatorIS2_EEEENS3_IS5_EEEC2B7v160006Ev, symObjAddr: 0x24D68, symBinAddr: 0x100028078, symSize: 0x58 }
  - { offsetInCU: 0x5B340, offset: 0x5B340, size: 0x8, addend: 0x0, symName: __ZNSt3__117__compressed_pairIPNS_6vectorINS_4pairIihEENS_9allocatorIS3_EEEENS4_IS6_EEEC1B7v160006IDnNS_18__default_init_tagEEEOT_OT0_, symObjAddr: 0x24DC0, symBinAddr: 0x1000280D0, symSize: 0x3C }
  - { offsetInCU: 0x5B398, offset: 0x5B398, size: 0x8, addend: 0x0, symName: __ZNSt3__117__compressed_pairIPNS_6vectorINS_4pairIihEENS_9allocatorIS3_EEEENS4_IS6_EEEC2B7v160006IDnNS_18__default_init_tagEEEOT_OT0_, symObjAddr: 0x24E0C, symBinAddr: 0x10002811C, symSize: 0x40 }
  - { offsetInCU: 0x5B3F0, offset: 0x5B3F0, size: 0x8, addend: 0x0, symName: __ZNSt3__122__compressed_pair_elemIPNS_6vectorINS_4pairIihEENS_9allocatorIS3_EEEELi0ELb0EEC2B7v160006IDnvEEOT_, symObjAddr: 0x24E4C, symBinAddr: 0x10002815C, symSize: 0x1C }
  - { offsetInCU: 0x5B432, offset: 0x5B432, size: 0x8, addend: 0x0, symName: __ZNSt3__122__compressed_pair_elemINS_9allocatorINS_6vectorINS_4pairIihEENS1_IS4_EEEEEELi1ELb1EEC2B7v160006ENS_18__default_init_tagE, symObjAddr: 0x24E68, symBinAddr: 0x100028178, symSize: 0x2C }
  - { offsetInCU: 0x5B466, offset: 0x5B466, size: 0x8, addend: 0x0, symName: __ZNSt3__19allocatorINS_6vectorINS_4pairIihEENS0_IS3_EEEEEC2B7v160006Ev, symObjAddr: 0x24E94, symBinAddr: 0x1000281A4, symSize: 0x2C }
  - { offsetInCU: 0x5B490, offset: 0x5B490, size: 0x8, addend: 0x0, symName: __ZNSt3__116__non_trivial_ifILb1ENS_9allocatorINS_6vectorINS_4pairIihEENS1_IS4_EEEEEEEC2B7v160006Ev, symObjAddr: 0x24EC0, symBinAddr: 0x1000281D0, symSize: 0x14 }
  - { offsetInCU: 0x5B4BA, offset: 0x5B4BA, size: 0x8, addend: 0x0, symName: __ZNSt3__16vectorINS0_INS_4pairIihEENS_9allocatorIS2_EEEENS3_IS5_EEED2B7v160006Ev, symObjAddr: 0x24ED4, symBinAddr: 0x1000281E4, symSize: 0x44 }
  - { offsetInCU: 0x5B4E4, offset: 0x5B4E4, size: 0x8, addend: 0x0, symName: __ZNSt3__16vectorINS0_INS_4pairIihEENS_9allocatorIS2_EEEENS3_IS5_EEE16__destroy_vectorC1ERS7_, symObjAddr: 0x24F18, symBinAddr: 0x100028228, symSize: 0x34 }
  - { offsetInCU: 0x5B51D, offset: 0x5B51D, size: 0x8, addend: 0x0, symName: __ZNSt3__16vectorINS0_INS_4pairIihEENS_9allocatorIS2_EEEENS3_IS5_EEE16__destroy_vectorclB7v160006Ev, symObjAddr: 0x24F4C, symBinAddr: 0x10002825C, symSize: 0x9C }
  - { offsetInCU: 0x5B543, offset: 0x5B543, size: 0x8, addend: 0x0, symName: __ZNSt3__16vectorINS0_INS_4pairIihEENS_9allocatorIS2_EEEENS3_IS5_EEE16__destroy_vectorC2ERS7_, symObjAddr: 0x24FE8, symBinAddr: 0x1000282F8, symSize: 0x20 }
  - { offsetInCU: 0x5B57C, offset: 0x5B57C, size: 0x8, addend: 0x0, symName: __ZNKSt3__16vectorINS0_INS_4pairIihEENS_9allocatorIS2_EEEENS3_IS5_EEE17__annotate_deleteB7v160006Ev, symObjAddr: 0x25008, symBinAddr: 0x100028318, symSize: 0xD4 }
  - { offsetInCU: 0x5B5A2, offset: 0x5B5A2, size: 0x8, addend: 0x0, symName: __ZNSt3__16vectorINS0_INS_4pairIihEENS_9allocatorIS2_EEEENS3_IS5_EEE7__clearB7v160006Ev, symObjAddr: 0x250EC, symBinAddr: 0x1000283FC, symSize: 0x28 }
  - { offsetInCU: 0x5B5C8, offset: 0x5B5C8, size: 0x8, addend: 0x0, symName: __ZNSt3__116allocator_traitsINS_9allocatorINS_6vectorINS_4pairIihEENS1_IS4_EEEEEEE10deallocateB7v160006ERS7_PS6_m, symObjAddr: 0x25114, symBinAddr: 0x100028424, symSize: 0x34 }
  - { offsetInCU: 0x5B60A, offset: 0x5B60A, size: 0x8, addend: 0x0, symName: __ZNSt3__16vectorINS0_INS_4pairIihEENS_9allocatorIS2_EEEENS3_IS5_EEE7__allocB7v160006Ev, symObjAddr: 0x25148, symBinAddr: 0x100028458, symSize: 0x28 }
  - { offsetInCU: 0x5B630, offset: 0x5B630, size: 0x8, addend: 0x0, symName: __ZNKSt3__16vectorINS0_INS_4pairIihEENS_9allocatorIS2_EEEENS3_IS5_EEE8capacityB7v160006Ev, symObjAddr: 0x25170, symBinAddr: 0x100028480, symSize: 0x40 }
  - { offsetInCU: 0x5B656, offset: 0x5B656, size: 0x8, addend: 0x0, symName: __ZNKSt3__16vectorINS0_INS_4pairIihEENS_9allocatorIS2_EEEENS3_IS5_EEE31__annotate_contiguous_containerB7v160006EPKvS9_S9_S9_, symObjAddr: 0x251B0, symBinAddr: 0x1000284C0, symSize: 0x20 }
  - { offsetInCU: 0x5B6AC, offset: 0x5B6AC, size: 0x8, addend: 0x0, symName: __ZNKSt3__16vectorINS0_INS_4pairIihEENS_9allocatorIS2_EEEENS3_IS5_EEE4dataB7v160006Ev, symObjAddr: 0x251D0, symBinAddr: 0x1000284E0, symSize: 0x28 }
  - { offsetInCU: 0x5B6D2, offset: 0x5B6D2, size: 0x8, addend: 0x0, symName: __ZNKSt3__16vectorINS0_INS_4pairIihEENS_9allocatorIS2_EEEENS3_IS5_EEE4sizeB7v160006Ev, symObjAddr: 0x251F8, symBinAddr: 0x100028508, symSize: 0x28 }
  - { offsetInCU: 0x5B6F8, offset: 0x5B6F8, size: 0x8, addend: 0x0, symName: __ZNSt3__16vectorINS0_INS_4pairIihEENS_9allocatorIS2_EEEENS3_IS5_EEE22__base_destruct_at_endB7v160006EPS5_, symObjAddr: 0x25234, symBinAddr: 0x100028544, symSize: 0x8C }
  - { offsetInCU: 0x5B73C, offset: 0x5B73C, size: 0x8, addend: 0x0, symName: __ZNSt3__116allocator_traitsINS_9allocatorINS_6vectorINS_4pairIihEENS1_IS4_EEEEEEE7destroyB7v160006IS6_vEEvRS7_PT_, symObjAddr: 0x252C0, symBinAddr: 0x1000285D0, symSize: 0x2C }
  - { offsetInCU: 0x5B779, offset: 0x5B779, size: 0x8, addend: 0x0, symName: __ZNSt3__19allocatorINS_6vectorINS_4pairIihEENS0_IS3_EEEEE7destroyB7v160006EPS5_, symObjAddr: 0x252EC, symBinAddr: 0x1000285FC, symSize: 0x28 }
  - { offsetInCU: 0x5B7AD, offset: 0x5B7AD, size: 0x8, addend: 0x0, symName: __ZNSt3__19allocatorINS_6vectorINS_4pairIihEENS0_IS3_EEEEE10deallocateB7v160006EPS5_m, symObjAddr: 0x25314, symBinAddr: 0x100028624, symSize: 0x44 }
  - { offsetInCU: 0x5B7EF, offset: 0x5B7EF, size: 0x8, addend: 0x0, symName: __ZNSt3__117__compressed_pairIPNS_6vectorINS_4pairIihEENS_9allocatorIS3_EEEENS4_IS6_EEE6secondB7v160006Ev, symObjAddr: 0x25358, symBinAddr: 0x100028668, symSize: 0x24 }
  - { offsetInCU: 0x5B815, offset: 0x5B815, size: 0x8, addend: 0x0, symName: __ZNSt3__122__compressed_pair_elemINS_9allocatorINS_6vectorINS_4pairIihEENS1_IS4_EEEEEELi1ELb1EE5__getB7v160006Ev, symObjAddr: 0x2537C, symBinAddr: 0x10002868C, symSize: 0x14 }
  - { offsetInCU: 0x5B83B, offset: 0x5B83B, size: 0x8, addend: 0x0, symName: __ZNKSt3__16vectorINS0_INS_4pairIihEENS_9allocatorIS2_EEEENS3_IS5_EEE9__end_capB7v160006Ev, symObjAddr: 0x25390, symBinAddr: 0x1000286A0, symSize: 0x28 }
  - { offsetInCU: 0x5B861, offset: 0x5B861, size: 0x8, addend: 0x0, symName: __ZNKSt3__117__compressed_pairIPNS_6vectorINS_4pairIihEENS_9allocatorIS3_EEEENS4_IS6_EEE5firstB7v160006Ev, symObjAddr: 0x253B8, symBinAddr: 0x1000286C8, symSize: 0x24 }
  - { offsetInCU: 0x5B887, offset: 0x5B887, size: 0x8, addend: 0x0, symName: __ZNKSt3__122__compressed_pair_elemIPNS_6vectorINS_4pairIihEENS_9allocatorIS3_EEEELi0ELb0EE5__getB7v160006Ev, symObjAddr: 0x253DC, symBinAddr: 0x1000286EC, symSize: 0x14 }
  - { offsetInCU: 0x5B8AD, offset: 0x5B8AD, size: 0x8, addend: 0x0, symName: __ZNSt3__16vectorINS_4pairIihEENS_9allocatorIS2_EEEC2B7v160006Ev, symObjAddr: 0x253F0, symBinAddr: 0x100028700, symSize: 0x58 }
  - { offsetInCU: 0x5B8D7, offset: 0x5B8D7, size: 0x8, addend: 0x0, symName: __ZNSt3__117__compressed_pairIPNS_4pairIihEENS_9allocatorIS2_EEEC1B7v160006IDnNS_18__default_init_tagEEEOT_OT0_, symObjAddr: 0x25448, symBinAddr: 0x100028758, symSize: 0x3C }
  - { offsetInCU: 0x5B92F, offset: 0x5B92F, size: 0x8, addend: 0x0, symName: __ZNSt3__117__compressed_pairIPNS_4pairIihEENS_9allocatorIS2_EEEC2B7v160006IDnNS_18__default_init_tagEEEOT_OT0_, symObjAddr: 0x25494, symBinAddr: 0x1000287A4, symSize: 0x40 }
  - { offsetInCU: 0x5B987, offset: 0x5B987, size: 0x8, addend: 0x0, symName: __ZNSt3__122__compressed_pair_elemINS_9allocatorINS_4pairIihEEEELi1ELb1EEC2B7v160006ENS_18__default_init_tagE, symObjAddr: 0x254D4, symBinAddr: 0x1000287E4, symSize: 0x2C }
  - { offsetInCU: 0x5B9BB, offset: 0x5B9BB, size: 0x8, addend: 0x0, symName: __ZNSt3__19allocatorINS_4pairIihEEEC2B7v160006Ev, symObjAddr: 0x25500, symBinAddr: 0x100028810, symSize: 0x2C }
  - { offsetInCU: 0x5B9E5, offset: 0x5B9E5, size: 0x8, addend: 0x0, symName: __ZNSt3__116__non_trivial_ifILb1ENS_9allocatorINS_4pairIihEEEEEC2B7v160006Ev, symObjAddr: 0x2552C, symBinAddr: 0x10002883C, symSize: 0x14 }
  - { offsetInCU: 0x5BA0F, offset: 0x5BA0F, size: 0x8, addend: 0x0, symName: __ZNSt3__16vectorINS_4pairIihEENS_9allocatorIS2_EEED2B7v160006Ev, symObjAddr: 0x25540, symBinAddr: 0x100028850, symSize: 0x44 }
  - { offsetInCU: 0x5BA39, offset: 0x5BA39, size: 0x8, addend: 0x0, symName: __ZNSt3__16vectorINS_4pairIihEENS_9allocatorIS2_EEE16__destroy_vectorC1ERS5_, symObjAddr: 0x25584, symBinAddr: 0x100028894, symSize: 0x34 }
  - { offsetInCU: 0x5BA72, offset: 0x5BA72, size: 0x8, addend: 0x0, symName: __ZNSt3__16vectorINS_4pairIihEENS_9allocatorIS2_EEE16__destroy_vectorclB7v160006Ev, symObjAddr: 0x255B8, symBinAddr: 0x1000288C8, symSize: 0x9C }
  - { offsetInCU: 0x5BA98, offset: 0x5BA98, size: 0x8, addend: 0x0, symName: __ZNSt3__16vectorINS_4pairIihEENS_9allocatorIS2_EEE16__destroy_vectorC2ERS5_, symObjAddr: 0x25654, symBinAddr: 0x100028964, symSize: 0x20 }
  - { offsetInCU: 0x5BAD1, offset: 0x5BAD1, size: 0x8, addend: 0x0, symName: __ZNSt3__16vectorINS_4pairIihEENS_9allocatorIS2_EEE7__clearB7v160006Ev, symObjAddr: 0x25684, symBinAddr: 0x100028994, symSize: 0x28 }
  - { offsetInCU: 0x5BAF7, offset: 0x5BAF7, size: 0x8, addend: 0x0, symName: __ZNSt3__16vectorINS_4pairIihEENS_9allocatorIS2_EEE22__base_destruct_at_endB7v160006EPS2_, symObjAddr: 0x256AC, symBinAddr: 0x1000289BC, symSize: 0x8C }
  - { offsetInCU: 0x5BB3B, offset: 0x5BB3B, size: 0x8, addend: 0x0, symName: __ZNSt3__16vectorINS0_INS_4pairIihEENS_9allocatorIS2_EEEENS3_IS5_EEE9__end_capB7v160006Ev, symObjAddr: 0x25738, symBinAddr: 0x100028A48, symSize: 0x28 }
  - { offsetInCU: 0x5BB61, offset: 0x5BB61, size: 0x8, addend: 0x0, symName: __ZNSt3__16vectorINS0_INS_4pairIihEENS_9allocatorIS2_EEEENS3_IS5_EEE22__construct_one_at_endB7v160006IJRKS5_EEEvDpOT_, symObjAddr: 0x25760, symBinAddr: 0x100028A70, symSize: 0x90 }
  - { offsetInCU: 0x5BBB0, offset: 0x5BBB0, size: 0x8, addend: 0x0, symName: __ZNSt3__16vectorINS0_INS_4pairIihEENS_9allocatorIS2_EEEENS3_IS5_EEE21__push_back_slow_pathIRKS5_EEvOT_, symObjAddr: 0x257F0, symBinAddr: 0x100028B00, symSize: 0xD8 }
  - { offsetInCU: 0x5BC0E, offset: 0x5BC0E, size: 0x8, addend: 0x0, symName: __ZNSt3__117__compressed_pairIPNS_6vectorINS_4pairIihEENS_9allocatorIS3_EEEENS4_IS6_EEE5firstB7v160006Ev, symObjAddr: 0x258C8, symBinAddr: 0x100028BD8, symSize: 0x24 }
  - { offsetInCU: 0x5BC34, offset: 0x5BC34, size: 0x8, addend: 0x0, symName: __ZNSt3__122__compressed_pair_elemIPNS_6vectorINS_4pairIihEENS_9allocatorIS3_EEEELi0ELb0EE5__getB7v160006Ev, symObjAddr: 0x258EC, symBinAddr: 0x100028BFC, symSize: 0x14 }
  - { offsetInCU: 0x5BC76, offset: 0x5BC76, size: 0x8, addend: 0x0, symName: __ZNSt3__16vectorINS0_INS_4pairIihEENS_9allocatorIS2_EEEENS3_IS5_EEE21_ConstructTransactionC1B7v160006ERS7_m, symObjAddr: 0x25900, symBinAddr: 0x100028C10, symSize: 0x3C }
  - { offsetInCU: 0x5BCBE, offset: 0x5BCBE, size: 0x8, addend: 0x0, symName: __ZNSt3__116allocator_traitsINS_9allocatorINS_6vectorINS_4pairIihEENS1_IS4_EEEEEEE9constructB7v160006IS6_JRKS6_EvEEvRS7_PT_DpOT0_, symObjAddr: 0x2593C, symBinAddr: 0x100028C4C, symSize: 0x34 }
  - { offsetInCU: 0x5BD15, offset: 0x5BD15, size: 0x8, addend: 0x0, symName: __ZNSt3__16vectorINS0_INS_4pairIihEENS_9allocatorIS2_EEEENS3_IS5_EEE21_ConstructTransactionD1B7v160006Ev, symObjAddr: 0x25970, symBinAddr: 0x100028C80, symSize: 0x2C }
  - { offsetInCU: 0x5BD3F, offset: 0x5BD3F, size: 0x8, addend: 0x0, symName: __ZNSt3__16vectorINS0_INS_4pairIihEENS_9allocatorIS2_EEEENS3_IS5_EEE21_ConstructTransactionC2B7v160006ERS7_m, symObjAddr: 0x2599C, symBinAddr: 0x100028CAC, symSize: 0x4C }
  - { offsetInCU: 0x5BD87, offset: 0x5BD87, size: 0x8, addend: 0x0, symName: __ZNSt3__19allocatorINS_6vectorINS_4pairIihEENS0_IS3_EEEEE9constructB7v160006IS5_JRKS5_EEEvPT_DpOT0_, symObjAddr: 0x259E8, symBinAddr: 0x100028CF8, symSize: 0x30 }
  - { offsetInCU: 0x5BDDD, offset: 0x5BDDD, size: 0x8, addend: 0x0, symName: __ZNSt3__16vectorINS_4pairIihEENS_9allocatorIS2_EEEC1ERKS5_, symObjAddr: 0x25A18, symBinAddr: 0x100028D28, symSize: 0x34 }
  - { offsetInCU: 0x5BE18, offset: 0x5BE18, size: 0x8, addend: 0x0, symName: __ZNSt3__16vectorINS_4pairIihEENS_9allocatorIS2_EEEC2ERKS5_, symObjAddr: 0x25A4C, symBinAddr: 0x100028D5C, symSize: 0x110 }
  - { offsetInCU: 0x5BE77, offset: 0x5BE77, size: 0x8, addend: 0x0, symName: __ZNSt3__116allocator_traitsINS_9allocatorINS_4pairIihEEEEE37select_on_container_copy_constructionB7v160006IS4_vvEES4_RKS4_, symObjAddr: 0x25B5C, symBinAddr: 0x100028E6C, symSize: 0x10 }
  - { offsetInCU: 0x5BEAC, offset: 0x5BEAC, size: 0x8, addend: 0x0, symName: __ZNSt3__117__compressed_pairIPNS_4pairIihEENS_9allocatorIS2_EEEC1B7v160006IDnS5_EEOT_OT0_, symObjAddr: 0x25B6C, symBinAddr: 0x100028E7C, symSize: 0x3C }
  - { offsetInCU: 0x5BF04, offset: 0x5BF04, size: 0x8, addend: 0x0, symName: __ZNSt3__16vectorINS_4pairIihEENS_9allocatorIS2_EEE11__vallocateB7v160006Em, symObjAddr: 0x25BE8, symBinAddr: 0x100028EF8, symSize: 0xAC }
  - { offsetInCU: 0x5BF48, offset: 0x5BF48, size: 0x8, addend: 0x0, symName: __ZNSt3__16vectorINS_4pairIihEENS_9allocatorIS2_EEE18__construct_at_endIPS2_Li0EEEvT_S8_m, symObjAddr: 0x25C94, symBinAddr: 0x100028FA4, symSize: 0x8C }
  - { offsetInCU: 0x5BFBB, offset: 0x5BFBB, size: 0x8, addend: 0x0, symName: __ZNSt3__128__exception_guard_exceptionsINS_6vectorINS_4pairIihEENS_9allocatorIS3_EEE16__destroy_vectorEE10__completeB7v160006Ev, symObjAddr: 0x25D20, symBinAddr: 0x100029030, symSize: 0x1C }
  - { offsetInCU: 0x5BFE1, offset: 0x5BFE1, size: 0x8, addend: 0x0, symName: __ZNSt3__128__exception_guard_exceptionsINS_6vectorINS_4pairIihEENS_9allocatorIS3_EEE16__destroy_vectorEED1B7v160006Ev, symObjAddr: 0x25D3C, symBinAddr: 0x10002904C, symSize: 0x2C }
  - { offsetInCU: 0x5C00B, offset: 0x5C00B, size: 0x8, addend: 0x0, symName: __ZNSt3__117__compressed_pairIPNS_4pairIihEENS_9allocatorIS2_EEEC2B7v160006IDnS5_EEOT_OT0_, symObjAddr: 0x25D68, symBinAddr: 0x100029078, symSize: 0x44 }
  - { offsetInCU: 0x5C063, offset: 0x5C063, size: 0x8, addend: 0x0, symName: __ZNSt3__122__compressed_pair_elemINS_9allocatorINS_4pairIihEEEELi1ELb1EEC2B7v160006IS4_vEEOT_, symObjAddr: 0x25DAC, symBinAddr: 0x1000290BC, symSize: 0x18 }
  - { offsetInCU: 0x5C0A5, offset: 0x5C0A5, size: 0x8, addend: 0x0, symName: __ZNSt3__128__exception_guard_exceptionsINS_6vectorINS_4pairIihEENS_9allocatorIS3_EEE16__destroy_vectorEEC1B7v160006ES7_, symObjAddr: 0x25DC4, symBinAddr: 0x1000290D4, symSize: 0x34 }
  - { offsetInCU: 0x5C0DD, offset: 0x5C0DD, size: 0x8, addend: 0x0, symName: __ZNSt3__128__exception_guard_exceptionsINS_6vectorINS_4pairIihEENS_9allocatorIS3_EEE16__destroy_vectorEEC2B7v160006ES7_, symObjAddr: 0x25DF8, symBinAddr: 0x100029108, symSize: 0x24 }
  - { offsetInCU: 0x5C115, offset: 0x5C115, size: 0x8, addend: 0x0, symName: __ZNSt3__129_AllocatorDestroyRangeReverseINS_9allocatorINS_4pairIihEEEEPS3_EC1B7v160006ERS4_RS5_S8_, symObjAddr: 0x25F5C, symBinAddr: 0x10002926C, symSize: 0x44 }
  - { offsetInCU: 0x5C16C, offset: 0x5C16C, size: 0x8, addend: 0x0, symName: __ZNSt3__116allocator_traitsINS_9allocatorINS_4pairIihEEEEE9constructB7v160006IS3_JRS3_EvEEvRS4_PT_DpOT0_, symObjAddr: 0x25FA0, symBinAddr: 0x1000292B0, symSize: 0x34 }
  - { offsetInCU: 0x5C1C3, offset: 0x5C1C3, size: 0x8, addend: 0x0, symName: __ZNSt3__128__exception_guard_exceptionsINS_29_AllocatorDestroyRangeReverseINS_9allocatorINS_4pairIihEEEEPS4_EEE10__completeB7v160006Ev, symObjAddr: 0x25FD4, symBinAddr: 0x1000292E4, symSize: 0x1C }
  - { offsetInCU: 0x5C1E9, offset: 0x5C1E9, size: 0x8, addend: 0x0, symName: __ZNSt3__128__exception_guard_exceptionsINS_29_AllocatorDestroyRangeReverseINS_9allocatorINS_4pairIihEEEEPS4_EEED1B7v160006Ev, symObjAddr: 0x25FF0, symBinAddr: 0x100029300, symSize: 0x2C }
  - { offsetInCU: 0x5C213, offset: 0x5C213, size: 0x8, addend: 0x0, symName: __ZNSt3__128__exception_guard_exceptionsINS_29_AllocatorDestroyRangeReverseINS_9allocatorINS_4pairIihEEEEPS4_EEEC1B7v160006ES7_, symObjAddr: 0x2601C, symBinAddr: 0x10002932C, symSize: 0x34 }
  - { offsetInCU: 0x5C24C, offset: 0x5C24C, size: 0x8, addend: 0x0, symName: __ZNSt3__128__exception_guard_exceptionsINS_29_AllocatorDestroyRangeReverseINS_9allocatorINS_4pairIihEEEEPS4_EEEC2B7v160006ES7_, symObjAddr: 0x26050, symBinAddr: 0x100029360, symSize: 0x30 }
  - { offsetInCU: 0x5C285, offset: 0x5C285, size: 0x8, addend: 0x0, symName: __ZNSt3__129_AllocatorDestroyRangeReverseINS_9allocatorINS_4pairIihEEEEPS3_EC2B7v160006ERS4_RS5_S8_, symObjAddr: 0x26080, symBinAddr: 0x100029390, symSize: 0x38 }
  - { offsetInCU: 0x5C2DC, offset: 0x5C2DC, size: 0x8, addend: 0x0, symName: __ZNSt3__19allocatorINS_4pairIihEEE9constructB7v160006IS2_JRS2_EEEvPT_DpOT0_, symObjAddr: 0x260B8, symBinAddr: 0x1000293C8, symSize: 0x28 }
  - { offsetInCU: 0x5C332, offset: 0x5C332, size: 0x8, addend: 0x0, symName: __ZNSt3__128__exception_guard_exceptionsINS_29_AllocatorDestroyRangeReverseINS_9allocatorINS_4pairIihEEEEPS4_EEED2B7v160006Ev, symObjAddr: 0x260E0, symBinAddr: 0x1000293F0, symSize: 0x50 }
  - { offsetInCU: 0x5C35C, offset: 0x5C35C, size: 0x8, addend: 0x0, symName: __ZNKSt3__129_AllocatorDestroyRangeReverseINS_9allocatorINS_4pairIihEEEEPS3_EclB7v160006Ev, symObjAddr: 0x26130, symBinAddr: 0x100029440, symSize: 0x68 }
  - { offsetInCU: 0x5C382, offset: 0x5C382, size: 0x8, addend: 0x0, symName: __ZNSt3__128__exception_guard_exceptionsINS_6vectorINS_4pairIihEENS_9allocatorIS3_EEE16__destroy_vectorEED2B7v160006Ev, symObjAddr: 0x26208, symBinAddr: 0x100029518, symSize: 0x50 }
  - { offsetInCU: 0x5C3AC, offset: 0x5C3AC, size: 0x8, addend: 0x0, symName: __ZNSt3__16vectorINS0_INS_4pairIihEENS_9allocatorIS2_EEEENS3_IS5_EEE21_ConstructTransactionD2B7v160006Ev, symObjAddr: 0x26258, symBinAddr: 0x100029568, symSize: 0x20 }
  - { offsetInCU: 0x5C3D6, offset: 0x5C3D6, size: 0x8, addend: 0x0, symName: __ZNKSt3__16vectorINS0_INS_4pairIihEENS_9allocatorIS2_EEEENS3_IS5_EEE11__recommendB7v160006Em, symObjAddr: 0x26278, symBinAddr: 0x100029588, symSize: 0xB4 }
  - { offsetInCU: 0x5C42B, offset: 0x5C42B, size: 0x8, addend: 0x0, symName: __ZNSt3__114__split_bufferINS_6vectorINS_4pairIihEENS_9allocatorIS3_EEEERNS4_IS6_EEEC1EmmS8_, symObjAddr: 0x2632C, symBinAddr: 0x10002963C, symSize: 0x44 }
  - { offsetInCU: 0x5C481, offset: 0x5C481, size: 0x8, addend: 0x0, symName: __ZNSt3__114__split_bufferINS_6vectorINS_4pairIihEENS_9allocatorIS3_EEEERNS4_IS6_EEED1Ev, symObjAddr: 0x26488, symBinAddr: 0x100029798, symSize: 0x2C }
  - { offsetInCU: 0x5C4AD, offset: 0x5C4AD, size: 0x8, addend: 0x0, symName: __ZNKSt3__16vectorINS0_INS_4pairIihEENS_9allocatorIS2_EEEENS3_IS5_EEE8max_sizeEv, symObjAddr: 0x264B4, symBinAddr: 0x1000297C4, symSize: 0x60 }
  - { offsetInCU: 0x5C4D5, offset: 0x5C4D5, size: 0x8, addend: 0x0, symName: __ZNKSt3__16vectorINS0_INS_4pairIihEENS_9allocatorIS2_EEEENS3_IS5_EEE20__throw_length_errorB7v160006Ev, symObjAddr: 0x26514, symBinAddr: 0x100029824, symSize: 0x1C }
  - { offsetInCU: 0x5C506, offset: 0x5C506, size: 0x8, addend: 0x0, symName: __ZNSt3__116allocator_traitsINS_9allocatorINS_6vectorINS_4pairIihEENS1_IS4_EEEEEEE8max_sizeB7v160006IS7_vEEmRKS7_, symObjAddr: 0x26530, symBinAddr: 0x100029840, symSize: 0x24 }
  - { offsetInCU: 0x5C534, offset: 0x5C534, size: 0x8, addend: 0x0, symName: __ZNKSt3__16vectorINS0_INS_4pairIihEENS_9allocatorIS2_EEEENS3_IS5_EEE7__allocB7v160006Ev, symObjAddr: 0x26554, symBinAddr: 0x100029864, symSize: 0x28 }
  - { offsetInCU: 0x5C55A, offset: 0x5C55A, size: 0x8, addend: 0x0, symName: __ZNKSt3__19allocatorINS_6vectorINS_4pairIihEENS0_IS3_EEEEE8max_sizeB7v160006Ev, symObjAddr: 0x2657C, symBinAddr: 0x10002988C, symSize: 0x18 }
  - { offsetInCU: 0x5C580, offset: 0x5C580, size: 0x8, addend: 0x0, symName: __ZNKSt3__117__compressed_pairIPNS_6vectorINS_4pairIihEENS_9allocatorIS3_EEEENS4_IS6_EEE6secondB7v160006Ev, symObjAddr: 0x26594, symBinAddr: 0x1000298A4, symSize: 0x24 }
  - { offsetInCU: 0x5C5A6, offset: 0x5C5A6, size: 0x8, addend: 0x0, symName: __ZNKSt3__122__compressed_pair_elemINS_9allocatorINS_6vectorINS_4pairIihEENS1_IS4_EEEEEELi1ELb1EE5__getB7v160006Ev, symObjAddr: 0x265B8, symBinAddr: 0x1000298C8, symSize: 0x14 }
  - { offsetInCU: 0x5C5CC, offset: 0x5C5CC, size: 0x8, addend: 0x0, symName: __ZNSt3__114__split_bufferINS_6vectorINS_4pairIihEENS_9allocatorIS3_EEEERNS4_IS6_EEEC2EmmS8_, symObjAddr: 0x265CC, symBinAddr: 0x1000298DC, symSize: 0xE0 }
  - { offsetInCU: 0x5C63F, offset: 0x5C63F, size: 0x8, addend: 0x0, symName: __ZNSt3__117__compressed_pairIPNS_6vectorINS_4pairIihEENS_9allocatorIS3_EEEERNS4_IS6_EEEC1B7v160006IDnS9_EEOT_OT0_, symObjAddr: 0x266AC, symBinAddr: 0x1000299BC, symSize: 0x3C }
  - { offsetInCU: 0x5C697, offset: 0x5C697, size: 0x8, addend: 0x0, symName: __ZNSt3__114__split_bufferINS_6vectorINS_4pairIihEENS_9allocatorIS3_EEEERNS4_IS6_EEE7__allocB7v160006Ev, symObjAddr: 0x26728, symBinAddr: 0x100029A38, symSize: 0x28 }
  - { offsetInCU: 0x5C6BD, offset: 0x5C6BD, size: 0x8, addend: 0x0, symName: __ZNSt3__114__split_bufferINS_6vectorINS_4pairIihEENS_9allocatorIS3_EEEERNS4_IS6_EEE9__end_capB7v160006Ev, symObjAddr: 0x26750, symBinAddr: 0x100029A60, symSize: 0x28 }
  - { offsetInCU: 0x5C6E3, offset: 0x5C6E3, size: 0x8, addend: 0x0, symName: __ZNSt3__117__compressed_pairIPNS_6vectorINS_4pairIihEENS_9allocatorIS3_EEEERNS4_IS6_EEEC2B7v160006IDnS9_EEOT_OT0_, symObjAddr: 0x26778, symBinAddr: 0x100029A88, symSize: 0x48 }
  - { offsetInCU: 0x5C73B, offset: 0x5C73B, size: 0x8, addend: 0x0, symName: __ZNSt3__122__compressed_pair_elemIRNS_9allocatorINS_6vectorINS_4pairIihEENS1_IS4_EEEEEELi1ELb0EEC2B7v160006IS8_vEEOT_, symObjAddr: 0x267C0, symBinAddr: 0x100029AD0, symSize: 0x20 }
  - { offsetInCU: 0x5C77D, offset: 0x5C77D, size: 0x8, addend: 0x0, symName: __ZNSt3__19allocatorINS_6vectorINS_4pairIihEENS0_IS3_EEEEE8allocateB7v160006Em, symObjAddr: 0x267E0, symBinAddr: 0x100029AF0, symSize: 0x5C }
  - { offsetInCU: 0x5C7B1, offset: 0x5C7B1, size: 0x8, addend: 0x0, symName: __ZNSt3__117__compressed_pairIPNS_6vectorINS_4pairIihEENS_9allocatorIS3_EEEERNS4_IS6_EEE6secondB7v160006Ev, symObjAddr: 0x2683C, symBinAddr: 0x100029B4C, symSize: 0x28 }
  - { offsetInCU: 0x5C7D7, offset: 0x5C7D7, size: 0x8, addend: 0x0, symName: __ZNSt3__122__compressed_pair_elemIRNS_9allocatorINS_6vectorINS_4pairIihEENS1_IS4_EEEEEELi1ELb0EE5__getB7v160006Ev, symObjAddr: 0x26864, symBinAddr: 0x100029B74, symSize: 0x18 }
  - { offsetInCU: 0x5C7FD, offset: 0x5C7FD, size: 0x8, addend: 0x0, symName: __ZNSt3__117__compressed_pairIPNS_6vectorINS_4pairIihEENS_9allocatorIS3_EEEERNS4_IS6_EEE5firstB7v160006Ev, symObjAddr: 0x2687C, symBinAddr: 0x100029B8C, symSize: 0x24 }
  - { offsetInCU: 0x5C823, offset: 0x5C823, size: 0x8, addend: 0x0, symName: __ZNSt3__116reverse_iteratorIPNS_6vectorINS_4pairIihEENS_9allocatorIS3_EEEEEC1B7v160006ES7_, symObjAddr: 0x269CC, symBinAddr: 0x100029CDC, symSize: 0x34 }
  - { offsetInCU: 0x5C85B, offset: 0x5C85B, size: 0x8, addend: 0x0, symName: __ZNKSt3__116reverse_iteratorIPNS_6vectorINS_4pairIihEENS_9allocatorIS3_EEEEE4baseB7v160006Ev, symObjAddr: 0x26A00, symBinAddr: 0x100029D10, symSize: 0x18 }
  - { offsetInCU: 0x5C881, offset: 0x5C881, size: 0x8, addend: 0x0, symName: __ZNKSt3__16vectorINS0_INS_4pairIihEENS_9allocatorIS2_EEEENS3_IS5_EEE14__annotate_newB7v160006Em, symObjAddr: 0x26A54, symBinAddr: 0x100029D64, symSize: 0xC8 }
  - { offsetInCU: 0x5C8B6, offset: 0x5C8B6, size: 0x8, addend: 0x0, symName: __ZNSt3__129_AllocatorDestroyRangeReverseINS_9allocatorINS_6vectorINS_4pairIihEENS1_IS4_EEEEEENS_16reverse_iteratorIPS6_EEEC1B7v160006ERS7_RSA_SD_, symObjAddr: 0x26B78, symBinAddr: 0x100029E88, symSize: 0x44 }
  - { offsetInCU: 0x5C90D, offset: 0x5C90D, size: 0x8, addend: 0x0, symName: __ZNSt3__116allocator_traitsINS_9allocatorINS_6vectorINS_4pairIihEENS1_IS4_EEEEEEE9constructB7v160006IS6_JS6_EvEEvRS7_PT_DpOT0_, symObjAddr: 0x26C04, symBinAddr: 0x100029F14, symSize: 0x34 }
  - { offsetInCU: 0x5C964, offset: 0x5C964, size: 0x8, addend: 0x0, symName: __ZNKSt3__116reverse_iteratorIPNS_6vectorINS_4pairIihEENS_9allocatorIS3_EEEEEdeB7v160006Ev, symObjAddr: 0x26C5C, symBinAddr: 0x100029F6C, symSize: 0x28 }
  - { offsetInCU: 0x5C998, offset: 0x5C998, size: 0x8, addend: 0x0, symName: __ZNSt3__116reverse_iteratorIPNS_6vectorINS_4pairIihEENS_9allocatorIS3_EEEEEppB7v160006Ev, symObjAddr: 0x26C84, symBinAddr: 0x100029F94, symSize: 0x20 }
  - { offsetInCU: 0x5C9BE, offset: 0x5C9BE, size: 0x8, addend: 0x0, symName: __ZNSt3__128__exception_guard_exceptionsINS_29_AllocatorDestroyRangeReverseINS_9allocatorINS_6vectorINS_4pairIihEENS2_IS5_EEEEEENS_16reverse_iteratorIPS7_EEEEE10__completeB7v160006Ev, symObjAddr: 0x26CA4, symBinAddr: 0x100029FB4, symSize: 0x1C }
  - { offsetInCU: 0x5C9E4, offset: 0x5C9E4, size: 0x8, addend: 0x0, symName: __ZNSt3__128__exception_guard_exceptionsINS_29_AllocatorDestroyRangeReverseINS_9allocatorINS_6vectorINS_4pairIihEENS2_IS5_EEEEEENS_16reverse_iteratorIPS7_EEEEED1B7v160006Ev, symObjAddr: 0x26CC0, symBinAddr: 0x100029FD0, symSize: 0x2C }
  - { offsetInCU: 0x5CA0E, offset: 0x5CA0E, size: 0x8, addend: 0x0, symName: __ZNSt3__128__exception_guard_exceptionsINS_29_AllocatorDestroyRangeReverseINS_9allocatorINS_6vectorINS_4pairIihEENS2_IS5_EEEEEENS_16reverse_iteratorIPS7_EEEEEC1B7v160006ESC_, symObjAddr: 0x26CEC, symBinAddr: 0x100029FFC, symSize: 0x34 }
  - { offsetInCU: 0x5CA47, offset: 0x5CA47, size: 0x8, addend: 0x0, symName: __ZNSt3__128__exception_guard_exceptionsINS_29_AllocatorDestroyRangeReverseINS_9allocatorINS_6vectorINS_4pairIihEENS2_IS5_EEEEEENS_16reverse_iteratorIPS7_EEEEEC2B7v160006ESC_, symObjAddr: 0x26D20, symBinAddr: 0x10002A030, symSize: 0x30 }
  - { offsetInCU: 0x5CA80, offset: 0x5CA80, size: 0x8, addend: 0x0, symName: __ZNSt3__129_AllocatorDestroyRangeReverseINS_9allocatorINS_6vectorINS_4pairIihEENS1_IS4_EEEEEENS_16reverse_iteratorIPS6_EEEC2B7v160006ERS7_RSA_SD_, symObjAddr: 0x26D50, symBinAddr: 0x10002A060, symSize: 0x38 }
  - { offsetInCU: 0x5CAD7, offset: 0x5CAD7, size: 0x8, addend: 0x0, symName: __ZNSt3__19allocatorINS_6vectorINS_4pairIihEENS0_IS3_EEEEE9constructB7v160006IS5_JS5_EEEvPT_DpOT0_, symObjAddr: 0x26D88, symBinAddr: 0x10002A098, symSize: 0x30 }
  - { offsetInCU: 0x5CB2D, offset: 0x5CB2D, size: 0x8, addend: 0x0, symName: __ZNSt3__16vectorINS_4pairIihEENS_9allocatorIS2_EEEC1B7v160006EOS5_, symObjAddr: 0x26DB8, symBinAddr: 0x10002A0C8, symSize: 0x34 }
  - { offsetInCU: 0x5CB68, offset: 0x5CB68, size: 0x8, addend: 0x0, symName: __ZNSt3__16vectorINS_4pairIihEENS_9allocatorIS2_EEEC2B7v160006EOS5_, symObjAddr: 0x26DEC, symBinAddr: 0x10002A0FC, symSize: 0xDC }
  - { offsetInCU: 0x5CBA9, offset: 0x5CBA9, size: 0x8, addend: 0x0, symName: __ZNSt3__119__to_address_helperINS_16reverse_iteratorIPNS_6vectorINS_4pairIihEENS_9allocatorIS4_EEEEEEvE6__callB7v160006ERKS9_, symObjAddr: 0x26EDC, symBinAddr: 0x10002A1EC, symSize: 0x38 }
  - { offsetInCU: 0x5CBCC, offset: 0x5CBCC, size: 0x8, addend: 0x0, symName: __ZNKSt3__116reverse_iteratorIPNS_6vectorINS_4pairIihEENS_9allocatorIS3_EEEEEptB7v160006Ev, symObjAddr: 0x26F14, symBinAddr: 0x10002A224, symSize: 0x24 }
  - { offsetInCU: 0x5CBF2, offset: 0x5CBF2, size: 0x8, addend: 0x0, symName: __ZNSt3__128__exception_guard_exceptionsINS_29_AllocatorDestroyRangeReverseINS_9allocatorINS_6vectorINS_4pairIihEENS2_IS5_EEEEEENS_16reverse_iteratorIPS7_EEEEED2B7v160006Ev, symObjAddr: 0x26F38, symBinAddr: 0x10002A248, symSize: 0x50 }
  - { offsetInCU: 0x5CC1C, offset: 0x5CC1C, size: 0x8, addend: 0x0, symName: __ZNKSt3__129_AllocatorDestroyRangeReverseINS_9allocatorINS_6vectorINS_4pairIihEENS1_IS4_EEEEEENS_16reverse_iteratorIPS6_EEEclB7v160006Ev, symObjAddr: 0x26F88, symBinAddr: 0x10002A298, symSize: 0xB4 }
  - { offsetInCU: 0x5CC43, offset: 0x5CC43, size: 0x8, addend: 0x0, symName: __ZNSt3__116reverse_iteratorINS0_IPNS_6vectorINS_4pairIihEENS_9allocatorIS3_EEEEEEEC1B7v160006ES8_, symObjAddr: 0x270AC, symBinAddr: 0x10002A3BC, symSize: 0x3C }
  - { offsetInCU: 0x5CC7B, offset: 0x5CC7B, size: 0x8, addend: 0x0, symName: __ZNSt3__116reverse_iteratorINS0_IPNS_6vectorINS_4pairIihEENS_9allocatorIS3_EEEEEEEppB7v160006Ev, symObjAddr: 0x2716C, symBinAddr: 0x10002A47C, symSize: 0x30 }
  - { offsetInCU: 0x5CCA1, offset: 0x5CCA1, size: 0x8, addend: 0x0, symName: __ZNKSt3__116reverse_iteratorINS0_IPNS_6vectorINS_4pairIihEENS_9allocatorIS3_EEEEEEE4baseB7v160006Ev, symObjAddr: 0x2719C, symBinAddr: 0x10002A4AC, symSize: 0x24 }
  - { offsetInCU: 0x5CCCD, offset: 0x5CCCD, size: 0x8, addend: 0x0, symName: __ZNSt3__119__to_address_helperINS_16reverse_iteratorINS1_IPNS_6vectorINS_4pairIihEENS_9allocatorIS4_EEEEEEEEvE6__callB7v160006ERKSA_, symObjAddr: 0x271C0, symBinAddr: 0x10002A4D0, symSize: 0x38 }
  - { offsetInCU: 0x5CCF0, offset: 0x5CCF0, size: 0x8, addend: 0x0, symName: __ZNKSt3__116reverse_iteratorINS0_IPNS_6vectorINS_4pairIihEENS_9allocatorIS3_EEEEEEEptB7v160006Ev, symObjAddr: 0x271F8, symBinAddr: 0x10002A508, symSize: 0x24 }
  - { offsetInCU: 0x5CD16, offset: 0x5CD16, size: 0x8, addend: 0x0, symName: __ZNKSt3__116reverse_iteratorINS0_IPNS_6vectorINS_4pairIihEENS_9allocatorIS3_EEEEEEEdeB7v160006Ev, symObjAddr: 0x2721C, symBinAddr: 0x10002A52C, symSize: 0x34 }
  - { offsetInCU: 0x5CD4A, offset: 0x5CD4A, size: 0x8, addend: 0x0, symName: __ZNSt3__116reverse_iteratorIPNS_6vectorINS_4pairIihEENS_9allocatorIS3_EEEEEmmB7v160006Ev, symObjAddr: 0x27250, symBinAddr: 0x10002A560, symSize: 0x20 }
  - { offsetInCU: 0x5CD70, offset: 0x5CD70, size: 0x8, addend: 0x0, symName: __ZNSt3__116reverse_iteratorINS0_IPNS_6vectorINS_4pairIihEENS_9allocatorIS3_EEEEEEEC2B7v160006ES8_, symObjAddr: 0x27270, symBinAddr: 0x10002A580, symSize: 0x2C }
  - { offsetInCU: 0x5CDA8, offset: 0x5CDA8, size: 0x8, addend: 0x0, symName: __ZNSt3__116reverse_iteratorIPNS_6vectorINS_4pairIihEENS_9allocatorIS3_EEEEEC2B7v160006ES7_, symObjAddr: 0x2729C, symBinAddr: 0x10002A5AC, symSize: 0x28 }
  - { offsetInCU: 0x5CDE0, offset: 0x5CDE0, size: 0x8, addend: 0x0, symName: __ZNSt3__114__split_bufferINS_6vectorINS_4pairIihEENS_9allocatorIS3_EEEERNS4_IS6_EEED2Ev, symObjAddr: 0x272C4, symBinAddr: 0x10002A5D4, symSize: 0x8C }
  - { offsetInCU: 0x5CE0C, offset: 0x5CE0C, size: 0x8, addend: 0x0, symName: __ZNSt3__114__split_bufferINS_6vectorINS_4pairIihEENS_9allocatorIS3_EEEERNS4_IS6_EEE5clearB7v160006Ev, symObjAddr: 0x27350, symBinAddr: 0x10002A660, symSize: 0x28 }
  - { offsetInCU: 0x5CE32, offset: 0x5CE32, size: 0x8, addend: 0x0, symName: __ZNKSt3__114__split_bufferINS_6vectorINS_4pairIihEENS_9allocatorIS3_EEEERNS4_IS6_EEE8capacityB7v160006Ev, symObjAddr: 0x27378, symBinAddr: 0x10002A688, symSize: 0x40 }
  - { offsetInCU: 0x5CE58, offset: 0x5CE58, size: 0x8, addend: 0x0, symName: __ZNSt3__114__split_bufferINS_6vectorINS_4pairIihEENS_9allocatorIS3_EEEERNS4_IS6_EEE17__destruct_at_endB7v160006EPS6_, symObjAddr: 0x273B8, symBinAddr: 0x10002A6C8, symSize: 0x2C }
  - { offsetInCU: 0x5CE8C, offset: 0x5CE8C, size: 0x8, addend: 0x0, symName: __ZNSt3__114__split_bufferINS_6vectorINS_4pairIihEENS_9allocatorIS3_EEEERNS4_IS6_EEE17__destruct_at_endB7v160006EPS6_NS_17integral_constantIbLb0EEE, symObjAddr: 0x273E4, symBinAddr: 0x10002A6F4, symSize: 0x80 }
  - { offsetInCU: 0x5CECC, offset: 0x5CECC, size: 0x8, addend: 0x0, symName: __ZNKSt3__114__split_bufferINS_6vectorINS_4pairIihEENS_9allocatorIS3_EEEERNS4_IS6_EEE9__end_capB7v160006Ev, symObjAddr: 0x27464, symBinAddr: 0x10002A774, symSize: 0x28 }
  - { offsetInCU: 0x5CEF2, offset: 0x5CEF2, size: 0x8, addend: 0x0, symName: __ZNKSt3__117__compressed_pairIPNS_6vectorINS_4pairIihEENS_9allocatorIS3_EEEERNS4_IS6_EEE5firstB7v160006Ev, symObjAddr: 0x2748C, symBinAddr: 0x10002A79C, symSize: 0x24 }
  - { offsetInCU: 0x5CF18, offset: 0x5CF18, size: 0x8, addend: 0x0, symName: __ZNSt3__19basic_iosIcNS_11char_traitsIcEEEC2B7v160006Ev, symObjAddr: 0x274B0, symBinAddr: 0x10002A7C0, symSize: 0x44 }
  - { offsetInCU: 0x5CF42, offset: 0x5CF42, size: 0x8, addend: 0x0, symName: __ZNSt3__114basic_iostreamIcNS_11char_traitsIcEEEC2B7v160006EPNS_15basic_streambufIcS2_EE, symObjAddr: 0x274F4, symBinAddr: 0x10002A804, symSize: 0xAC }
  - { offsetInCU: 0x5CF88, offset: 0x5CF88, size: 0x8, addend: 0x0, symName: __ZNSt3__115basic_stringbufIcNS_11char_traitsIcEENS_9allocatorIcEEEC1B7v160006Ej, symObjAddr: 0x275A0, symBinAddr: 0x10002A8B0, symSize: 0x34 }
  - { offsetInCU: 0x5CFC0, offset: 0x5CFC0, size: 0x8, addend: 0x0, symName: __ZNSt3__18ios_baseC2B7v160006Ev, symObjAddr: 0x275D4, symBinAddr: 0x10002A8E4, symSize: 0x24 }
  - { offsetInCU: 0x5CFEA, offset: 0x5CFEA, size: 0x8, addend: 0x0, symName: __ZNSt3__113basic_istreamIcNS_11char_traitsIcEEEC2B7v160006EPNS_15basic_streambufIcS2_EE, symObjAddr: 0x275F8, symBinAddr: 0x10002A908, symSize: 0x64 }
  - { offsetInCU: 0x5D02F, offset: 0x5D02F, size: 0x8, addend: 0x0, symName: __ZNSt3__113basic_ostreamIcNS_11char_traitsIcEEEC2B7v160006Ev, symObjAddr: 0x2765C, symBinAddr: 0x10002A96C, symSize: 0x34 }
  - { offsetInCU: 0x5D066, offset: 0x5D066, size: 0x8, addend: 0x0, symName: __ZNSt3__19basic_iosIcNS_11char_traitsIcEEE4initB7v160006EPNS_15basic_streambufIcS2_EE, symObjAddr: 0x27690, symBinAddr: 0x10002A9A0, symSize: 0x44 }
  - { offsetInCU: 0x5D09D, offset: 0x5D09D, size: 0x8, addend: 0x0, symName: __ZNSt3__115basic_stringbufIcNS_11char_traitsIcEENS_9allocatorIcEEEC2B7v160006Ej, symObjAddr: 0x276D4, symBinAddr: 0x10002A9E4, symSize: 0x60 }
  - { offsetInCU: 0x5D0D5, offset: 0x5D0D5, size: 0x8, addend: 0x0, symName: __ZNSt3__113unordered_mapI9DirectionNS_12basic_stringIcNS_11char_traitsIcEENS_9allocatorIcEEEENS_4hashIS1_EENS_8equal_toIS1_EENS5_INS_4pairIKS1_S7_EEEEEC2ESt16initializer_listISE_E, symObjAddr: 0x27734, symBinAddr: 0x10002AA44, symSize: 0x94 }
  - { offsetInCU: 0x5D110, offset: 0x5D110, size: 0x8, addend: 0x0, symName: __ZNSt3__112__hash_tableINS_17__hash_value_typeI9DirectionNS_12basic_stringIcNS_11char_traitsIcEENS_9allocatorIcEEEEEENS_22__unordered_map_hasherIS2_S9_NS_4hashIS2_EENS_8equal_toIS2_EELb1EEENS_21__unordered_map_equalIS2_S9_SE_SC_Lb1EEENS6_IS9_EEEC1Ev, symObjAddr: 0x277C8, symBinAddr: 0x10002AAD8, symSize: 0x2C }
  - { offsetInCU: 0x5D13C, offset: 0x5D13C, size: 0x8, addend: 0x0, symName: __ZNSt3__113unordered_mapI9DirectionNS_12basic_stringIcNS_11char_traitsIcEENS_9allocatorIcEEEENS_4hashIS1_EENS_8equal_toIS1_EENS5_INS_4pairIKS1_S7_EEEEE6insertIPKSE_EEvT_SK_, symObjAddr: 0x27804, symBinAddr: 0x10002AB14, symSize: 0x70 }
  - { offsetInCU: 0x5D18B, offset: 0x5D18B, size: 0x8, addend: 0x0, symName: __ZNKSt16initializer_listINSt3__14pairIK9DirectionNS0_12basic_stringIcNS0_11char_traitsIcEENS0_9allocatorIcEEEEEEE5beginB7v160006Ev, symObjAddr: 0x27874, symBinAddr: 0x10002AB84, symSize: 0x18 }
  - { offsetInCU: 0x5D1B1, offset: 0x5D1B1, size: 0x8, addend: 0x0, symName: __ZNKSt16initializer_listINSt3__14pairIK9DirectionNS0_12basic_stringIcNS0_11char_traitsIcEENS0_9allocatorIcEEEEEEE3endB7v160006Ev, symObjAddr: 0x2788C, symBinAddr: 0x10002AB9C, symSize: 0x20 }
  - { offsetInCU: 0x5D1D7, offset: 0x5D1D7, size: 0x8, addend: 0x0, symName: __ZNSt3__112__hash_tableINS_17__hash_value_typeI9DirectionNS_12basic_stringIcNS_11char_traitsIcEENS_9allocatorIcEEEEEENS_22__unordered_map_hasherIS2_S9_NS_4hashIS2_EENS_8equal_toIS2_EELb1EEENS_21__unordered_map_equalIS2_S9_SE_SC_Lb1EEENS6_IS9_EEED1Ev, symObjAddr: 0x278AC, symBinAddr: 0x10002ABBC, symSize: 0x2C }
  - { offsetInCU: 0x5D203, offset: 0x5D203, size: 0x8, addend: 0x0, symName: __ZNSt3__112__hash_tableINS_17__hash_value_typeI9DirectionNS_12basic_stringIcNS_11char_traitsIcEENS_9allocatorIcEEEEEENS_22__unordered_map_hasherIS2_S9_NS_4hashIS2_EENS_8equal_toIS2_EELb1EEENS_21__unordered_map_equalIS2_S9_SE_SC_Lb1EEENS6_IS9_EEEC2Ev, symObjAddr: 0x278D8, symBinAddr: 0x10002ABE8, symSize: 0x7C }
  - { offsetInCU: 0x5D22F, offset: 0x5D22F, size: 0x8, addend: 0x0, symName: __ZNSt3__110unique_ptrIA_PNS_16__hash_node_baseIPNS_11__hash_nodeINS_17__hash_value_typeI9DirectionNS_12basic_stringIcNS_11char_traitsIcEENS_9allocatorIcEEEEEEPvEEEENS_25__bucket_list_deallocatorINS8_ISG_EEEEEC1B7v160006ILb1EvEEv, symObjAddr: 0x27954, symBinAddr: 0x10002AC64, symSize: 0x2C }
  - { offsetInCU: 0x5D264, offset: 0x5D264, size: 0x8, addend: 0x0, symName: __ZNSt3__117__compressed_pairINS_16__hash_node_baseIPNS_11__hash_nodeINS_17__hash_value_typeI9DirectionNS_12basic_stringIcNS_11char_traitsIcEENS_9allocatorIcEEEEEEPvEEEENS8_ISD_EEEC1B7v160006ILb1EvEEv, symObjAddr: 0x27980, symBinAddr: 0x10002AC90, symSize: 0x2C }
  - { offsetInCU: 0x5D299, offset: 0x5D299, size: 0x8, addend: 0x0, symName: __ZNSt3__117__compressed_pairImNS_22__unordered_map_hasherI9DirectionNS_17__hash_value_typeIS2_NS_12basic_stringIcNS_11char_traitsIcEENS_9allocatorIcEEEEEENS_4hashIS2_EENS_8equal_toIS2_EELb1EEEEC1B7v160006IiNS_18__default_init_tagEEEOT_OT0_, symObjAddr: 0x279AC, symBinAddr: 0x10002ACBC, symSize: 0x3C }
  - { offsetInCU: 0x5D2F7, offset: 0x5D2F7, size: 0x8, addend: 0x0, symName: __ZNSt3__117__compressed_pairIfNS_21__unordered_map_equalI9DirectionNS_17__hash_value_typeIS2_NS_12basic_stringIcNS_11char_traitsIcEENS_9allocatorIcEEEEEENS_8equal_toIS2_EENS_4hashIS2_EELb1EEEEC1B7v160006IfNS_18__default_init_tagEEEOT_OT0_, symObjAddr: 0x279E8, symBinAddr: 0x10002ACF8, symSize: 0x3C }
  - { offsetInCU: 0x5D34F, offset: 0x5D34F, size: 0x8, addend: 0x0, symName: __ZNSt3__110unique_ptrIA_PNS_16__hash_node_baseIPNS_11__hash_nodeINS_17__hash_value_typeI9DirectionNS_12basic_stringIcNS_11char_traitsIcEENS_9allocatorIcEEEEEEPvEEEENS_25__bucket_list_deallocatorINS8_ISG_EEEEEC2B7v160006ILb1EvEEv, symObjAddr: 0x27A24, symBinAddr: 0x10002AD34, symSize: 0x3C }
  - { offsetInCU: 0x5D38A, offset: 0x5D38A, size: 0x8, addend: 0x0, symName: __ZNSt3__117__compressed_pairIPPNS_16__hash_node_baseIPNS_11__hash_nodeINS_17__hash_value_typeI9DirectionNS_12basic_stringIcNS_11char_traitsIcEENS_9allocatorIcEEEEEEPvEEEENS_25__bucket_list_deallocatorINS8_ISG_EEEEEC1B7v160006INS_16__value_init_tagESN_EEOT_OT0_, symObjAddr: 0x27A60, symBinAddr: 0x10002AD70, symSize: 0x3C }
  - { offsetInCU: 0x5D3E2, offset: 0x5D3E2, size: 0x8, addend: 0x0, symName: __ZNSt3__117__compressed_pairIPPNS_16__hash_node_baseIPNS_11__hash_nodeINS_17__hash_value_typeI9DirectionNS_12basic_stringIcNS_11char_traitsIcEENS_9allocatorIcEEEEEEPvEEEENS_25__bucket_list_deallocatorINS8_ISG_EEEEEC2B7v160006INS_16__value_init_tagESN_EEOT_OT0_, symObjAddr: 0x27A9C, symBinAddr: 0x10002ADAC, symSize: 0x40 }
  - { offsetInCU: 0x5D43A, offset: 0x5D43A, size: 0x8, addend: 0x0, symName: __ZNSt3__122__compressed_pair_elemIPPNS_16__hash_node_baseIPNS_11__hash_nodeINS_17__hash_value_typeI9DirectionNS_12basic_stringIcNS_11char_traitsIcEENS_9allocatorIcEEEEEEPvEEEELi0ELb0EEC2B7v160006ENS_16__value_init_tagE, symObjAddr: 0x27ADC, symBinAddr: 0x10002ADEC, symSize: 0x18 }
  - { offsetInCU: 0x5D46E, offset: 0x5D46E, size: 0x8, addend: 0x0, symName: __ZNSt3__122__compressed_pair_elemINS_25__bucket_list_deallocatorINS_9allocatorIPNS_16__hash_node_baseIPNS_11__hash_nodeINS_17__hash_value_typeI9DirectionNS_12basic_stringIcNS_11char_traitsIcEENS2_IcEEEEEEPvEEEEEEEELi1ELb0EEC2B7v160006ENS_16__value_init_tagE, symObjAddr: 0x27AF4, symBinAddr: 0x10002AE04, symSize: 0x2C }
  - { offsetInCU: 0x5D4A2, offset: 0x5D4A2, size: 0x8, addend: 0x0, symName: __ZNSt3__125__bucket_list_deallocatorINS_9allocatorIPNS_16__hash_node_baseIPNS_11__hash_nodeINS_17__hash_value_typeI9DirectionNS_12basic_stringIcNS_11char_traitsIcEENS1_IcEEEEEEPvEEEEEEEC1B7v160006Ev, symObjAddr: 0x27B20, symBinAddr: 0x10002AE30, symSize: 0x2C }
  - { offsetInCU: 0x5D4CC, offset: 0x5D4CC, size: 0x8, addend: 0x0, symName: __ZNSt3__125__bucket_list_deallocatorINS_9allocatorIPNS_16__hash_node_baseIPNS_11__hash_nodeINS_17__hash_value_typeI9DirectionNS_12basic_stringIcNS_11char_traitsIcEENS1_IcEEEEEEPvEEEEEEEC2B7v160006Ev, symObjAddr: 0x27B4C, symBinAddr: 0x10002AE5C, symSize: 0x40 }
  - { offsetInCU: 0x5D4F6, offset: 0x5D4F6, size: 0x8, addend: 0x0, symName: __ZNSt3__117__compressed_pairImNS_9allocatorIPNS_16__hash_node_baseIPNS_11__hash_nodeINS_17__hash_value_typeI9DirectionNS_12basic_stringIcNS_11char_traitsIcEENS1_IcEEEEEEPvEEEEEEEC1B7v160006IiNS_18__default_init_tagEEEOT_OT0_, symObjAddr: 0x27B8C, symBinAddr: 0x10002AE9C, symSize: 0x3C }
  - { offsetInCU: 0x5D54E, offset: 0x5D54E, size: 0x8, addend: 0x0, symName: __ZNSt3__117__compressed_pairImNS_9allocatorIPNS_16__hash_node_baseIPNS_11__hash_nodeINS_17__hash_value_typeI9DirectionNS_12basic_stringIcNS_11char_traitsIcEENS1_IcEEEEEEPvEEEEEEEC2B7v160006IiNS_18__default_init_tagEEEOT_OT0_, symObjAddr: 0x27BC8, symBinAddr: 0x10002AED8, symSize: 0x40 }
  - { offsetInCU: 0x5D5A6, offset: 0x5D5A6, size: 0x8, addend: 0x0, symName: __ZNSt3__122__compressed_pair_elemINS_9allocatorIPNS_16__hash_node_baseIPNS_11__hash_nodeINS_17__hash_value_typeI9DirectionNS_12basic_stringIcNS_11char_traitsIcEENS1_IcEEEEEEPvEEEEEELi1ELb1EEC2B7v160006ENS_18__default_init_tagE, symObjAddr: 0x27C08, symBinAddr: 0x10002AF18, symSize: 0x2C }
  - { offsetInCU: 0x5D5DA, offset: 0x5D5DA, size: 0x8, addend: 0x0, symName: __ZNSt3__19allocatorIPNS_16__hash_node_baseIPNS_11__hash_nodeINS_17__hash_value_typeI9DirectionNS_12basic_stringIcNS_11char_traitsIcEENS0_IcEEEEEEPvEEEEEC2B7v160006Ev, symObjAddr: 0x27C34, symBinAddr: 0x10002AF44, symSize: 0x2C }
  - { offsetInCU: 0x5D604, offset: 0x5D604, size: 0x8, addend: 0x0, symName: __ZNSt3__116__non_trivial_ifILb1ENS_9allocatorIPNS_16__hash_node_baseIPNS_11__hash_nodeINS_17__hash_value_typeI9DirectionNS_12basic_stringIcNS_11char_traitsIcEENS1_IcEEEEEEPvEEEEEEEC2B7v160006Ev, symObjAddr: 0x27C60, symBinAddr: 0x10002AF70, symSize: 0x14 }
  - { offsetInCU: 0x5D62E, offset: 0x5D62E, size: 0x8, addend: 0x0, symName: __ZNSt3__117__compressed_pairINS_16__hash_node_baseIPNS_11__hash_nodeINS_17__hash_value_typeI9DirectionNS_12basic_stringIcNS_11char_traitsIcEENS_9allocatorIcEEEEEEPvEEEENS8_ISD_EEEC2B7v160006ILb1EvEEv, symObjAddr: 0x27C74, symBinAddr: 0x10002AF84, symSize: 0x34 }
  - { offsetInCU: 0x5D663, offset: 0x5D663, size: 0x8, addend: 0x0, symName: __ZNSt3__122__compressed_pair_elemINS_16__hash_node_baseIPNS_11__hash_nodeINS_17__hash_value_typeI9DirectionNS_12basic_stringIcNS_11char_traitsIcEENS_9allocatorIcEEEEEEPvEEEELi0ELb0EEC2B7v160006ENS_16__value_init_tagE, symObjAddr: 0x27CA8, symBinAddr: 0x10002AFB8, symSize: 0x2C }
  - { offsetInCU: 0x5D697, offset: 0x5D697, size: 0x8, addend: 0x0, symName: __ZNSt3__122__compressed_pair_elemINS_9allocatorINS_11__hash_nodeINS_17__hash_value_typeI9DirectionNS_12basic_stringIcNS_11char_traitsIcEENS1_IcEEEEEEPvEEEELi1ELb1EEC2B7v160006ENS_16__value_init_tagE, symObjAddr: 0x27CD4, symBinAddr: 0x10002AFE4, symSize: 0x2C }
  - { offsetInCU: 0x5D6CB, offset: 0x5D6CB, size: 0x8, addend: 0x0, symName: __ZNSt3__116__hash_node_baseIPNS_11__hash_nodeINS_17__hash_value_typeI9DirectionNS_12basic_stringIcNS_11char_traitsIcEENS_9allocatorIcEEEEEEPvEEEC1B7v160006Ev, symObjAddr: 0x27D00, symBinAddr: 0x10002B010, symSize: 0x2C }
  - { offsetInCU: 0x5D6F5, offset: 0x5D6F5, size: 0x8, addend: 0x0, symName: __ZNSt3__116__hash_node_baseIPNS_11__hash_nodeINS_17__hash_value_typeI9DirectionNS_12basic_stringIcNS_11char_traitsIcEENS_9allocatorIcEEEEEEPvEEEC2B7v160006Ev, symObjAddr: 0x27D2C, symBinAddr: 0x10002B03C, symSize: 0x18 }
  - { offsetInCU: 0x5D71F, offset: 0x5D71F, size: 0x8, addend: 0x0, symName: __ZNSt3__19allocatorINS_11__hash_nodeINS_17__hash_value_typeI9DirectionNS_12basic_stringIcNS_11char_traitsIcEENS0_IcEEEEEEPvEEEC2B7v160006Ev, symObjAddr: 0x27D44, symBinAddr: 0x10002B054, symSize: 0x2C }
  - { offsetInCU: 0x5D749, offset: 0x5D749, size: 0x8, addend: 0x0, symName: __ZNSt3__116__non_trivial_ifILb1ENS_9allocatorINS_11__hash_nodeINS_17__hash_value_typeI9DirectionNS_12basic_stringIcNS_11char_traitsIcEENS1_IcEEEEEEPvEEEEEC2B7v160006Ev, symObjAddr: 0x27D70, symBinAddr: 0x10002B080, symSize: 0x14 }
  - { offsetInCU: 0x5D773, offset: 0x5D773, size: 0x8, addend: 0x0, symName: __ZNSt3__117__compressed_pairImNS_22__unordered_map_hasherI9DirectionNS_17__hash_value_typeIS2_NS_12basic_stringIcNS_11char_traitsIcEENS_9allocatorIcEEEEEENS_4hashIS2_EENS_8equal_toIS2_EELb1EEEEC2B7v160006IiNS_18__default_init_tagEEEOT_OT0_, symObjAddr: 0x27D84, symBinAddr: 0x10002B094, symSize: 0x40 }
  - { offsetInCU: 0x5D7CB, offset: 0x5D7CB, size: 0x8, addend: 0x0, symName: __ZNSt3__122__compressed_pair_elemINS_22__unordered_map_hasherI9DirectionNS_17__hash_value_typeIS2_NS_12basic_stringIcNS_11char_traitsIcEENS_9allocatorIcEEEEEENS_4hashIS2_EENS_8equal_toIS2_EELb1EEELi1ELb1EEC2B7v160006ENS_18__default_init_tagE, symObjAddr: 0x27DC4, symBinAddr: 0x10002B0D4, symSize: 0x2C }
  - { offsetInCU: 0x5D7FF, offset: 0x5D7FF, size: 0x8, addend: 0x0, symName: __ZNSt3__122__unordered_map_hasherI9DirectionNS_17__hash_value_typeIS1_NS_12basic_stringIcNS_11char_traitsIcEENS_9allocatorIcEEEEEENS_4hashIS1_EENS_8equal_toIS1_EELb1EEC2B7v160006Ev, symObjAddr: 0x27DF0, symBinAddr: 0x10002B100, symSize: 0x14 }
  - { offsetInCU: 0x5D829, offset: 0x5D829, size: 0x8, addend: 0x0, symName: __ZNSt3__117__compressed_pairIfNS_21__unordered_map_equalI9DirectionNS_17__hash_value_typeIS2_NS_12basic_stringIcNS_11char_traitsIcEENS_9allocatorIcEEEEEENS_8equal_toIS2_EENS_4hashIS2_EELb1EEEEC2B7v160006IfNS_18__default_init_tagEEEOT_OT0_, symObjAddr: 0x27E04, symBinAddr: 0x10002B114, symSize: 0x40 }
  - { offsetInCU: 0x5D881, offset: 0x5D881, size: 0x8, addend: 0x0, symName: __ZNSt3__122__compressed_pair_elemIfLi0ELb0EEC2B7v160006IfvEEOT_, symObjAddr: 0x27E44, symBinAddr: 0x10002B154, symSize: 0x24 }
  - { offsetInCU: 0x5D8C3, offset: 0x5D8C3, size: 0x8, addend: 0x0, symName: __ZNSt3__122__compressed_pair_elemINS_21__unordered_map_equalI9DirectionNS_17__hash_value_typeIS2_NS_12basic_stringIcNS_11char_traitsIcEENS_9allocatorIcEEEEEENS_8equal_toIS2_EENS_4hashIS2_EELb1EEELi1ELb1EEC2B7v160006ENS_18__default_init_tagE, symObjAddr: 0x27E68, symBinAddr: 0x10002B178, symSize: 0x2C }
  - { offsetInCU: 0x5D8F7, offset: 0x5D8F7, size: 0x8, addend: 0x0, symName: __ZNSt3__121__unordered_map_equalI9DirectionNS_17__hash_value_typeIS1_NS_12basic_stringIcNS_11char_traitsIcEENS_9allocatorIcEEEEEENS_8equal_toIS1_EENS_4hashIS1_EELb1EEC2B7v160006Ev, symObjAddr: 0x27E94, symBinAddr: 0x10002B1A4, symSize: 0x14 }
  - { offsetInCU: 0x5D921, offset: 0x5D921, size: 0x8, addend: 0x0, symName: __ZNSt3__112__hash_tableINS_17__hash_value_typeI9DirectionNS_12basic_stringIcNS_11char_traitsIcEENS_9allocatorIcEEEEEENS_22__unordered_map_hasherIS2_S9_NS_4hashIS2_EENS_8equal_toIS2_EELb1EEENS_21__unordered_map_equalIS2_S9_SE_SC_Lb1EEENS6_IS9_EEE15__insert_uniqueB7v160006ERKNS_4pairIKS2_S8_EE, symObjAddr: 0x27EA8, symBinAddr: 0x10002B1B8, symSize: 0x50 }
  - { offsetInCU: 0x5D956, offset: 0x5D956, size: 0x8, addend: 0x0, symName: __ZNSt3__112__hash_tableINS_17__hash_value_typeI9DirectionNS_12basic_stringIcNS_11char_traitsIcEENS_9allocatorIcEEEEEENS_22__unordered_map_hasherIS2_S9_NS_4hashIS2_EENS_8equal_toIS2_EELb1EEENS_21__unordered_map_equalIS2_S9_SE_SC_Lb1EEENS6_IS9_EEE25__emplace_unique_key_argsIS2_JRKNS_4pairIKS2_S8_EEEEENSL_INS_15__hash_iteratorIPNS_11__hash_nodeIS9_PvEEEEbEERKT_DpOT0_, symObjAddr: 0x27EF8, symBinAddr: 0x10002B208, symSize: 0x4C0 }
  - { offsetInCU: 0x5DA36, offset: 0x5DA36, size: 0x8, addend: 0x0, symName: __ZNSt3__122__hash_key_value_typesINS_17__hash_value_typeI9DirectionNS_12basic_stringIcNS_11char_traitsIcEENS_9allocatorIcEEEEEEE9__get_keyB7v160006ERKNS_4pairIKS2_S8_EE, symObjAddr: 0x283B8, symBinAddr: 0x10002B6C8, symSize: 0x14 }
  - { offsetInCU: 0x5DA59, offset: 0x5DA59, size: 0x8, addend: 0x0, symName: __ZNSt3__112__hash_tableINS_17__hash_value_typeI9DirectionNS_12basic_stringIcNS_11char_traitsIcEENS_9allocatorIcEEEEEENS_22__unordered_map_hasherIS2_S9_NS_4hashIS2_EENS_8equal_toIS2_EELb1EEENS_21__unordered_map_equalIS2_S9_SE_SC_Lb1EEENS6_IS9_EEE13hash_functionB7v160006Ev, symObjAddr: 0x283CC, symBinAddr: 0x10002B6DC, symSize: 0x28 }
  - { offsetInCU: 0x5DA7F, offset: 0x5DA7F, size: 0x8, addend: 0x0, symName: __ZNKSt3__122__unordered_map_hasherI9DirectionNS_17__hash_value_typeIS1_NS_12basic_stringIcNS_11char_traitsIcEENS_9allocatorIcEEEEEENS_4hashIS1_EENS_8equal_toIS1_EELb1EEclB7v160006ERKS1_, symObjAddr: 0x283F4, symBinAddr: 0x10002B704, symSize: 0x30 }
  - { offsetInCU: 0x5DAB4, offset: 0x5DAB4, size: 0x8, addend: 0x0, symName: __ZNKSt3__112__hash_tableINS_17__hash_value_typeI9DirectionNS_12basic_stringIcNS_11char_traitsIcEENS_9allocatorIcEEEEEENS_22__unordered_map_hasherIS2_S9_NS_4hashIS2_EENS_8equal_toIS2_EELb1EEENS_21__unordered_map_equalIS2_S9_SE_SC_Lb1EEENS6_IS9_EEE12bucket_countB7v160006Ev, symObjAddr: 0x28424, symBinAddr: 0x10002B734, symSize: 0x28 }
  - { offsetInCU: 0x5DADA, offset: 0x5DADA, size: 0x8, addend: 0x0, symName: __ZNKSt3__110unique_ptrIA_PNS_16__hash_node_baseIPNS_11__hash_nodeINS_17__hash_value_typeI9DirectionNS_12basic_stringIcNS_11char_traitsIcEENS_9allocatorIcEEEEEEPvEEEENS_25__bucket_list_deallocatorINS8_ISG_EEEEEixB7v160006Em, symObjAddr: 0x284E4, symBinAddr: 0x10002B7F4, symSize: 0x34 }
  - { offsetInCU: 0x5DB0F, offset: 0x5DB0F, size: 0x8, addend: 0x0, symName: __ZNKSt3__116__hash_node_baseIPNS_11__hash_nodeINS_17__hash_value_typeI9DirectionNS_12basic_stringIcNS_11char_traitsIcEENS_9allocatorIcEEEEEEPvEEE6__hashB7v160006Ev, symObjAddr: 0x28518, symBinAddr: 0x10002B828, symSize: 0x18 }
  - { offsetInCU: 0x5DB35, offset: 0x5DB35, size: 0x8, addend: 0x0, symName: __ZNSt3__112__hash_tableINS_17__hash_value_typeI9DirectionNS_12basic_stringIcNS_11char_traitsIcEENS_9allocatorIcEEEEEENS_22__unordered_map_hasherIS2_S9_NS_4hashIS2_EENS_8equal_toIS2_EELb1EEENS_21__unordered_map_equalIS2_S9_SE_SC_Lb1EEENS6_IS9_EEE6key_eqB7v160006Ev, symObjAddr: 0x28530, symBinAddr: 0x10002B840, symSize: 0x28 }
  - { offsetInCU: 0x5DB5B, offset: 0x5DB5B, size: 0x8, addend: 0x0, symName: __ZNKSt3__121__unordered_map_equalI9DirectionNS_17__hash_value_typeIS1_NS_12basic_stringIcNS_11char_traitsIcEENS_9allocatorIcEEEEEENS_8equal_toIS1_EENS_4hashIS1_EELb1EEclB7v160006ERKS9_RKS1_, symObjAddr: 0x28558, symBinAddr: 0x10002B868, symSize: 0x48 }
  - { offsetInCU: 0x5DB9F, offset: 0x5DB9F, size: 0x8, addend: 0x0, symName: __ZNSt3__116__hash_node_baseIPNS_11__hash_nodeINS_17__hash_value_typeI9DirectionNS_12basic_stringIcNS_11char_traitsIcEENS_9allocatorIcEEEEEEPvEEE8__upcastB7v160006Ev, symObjAddr: 0x285A0, symBinAddr: 0x10002B8B0, symSize: 0x24 }
  - { offsetInCU: 0x5DBC5, offset: 0x5DBC5, size: 0x8, addend: 0x0, symName: __ZNSt3__112__hash_tableINS_17__hash_value_typeI9DirectionNS_12basic_stringIcNS_11char_traitsIcEENS_9allocatorIcEEEEEENS_22__unordered_map_hasherIS2_S9_NS_4hashIS2_EENS_8equal_toIS2_EELb1EEENS_21__unordered_map_equalIS2_S9_SE_SC_Lb1EEENS6_IS9_EEE21__construct_node_hashIRKNS_4pairIKS2_S8_EEJEEENS_10unique_ptrINS_11__hash_nodeIS9_PvEENS_22__hash_node_destructorINS6_IST_EEEEEEmOT_DpOT0_, symObjAddr: 0x285C4, symBinAddr: 0x10002B8D4, symSize: 0x140 }
  - { offsetInCU: 0x5DC38, offset: 0x5DC38, size: 0x8, addend: 0x0, symName: __ZNSt3__112__hash_tableINS_17__hash_value_typeI9DirectionNS_12basic_stringIcNS_11char_traitsIcEENS_9allocatorIcEEEEEENS_22__unordered_map_hasherIS2_S9_NS_4hashIS2_EENS_8equal_toIS2_EELb1EEENS_21__unordered_map_equalIS2_S9_SE_SC_Lb1EEENS6_IS9_EEE4sizeB7v160006Ev, symObjAddr: 0x28704, symBinAddr: 0x10002BA14, symSize: 0x28 }
  - { offsetInCU: 0x5DC5E, offset: 0x5DC5E, size: 0x8, addend: 0x0, symName: __ZNSt3__112__hash_tableINS_17__hash_value_typeI9DirectionNS_12basic_stringIcNS_11char_traitsIcEENS_9allocatorIcEEEEEENS_22__unordered_map_hasherIS2_S9_NS_4hashIS2_EENS_8equal_toIS2_EELb1EEENS_21__unordered_map_equalIS2_S9_SE_SC_Lb1EEENS6_IS9_EEE15max_load_factorB7v160006Ev, symObjAddr: 0x2872C, symBinAddr: 0x10002BA3C, symSize: 0x28 }
  - { offsetInCU: 0x5DC84, offset: 0x5DC84, size: 0x8, addend: 0x0, symName: __ZNSt3__112__hash_tableINS_17__hash_value_typeI9DirectionNS_12basic_stringIcNS_11char_traitsIcEENS_9allocatorIcEEEEEENS_22__unordered_map_hasherIS2_S9_NS_4hashIS2_EENS_8equal_toIS2_EELb1EEENS_21__unordered_map_equalIS2_S9_SE_SC_Lb1EEENS6_IS9_EEE15__rehash_uniqueB7v160006Em, symObjAddr: 0x28754, symBinAddr: 0x10002BA64, symSize: 0x2C }
  - { offsetInCU: 0x5DCB9, offset: 0x5DCB9, size: 0x8, addend: 0x0, symName: __Z4ceilB7v160006f, symObjAddr: 0x287D0, symBinAddr: 0x10002BAE0, symSize: 0x18 }
  - { offsetInCU: 0x5DCE7, offset: 0x5DCE7, size: 0x8, addend: 0x0, symName: __ZNSt3__117__compressed_pairINS_16__hash_node_baseIPNS_11__hash_nodeINS_17__hash_value_typeI9DirectionNS_12basic_stringIcNS_11char_traitsIcEENS_9allocatorIcEEEEEEPvEEEENS8_ISD_EEE5firstB7v160006Ev, symObjAddr: 0x287E8, symBinAddr: 0x10002BAF8, symSize: 0x24 }
  - { offsetInCU: 0x5DD0D, offset: 0x5DD0D, size: 0x8, addend: 0x0, symName: __ZNSt3__116__hash_node_baseIPNS_11__hash_nodeINS_17__hash_value_typeI9DirectionNS_12basic_stringIcNS_11char_traitsIcEENS_9allocatorIcEEEEEEPvEEE5__ptrB7v160006Ev, symObjAddr: 0x2880C, symBinAddr: 0x10002BB1C, symSize: 0x24 }
  - { offsetInCU: 0x5DD33, offset: 0x5DD33, size: 0x8, addend: 0x0, symName: __ZNKSt3__110unique_ptrINS_11__hash_nodeINS_17__hash_value_typeI9DirectionNS_12basic_stringIcNS_11char_traitsIcEENS_9allocatorIcEEEEEEPvEENS_22__hash_node_destructorINS7_ISC_EEEEEptB7v160006Ev, symObjAddr: 0x28830, symBinAddr: 0x10002BB40, symSize: 0x28 }
  - { offsetInCU: 0x5DD59, offset: 0x5DD59, size: 0x8, addend: 0x0, symName: __ZNKSt3__110unique_ptrINS_11__hash_nodeINS_17__hash_value_typeI9DirectionNS_12basic_stringIcNS_11char_traitsIcEENS_9allocatorIcEEEEEEPvEENS_22__hash_node_destructorINS7_ISC_EEEEE3getB7v160006Ev, symObjAddr: 0x28858, symBinAddr: 0x10002BB68, symSize: 0x28 }
  - { offsetInCU: 0x5DD7F, offset: 0x5DD7F, size: 0x8, addend: 0x0, symName: __ZNSt3__110unique_ptrINS_11__hash_nodeINS_17__hash_value_typeI9DirectionNS_12basic_stringIcNS_11char_traitsIcEENS_9allocatorIcEEEEEEPvEENS_22__hash_node_destructorINS7_ISC_EEEEE7releaseB7v160006Ev, symObjAddr: 0x28880, symBinAddr: 0x10002BB90, symSize: 0x44 }
  - { offsetInCU: 0x5DDB4, offset: 0x5DDB4, size: 0x8, addend: 0x0, symName: __ZNSt3__110unique_ptrINS_11__hash_nodeINS_17__hash_value_typeI9DirectionNS_12basic_stringIcNS_11char_traitsIcEENS_9allocatorIcEEEEEEPvEENS_22__hash_node_destructorINS7_ISC_EEEEED1B7v160006Ev, symObjAddr: 0x288C4, symBinAddr: 0x10002BBD4, symSize: 0x2C }
  - { offsetInCU: 0x5DDDE, offset: 0x5DDDE, size: 0x8, addend: 0x0, symName: __ZNSt3__115__hash_iteratorIPNS_11__hash_nodeINS_17__hash_value_typeI9DirectionNS_12basic_stringIcNS_11char_traitsIcEENS_9allocatorIcEEEEEEPvEEEC1B7v160006EPNS_16__hash_node_baseISD_EEPKv, symObjAddr: 0x288F0, symBinAddr: 0x10002BC00, symSize: 0x3C }
  - { offsetInCU: 0x5DE2C, offset: 0x5DE2C, size: 0x8, addend: 0x0, symName: __ZNSt3__14pairINS_15__hash_iteratorIPNS_11__hash_nodeINS_17__hash_value_typeI9DirectionNS_12basic_stringIcNS_11char_traitsIcEENS_9allocatorIcEEEEEEPvEEEEbEC1B7v160006ISF_RbLSC_0EEEOT_OT0_, symObjAddr: 0x2892C, symBinAddr: 0x10002BC3C, symSize: 0x3C }
  - { offsetInCU: 0x5DE8A, offset: 0x5DE8A, size: 0x8, addend: 0x0, symName: __ZNSt3__117__compressed_pairImNS_22__unordered_map_hasherI9DirectionNS_17__hash_value_typeIS2_NS_12basic_stringIcNS_11char_traitsIcEENS_9allocatorIcEEEEEENS_4hashIS2_EENS_8equal_toIS2_EELb1EEEE6secondB7v160006Ev, symObjAddr: 0x28968, symBinAddr: 0x10002BC78, symSize: 0x24 }
  - { offsetInCU: 0x5DEB0, offset: 0x5DEB0, size: 0x8, addend: 0x0, symName: __ZNSt3__122__compressed_pair_elemINS_22__unordered_map_hasherI9DirectionNS_17__hash_value_typeIS2_NS_12basic_stringIcNS_11char_traitsIcEENS_9allocatorIcEEEEEENS_4hashIS2_EENS_8equal_toIS2_EELb1EEELi1ELb1EE5__getB7v160006Ev, symObjAddr: 0x2898C, symBinAddr: 0x10002BC9C, symSize: 0x14 }
  - { offsetInCU: 0x5DEE1, offset: 0x5DEE1, size: 0x8, addend: 0x0, symName: __ZNKSt3__14hashIiEclB7v160006Ei, symObjAddr: 0x289CC, symBinAddr: 0x10002BCDC, symSize: 0x18 }
  - { offsetInCU: 0x5DF16, offset: 0x5DF16, size: 0x8, addend: 0x0, symName: __ZNKSt3__110unique_ptrIA_PNS_16__hash_node_baseIPNS_11__hash_nodeINS_17__hash_value_typeI9DirectionNS_12basic_stringIcNS_11char_traitsIcEENS_9allocatorIcEEEEEEPvEEEENS_25__bucket_list_deallocatorINS8_ISG_EEEEE11get_deleterB7v160006Ev, symObjAddr: 0x289E4, symBinAddr: 0x10002BCF4, symSize: 0x24 }
  - { offsetInCU: 0x5DF3C, offset: 0x5DF3C, size: 0x8, addend: 0x0, symName: __ZNKSt3__125__bucket_list_deallocatorINS_9allocatorIPNS_16__hash_node_baseIPNS_11__hash_nodeINS_17__hash_value_typeI9DirectionNS_12basic_stringIcNS_11char_traitsIcEENS1_IcEEEEEEPvEEEEEEE4sizeB7v160006Ev, symObjAddr: 0x28A08, symBinAddr: 0x10002BD18, symSize: 0x28 }
  - { offsetInCU: 0x5DF62, offset: 0x5DF62, size: 0x8, addend: 0x0, symName: __ZNKSt3__117__compressed_pairIPPNS_16__hash_node_baseIPNS_11__hash_nodeINS_17__hash_value_typeI9DirectionNS_12basic_stringIcNS_11char_traitsIcEENS_9allocatorIcEEEEEEPvEEEENS_25__bucket_list_deallocatorINS8_ISG_EEEEE6secondB7v160006Ev, symObjAddr: 0x28A30, symBinAddr: 0x10002BD40, symSize: 0x28 }
  - { offsetInCU: 0x5DF88, offset: 0x5DF88, size: 0x8, addend: 0x0, symName: __ZNKSt3__122__compressed_pair_elemINS_25__bucket_list_deallocatorINS_9allocatorIPNS_16__hash_node_baseIPNS_11__hash_nodeINS_17__hash_value_typeI9DirectionNS_12basic_stringIcNS_11char_traitsIcEENS2_IcEEEEEEPvEEEEEEEELi1ELb0EE5__getB7v160006Ev, symObjAddr: 0x28A58, symBinAddr: 0x10002BD68, symSize: 0x14 }
  - { offsetInCU: 0x5DFAE, offset: 0x5DFAE, size: 0x8, addend: 0x0, symName: __ZNKSt3__117__compressed_pairImNS_9allocatorIPNS_16__hash_node_baseIPNS_11__hash_nodeINS_17__hash_value_typeI9DirectionNS_12basic_stringIcNS_11char_traitsIcEENS1_IcEEEEEEPvEEEEEEE5firstB7v160006Ev, symObjAddr: 0x28A6C, symBinAddr: 0x10002BD7C, symSize: 0x24 }
  - { offsetInCU: 0x5DFD4, offset: 0x5DFD4, size: 0x8, addend: 0x0, symName: __ZNKSt3__117__compressed_pairIPPNS_16__hash_node_baseIPNS_11__hash_nodeINS_17__hash_value_typeI9DirectionNS_12basic_stringIcNS_11char_traitsIcEENS_9allocatorIcEEEEEEPvEEEENS_25__bucket_list_deallocatorINS8_ISG_EEEEE5firstB7v160006Ev, symObjAddr: 0x28A90, symBinAddr: 0x10002BDA0, symSize: 0x24 }
  - { offsetInCU: 0x5DFFA, offset: 0x5DFFA, size: 0x8, addend: 0x0, symName: __ZNKSt3__122__compressed_pair_elemIPPNS_16__hash_node_baseIPNS_11__hash_nodeINS_17__hash_value_typeI9DirectionNS_12basic_stringIcNS_11char_traitsIcEENS_9allocatorIcEEEEEEPvEEEELi0ELb0EE5__getB7v160006Ev, symObjAddr: 0x28AB4, symBinAddr: 0x10002BDC4, symSize: 0x14 }
  - { offsetInCU: 0x5E020, offset: 0x5E020, size: 0x8, addend: 0x0, symName: __ZNSt3__117__compressed_pairIfNS_21__unordered_map_equalI9DirectionNS_17__hash_value_typeIS2_NS_12basic_stringIcNS_11char_traitsIcEENS_9allocatorIcEEEEEENS_8equal_toIS2_EENS_4hashIS2_EELb1EEEE6secondB7v160006Ev, symObjAddr: 0x28AC8, symBinAddr: 0x10002BDD8, symSize: 0x24 }
  - { offsetInCU: 0x5E046, offset: 0x5E046, size: 0x8, addend: 0x0, symName: __ZNSt3__122__compressed_pair_elemINS_21__unordered_map_equalI9DirectionNS_17__hash_value_typeIS2_NS_12basic_stringIcNS_11char_traitsIcEENS_9allocatorIcEEEEEENS_8equal_toIS2_EENS_4hashIS2_EELb1EEELi1ELb1EE5__getB7v160006Ev, symObjAddr: 0x28AEC, symBinAddr: 0x10002BDFC, symSize: 0x14 }
  - { offsetInCU: 0x5E06C, offset: 0x5E06C, size: 0x8, addend: 0x0, symName: __ZNKSt3__18equal_toI9DirectionEclB7v160006ERKS1_S4_, symObjAddr: 0x28B00, symBinAddr: 0x10002BE10, symSize: 0x34 }
  - { offsetInCU: 0x5E0B0, offset: 0x5E0B0, size: 0x8, addend: 0x0, symName: __ZNKSt3__117__hash_value_typeI9DirectionNS_12basic_stringIcNS_11char_traitsIcEENS_9allocatorIcEEEEE11__get_valueB7v160006Ev, symObjAddr: 0x28B34, symBinAddr: 0x10002BE44, symSize: 0x24 }
  - { offsetInCU: 0x5E0D6, offset: 0x5E0D6, size: 0x8, addend: 0x0, symName: __ZNSt3__114pointer_traitsIPNS_16__hash_node_baseIPNS_11__hash_nodeINS_17__hash_value_typeI9DirectionNS_12basic_stringIcNS_11char_traitsIcEENS_9allocatorIcEEEEEEPvEEEEE10pointer_toB7v160006ERSF_, symObjAddr: 0x28B90, symBinAddr: 0x10002BEA0, symSize: 0x14 }
  - { offsetInCU: 0x5E0F9, offset: 0x5E0F9, size: 0x8, addend: 0x0, symName: __ZNSt3__112__hash_tableINS_17__hash_value_typeI9DirectionNS_12basic_stringIcNS_11char_traitsIcEENS_9allocatorIcEEEEEENS_22__unordered_map_hasherIS2_S9_NS_4hashIS2_EENS_8equal_toIS2_EELb1EEENS_21__unordered_map_equalIS2_S9_SE_SC_Lb1EEENS6_IS9_EEE12__node_allocB7v160006Ev, symObjAddr: 0x28BA4, symBinAddr: 0x10002BEB4, symSize: 0x28 }
  - { offsetInCU: 0x5E11F, offset: 0x5E11F, size: 0x8, addend: 0x0, symName: __ZNSt3__116allocator_traitsINS_9allocatorINS_11__hash_nodeINS_17__hash_value_typeI9DirectionNS_12basic_stringIcNS_11char_traitsIcEENS1_IcEEEEEEPvEEEEE8allocateB7v160006ERSD_m, symObjAddr: 0x28BCC, symBinAddr: 0x10002BEDC, symSize: 0x2C }
  - { offsetInCU: 0x5E152, offset: 0x5E152, size: 0x8, addend: 0x0, symName: __ZNSt3__122__hash_node_destructorINS_9allocatorINS_11__hash_nodeINS_17__hash_value_typeI9DirectionNS_12basic_stringIcNS_11char_traitsIcEENS1_IcEEEEEEPvEEEEEC1B7v160006ERSD_b, symObjAddr: 0x28BF8, symBinAddr: 0x10002BF08, symSize: 0x48 }
  - { offsetInCU: 0x5E1A0, offset: 0x5E1A0, size: 0x8, addend: 0x0, symName: __ZNSt3__110unique_ptrINS_11__hash_nodeINS_17__hash_value_typeI9DirectionNS_12basic_stringIcNS_11char_traitsIcEENS_9allocatorIcEEEEEEPvEENS_22__hash_node_destructorINS7_ISC_EEEEEC1B7v160006ILb1EvEEPSC_NS_16__dependent_typeINS_27__unique_ptr_deleter_sfinaeISF_EEXT_EE20__good_rval_ref_typeE, symObjAddr: 0x28C40, symBinAddr: 0x10002BF50, symSize: 0x3C }
  - { offsetInCU: 0x5E1F1, offset: 0x5E1F1, size: 0x8, addend: 0x0, symName: __ZNSt3__116allocator_traitsINS_9allocatorINS_11__hash_nodeINS_17__hash_value_typeI9DirectionNS_12basic_stringIcNS_11char_traitsIcEENS1_IcEEEEEEPvEEEEE9constructB7v160006INS_4pairIKS4_S9_EEJRKSI_EvEEvRSD_PT_DpOT0_, symObjAddr: 0x28C7C, symBinAddr: 0x10002BF8C, symSize: 0x34 }
  - { offsetInCU: 0x5E248, offset: 0x5E248, size: 0x8, addend: 0x0, symName: __ZNSt3__122__hash_key_value_typesINS_17__hash_value_typeI9DirectionNS_12basic_stringIcNS_11char_traitsIcEENS_9allocatorIcEEEEEEE9__get_ptrB7v160006ERS9_, symObjAddr: 0x28CB0, symBinAddr: 0x10002BFC0, symSize: 0x24 }
  - { offsetInCU: 0x5E26B, offset: 0x5E26B, size: 0x8, addend: 0x0, symName: __ZNSt3__110unique_ptrINS_11__hash_nodeINS_17__hash_value_typeI9DirectionNS_12basic_stringIcNS_11char_traitsIcEENS_9allocatorIcEEEEEEPvEENS_22__hash_node_destructorINS7_ISC_EEEEE11get_deleterB7v160006Ev, symObjAddr: 0x28CD4, symBinAddr: 0x10002BFE4, symSize: 0x24 }
  - { offsetInCU: 0x5E291, offset: 0x5E291, size: 0x8, addend: 0x0, symName: __ZNSt3__117__compressed_pairINS_16__hash_node_baseIPNS_11__hash_nodeINS_17__hash_value_typeI9DirectionNS_12basic_stringIcNS_11char_traitsIcEENS_9allocatorIcEEEEEEPvEEEENS8_ISD_EEE6secondB7v160006Ev, symObjAddr: 0x28CF8, symBinAddr: 0x10002C008, symSize: 0x24 }
  - { offsetInCU: 0x5E2B7, offset: 0x5E2B7, size: 0x8, addend: 0x0, symName: __ZNSt3__122__compressed_pair_elemINS_9allocatorINS_11__hash_nodeINS_17__hash_value_typeI9DirectionNS_12basic_stringIcNS_11char_traitsIcEENS1_IcEEEEEEPvEEEELi1ELb1EE5__getB7v160006Ev, symObjAddr: 0x28D1C, symBinAddr: 0x10002C02C, symSize: 0x14 }
  - { offsetInCU: 0x5E2DD, offset: 0x5E2DD, size: 0x8, addend: 0x0, symName: __ZNSt3__19allocatorINS_11__hash_nodeINS_17__hash_value_typeI9DirectionNS_12basic_stringIcNS_11char_traitsIcEENS0_IcEEEEEEPvEEE8allocateB7v160006Em, symObjAddr: 0x28D30, symBinAddr: 0x10002C040, symSize: 0x5C }
  - { offsetInCU: 0x5E31C, offset: 0x5E31C, size: 0x8, addend: 0x0, symName: __ZNSt3__116allocator_traitsINS_9allocatorINS_11__hash_nodeINS_17__hash_value_typeI9DirectionNS_12basic_stringIcNS_11char_traitsIcEENS1_IcEEEEEEPvEEEEE8max_sizeB7v160006ISD_vEEmRKSD_, symObjAddr: 0x28D8C, symBinAddr: 0x10002C09C, symSize: 0x24 }
  - { offsetInCU: 0x5E34A, offset: 0x5E34A, size: 0x8, addend: 0x0, symName: __ZNKSt3__19allocatorINS_11__hash_nodeINS_17__hash_value_typeI9DirectionNS_12basic_stringIcNS_11char_traitsIcEENS0_IcEEEEEEPvEEE8max_sizeB7v160006Ev, symObjAddr: 0x28DB0, symBinAddr: 0x10002C0C0, symSize: 0x18 }
  - { offsetInCU: 0x5E370, offset: 0x5E370, size: 0x8, addend: 0x0, symName: __ZNSt3__122__hash_node_destructorINS_9allocatorINS_11__hash_nodeINS_17__hash_value_typeI9DirectionNS_12basic_stringIcNS_11char_traitsIcEENS1_IcEEEEEEPvEEEEEC2B7v160006ERSD_b, symObjAddr: 0x28DC8, symBinAddr: 0x10002C0D8, symSize: 0x38 }
  - { offsetInCU: 0x5E3B8, offset: 0x5E3B8, size: 0x8, addend: 0x0, symName: __ZNSt3__110unique_ptrINS_11__hash_nodeINS_17__hash_value_typeI9DirectionNS_12basic_stringIcNS_11char_traitsIcEENS_9allocatorIcEEEEEEPvEENS_22__hash_node_destructorINS7_ISC_EEEEEC2B7v160006ILb1EvEEPSC_NS_16__dependent_typeINS_27__unique_ptr_deleter_sfinaeISF_EEXT_EE20__good_rval_ref_typeE, symObjAddr: 0x28E00, symBinAddr: 0x10002C110, symSize: 0x48 }
  - { offsetInCU: 0x5E409, offset: 0x5E409, size: 0x8, addend: 0x0, symName: __ZNSt3__117__compressed_pairIPNS_11__hash_nodeINS_17__hash_value_typeI9DirectionNS_12basic_stringIcNS_11char_traitsIcEENS_9allocatorIcEEEEEEPvEENS_22__hash_node_destructorINS7_ISC_EEEEEC1B7v160006IRSD_SG_EEOT_OT0_, symObjAddr: 0x28E48, symBinAddr: 0x10002C158, symSize: 0x3C }
  - { offsetInCU: 0x5E461, offset: 0x5E461, size: 0x8, addend: 0x0, symName: __ZNSt3__117__compressed_pairIPNS_11__hash_nodeINS_17__hash_value_typeI9DirectionNS_12basic_stringIcNS_11char_traitsIcEENS_9allocatorIcEEEEEEPvEENS_22__hash_node_destructorINS7_ISC_EEEEEC2B7v160006IRSD_SG_EEOT_OT0_, symObjAddr: 0x28E84, symBinAddr: 0x10002C194, symSize: 0x48 }
  - { offsetInCU: 0x5E4B9, offset: 0x5E4B9, size: 0x8, addend: 0x0, symName: __ZNSt3__122__compressed_pair_elemIPNS_11__hash_nodeINS_17__hash_value_typeI9DirectionNS_12basic_stringIcNS_11char_traitsIcEENS_9allocatorIcEEEEEEPvEELi0ELb0EEC2B7v160006IRSD_vEEOT_, symObjAddr: 0x28ECC, symBinAddr: 0x10002C1DC, symSize: 0x24 }
  - { offsetInCU: 0x5E4FB, offset: 0x5E4FB, size: 0x8, addend: 0x0, symName: __ZNSt3__122__compressed_pair_elemINS_22__hash_node_destructorINS_9allocatorINS_11__hash_nodeINS_17__hash_value_typeI9DirectionNS_12basic_stringIcNS_11char_traitsIcEENS2_IcEEEEEEPvEEEEEELi1ELb0EEC2B7v160006ISF_vEEOT_, symObjAddr: 0x28EF0, symBinAddr: 0x10002C200, symSize: 0x24 }
  - { offsetInCU: 0x5E53D, offset: 0x5E53D, size: 0x8, addend: 0x0, symName: __ZNSt3__19allocatorINS_11__hash_nodeINS_17__hash_value_typeI9DirectionNS_12basic_stringIcNS_11char_traitsIcEENS0_IcEEEEEEPvEEE9constructB7v160006INS_4pairIKS3_S8_EEJRKSG_EEEvPT_DpOT0_, symObjAddr: 0x28F14, symBinAddr: 0x10002C224, symSize: 0x30 }
  - { offsetInCU: 0x5E593, offset: 0x5E593, size: 0x8, addend: 0x0, symName: __ZNSt3__14pairIK9DirectionNS_12basic_stringIcNS_11char_traitsIcEENS_9allocatorIcEEEEEC1ERKS9_, symObjAddr: 0x28F44, symBinAddr: 0x10002C254, symSize: 0x34 }
  - { offsetInCU: 0x5E5C7, offset: 0x5E5C7, size: 0x8, addend: 0x0, symName: __ZNSt3__14pairIK9DirectionNS_12basic_stringIcNS_11char_traitsIcEENS_9allocatorIcEEEEEC2ERKS9_, symObjAddr: 0x28F78, symBinAddr: 0x10002C288, symSize: 0x48 }
  - { offsetInCU: 0x5E5FB, offset: 0x5E5FB, size: 0x8, addend: 0x0, symName: __ZNSt3__117__hash_value_typeI9DirectionNS_12basic_stringIcNS_11char_traitsIcEENS_9allocatorIcEEEEE11__get_valueB7v160006Ev, symObjAddr: 0x28FC0, symBinAddr: 0x10002C2D0, symSize: 0x24 }
  - { offsetInCU: 0x5E621, offset: 0x5E621, size: 0x8, addend: 0x0, symName: __ZNSt3__117__compressed_pairIPNS_11__hash_nodeINS_17__hash_value_typeI9DirectionNS_12basic_stringIcNS_11char_traitsIcEENS_9allocatorIcEEEEEEPvEENS_22__hash_node_destructorINS7_ISC_EEEEE6secondB7v160006Ev, symObjAddr: 0x2901C, symBinAddr: 0x10002C32C, symSize: 0x28 }
  - { offsetInCU: 0x5E647, offset: 0x5E647, size: 0x8, addend: 0x0, symName: __ZNSt3__122__compressed_pair_elemINS_22__hash_node_destructorINS_9allocatorINS_11__hash_nodeINS_17__hash_value_typeI9DirectionNS_12basic_stringIcNS_11char_traitsIcEENS2_IcEEEEEEPvEEEEEELi1ELb0EE5__getB7v160006Ev, symObjAddr: 0x29044, symBinAddr: 0x10002C354, symSize: 0x14 }
  - { offsetInCU: 0x5E66D, offset: 0x5E66D, size: 0x8, addend: 0x0, symName: __ZNSt3__117__compressed_pairImNS_22__unordered_map_hasherI9DirectionNS_17__hash_value_typeIS2_NS_12basic_stringIcNS_11char_traitsIcEENS_9allocatorIcEEEEEENS_4hashIS2_EENS_8equal_toIS2_EELb1EEEE5firstB7v160006Ev, symObjAddr: 0x29058, symBinAddr: 0x10002C368, symSize: 0x24 }
  - { offsetInCU: 0x5E693, offset: 0x5E693, size: 0x8, addend: 0x0, symName: __ZNSt3__117__compressed_pairIfNS_21__unordered_map_equalI9DirectionNS_17__hash_value_typeIS2_NS_12basic_stringIcNS_11char_traitsIcEENS_9allocatorIcEEEEEENS_8equal_toIS2_EENS_4hashIS2_EELb1EEEE5firstB7v160006Ev, symObjAddr: 0x2907C, symBinAddr: 0x10002C38C, symSize: 0x24 }
  - { offsetInCU: 0x5E6B9, offset: 0x5E6B9, size: 0x8, addend: 0x0, symName: __ZNSt3__122__compressed_pair_elemIfLi0ELb0EE5__getB7v160006Ev, symObjAddr: 0x290A0, symBinAddr: 0x10002C3B0, symSize: 0x14 }
  - { offsetInCU: 0x5E6DF, offset: 0x5E6DF, size: 0x8, addend: 0x0, symName: __ZNSt3__112__hash_tableINS_17__hash_value_typeI9DirectionNS_12basic_stringIcNS_11char_traitsIcEENS_9allocatorIcEEEEEENS_22__unordered_map_hasherIS2_S9_NS_4hashIS2_EENS_8equal_toIS2_EELb1EEENS_21__unordered_map_equalIS2_S9_SE_SC_Lb1EEENS6_IS9_EEE8__rehashILb1EEEvm, symObjAddr: 0x290B4, symBinAddr: 0x10002C3C4, symSize: 0x1A8 }
  - { offsetInCU: 0x5E72F, offset: 0x5E72F, size: 0x8, addend: 0x0, symName: __ZNSt3__112__hash_tableINS_17__hash_value_typeI9DirectionNS_12basic_stringIcNS_11char_traitsIcEENS_9allocatorIcEEEEEENS_22__unordered_map_hasherIS2_S9_NS_4hashIS2_EENS_8equal_toIS2_EELb1EEENS_21__unordered_map_equalIS2_S9_SE_SC_Lb1EEENS6_IS9_EEE11__do_rehashILb1EEEvm, symObjAddr: 0x2925C, symBinAddr: 0x10002C56C, symSize: 0x290 }
  - { offsetInCU: 0x5E812, offset: 0x5E812, size: 0x8, addend: 0x0, symName: __ZNSt3__110unique_ptrIA_PNS_16__hash_node_baseIPNS_11__hash_nodeINS_17__hash_value_typeI9DirectionNS_12basic_stringIcNS_11char_traitsIcEENS_9allocatorIcEEEEEEPvEEEENS_25__bucket_list_deallocatorINS8_ISG_EEEEE11get_deleterB7v160006Ev, symObjAddr: 0x29568, symBinAddr: 0x10002C878, symSize: 0x24 }
  - { offsetInCU: 0x5E838, offset: 0x5E838, size: 0x8, addend: 0x0, symName: __ZNSt3__125__bucket_list_deallocatorINS_9allocatorIPNS_16__hash_node_baseIPNS_11__hash_nodeINS_17__hash_value_typeI9DirectionNS_12basic_stringIcNS_11char_traitsIcEENS1_IcEEEEEEPvEEEEEEE7__allocB7v160006Ev, symObjAddr: 0x2958C, symBinAddr: 0x10002C89C, symSize: 0x24 }
  - { offsetInCU: 0x5E85E, offset: 0x5E85E, size: 0x8, addend: 0x0, symName: __ZNSt3__110unique_ptrIA_PNS_16__hash_node_baseIPNS_11__hash_nodeINS_17__hash_value_typeI9DirectionNS_12basic_stringIcNS_11char_traitsIcEENS_9allocatorIcEEEEEEPvEEEENS_25__bucket_list_deallocatorINS8_ISG_EEEEE5resetB7v160006IPSG_EENS_9enable_ifIXsr28_CheckArrayPointerConversionIT_EE5valueEvE4typeESP_, symObjAddr: 0x295B0, symBinAddr: 0x10002C8C0, symSize: 0x78 }
  - { offsetInCU: 0x5E8AB, offset: 0x5E8AB, size: 0x8, addend: 0x0, symName: __ZNSt3__116allocator_traitsINS_9allocatorIPNS_16__hash_node_baseIPNS_11__hash_nodeINS_17__hash_value_typeI9DirectionNS_12basic_stringIcNS_11char_traitsIcEENS1_IcEEEEEEPvEEEEEEE8allocateB7v160006ERSH_m, symObjAddr: 0x29628, symBinAddr: 0x10002C938, symSize: 0x2C }
  - { offsetInCU: 0x5E8DE, offset: 0x5E8DE, size: 0x8, addend: 0x0, symName: __ZNSt3__125__bucket_list_deallocatorINS_9allocatorIPNS_16__hash_node_baseIPNS_11__hash_nodeINS_17__hash_value_typeI9DirectionNS_12basic_stringIcNS_11char_traitsIcEENS1_IcEEEEEEPvEEEEEEE4sizeB7v160006Ev, symObjAddr: 0x29654, symBinAddr: 0x10002C964, symSize: 0x24 }
  - { offsetInCU: 0x5E904, offset: 0x5E904, size: 0x8, addend: 0x0, symName: __ZNSt3__117__compressed_pairIPPNS_16__hash_node_baseIPNS_11__hash_nodeINS_17__hash_value_typeI9DirectionNS_12basic_stringIcNS_11char_traitsIcEENS_9allocatorIcEEEEEEPvEEEENS_25__bucket_list_deallocatorINS8_ISG_EEEEE6secondB7v160006Ev, symObjAddr: 0x29678, symBinAddr: 0x10002C988, symSize: 0x28 }
  - { offsetInCU: 0x5E92A, offset: 0x5E92A, size: 0x8, addend: 0x0, symName: __ZNSt3__122__compressed_pair_elemINS_25__bucket_list_deallocatorINS_9allocatorIPNS_16__hash_node_baseIPNS_11__hash_nodeINS_17__hash_value_typeI9DirectionNS_12basic_stringIcNS_11char_traitsIcEENS2_IcEEEEEEPvEEEEEEEELi1ELb0EE5__getB7v160006Ev, symObjAddr: 0x296A0, symBinAddr: 0x10002C9B0, symSize: 0x14 }
  - { offsetInCU: 0x5E950, offset: 0x5E950, size: 0x8, addend: 0x0, symName: __ZNSt3__117__compressed_pairImNS_9allocatorIPNS_16__hash_node_baseIPNS_11__hash_nodeINS_17__hash_value_typeI9DirectionNS_12basic_stringIcNS_11char_traitsIcEENS1_IcEEEEEEPvEEEEEEE6secondB7v160006Ev, symObjAddr: 0x296B4, symBinAddr: 0x10002C9C4, symSize: 0x24 }
  - { offsetInCU: 0x5E976, offset: 0x5E976, size: 0x8, addend: 0x0, symName: __ZNSt3__122__compressed_pair_elemINS_9allocatorIPNS_16__hash_node_baseIPNS_11__hash_nodeINS_17__hash_value_typeI9DirectionNS_12basic_stringIcNS_11char_traitsIcEENS1_IcEEEEEEPvEEEEEELi1ELb1EE5__getB7v160006Ev, symObjAddr: 0x296D8, symBinAddr: 0x10002C9E8, symSize: 0x14 }
  - { offsetInCU: 0x5E99C, offset: 0x5E99C, size: 0x8, addend: 0x0, symName: __ZNSt3__117__compressed_pairIPPNS_16__hash_node_baseIPNS_11__hash_nodeINS_17__hash_value_typeI9DirectionNS_12basic_stringIcNS_11char_traitsIcEENS_9allocatorIcEEEEEEPvEEEENS_25__bucket_list_deallocatorINS8_ISG_EEEEE5firstB7v160006Ev, symObjAddr: 0x296EC, symBinAddr: 0x10002C9FC, symSize: 0x24 }
  - { offsetInCU: 0x5E9C2, offset: 0x5E9C2, size: 0x8, addend: 0x0, symName: __ZNSt3__125__bucket_list_deallocatorINS_9allocatorIPNS_16__hash_node_baseIPNS_11__hash_nodeINS_17__hash_value_typeI9DirectionNS_12basic_stringIcNS_11char_traitsIcEENS1_IcEEEEEEPvEEEEEEEclB7v160006EPSG_, symObjAddr: 0x29710, symBinAddr: 0x10002CA20, symSize: 0x58 }
  - { offsetInCU: 0x5E9F7, offset: 0x5E9F7, size: 0x8, addend: 0x0, symName: __ZNSt3__122__compressed_pair_elemIPPNS_16__hash_node_baseIPNS_11__hash_nodeINS_17__hash_value_typeI9DirectionNS_12basic_stringIcNS_11char_traitsIcEENS_9allocatorIcEEEEEEPvEEEELi0ELb0EE5__getB7v160006Ev, symObjAddr: 0x29768, symBinAddr: 0x10002CA78, symSize: 0x14 }
  - { offsetInCU: 0x5EA1D, offset: 0x5EA1D, size: 0x8, addend: 0x0, symName: __ZNSt3__116allocator_traitsINS_9allocatorIPNS_16__hash_node_baseIPNS_11__hash_nodeINS_17__hash_value_typeI9DirectionNS_12basic_stringIcNS_11char_traitsIcEENS1_IcEEEEEEPvEEEEEEE10deallocateB7v160006ERSH_PSG_m, symObjAddr: 0x2977C, symBinAddr: 0x10002CA8C, symSize: 0x34 }
  - { offsetInCU: 0x5EA5F, offset: 0x5EA5F, size: 0x8, addend: 0x0, symName: __ZNSt3__19allocatorIPNS_16__hash_node_baseIPNS_11__hash_nodeINS_17__hash_value_typeI9DirectionNS_12basic_stringIcNS_11char_traitsIcEENS0_IcEEEEEEPvEEEEE10deallocateB7v160006EPSF_m, symObjAddr: 0x297B0, symBinAddr: 0x10002CAC0, symSize: 0x40 }
  - { offsetInCU: 0x5EAA1, offset: 0x5EAA1, size: 0x8, addend: 0x0, symName: __ZNSt3__19allocatorIPNS_16__hash_node_baseIPNS_11__hash_nodeINS_17__hash_value_typeI9DirectionNS_12basic_stringIcNS_11char_traitsIcEENS0_IcEEEEEEPvEEEEE8allocateB7v160006Em, symObjAddr: 0x297F0, symBinAddr: 0x10002CB00, symSize: 0x58 }
  - { offsetInCU: 0x5EAE0, offset: 0x5EAE0, size: 0x8, addend: 0x0, symName: __ZNSt3__116allocator_traitsINS_9allocatorIPNS_16__hash_node_baseIPNS_11__hash_nodeINS_17__hash_value_typeI9DirectionNS_12basic_stringIcNS_11char_traitsIcEENS1_IcEEEEEEPvEEEEEEE8max_sizeB7v160006ISH_vEEmRKSH_, symObjAddr: 0x29848, symBinAddr: 0x10002CB58, symSize: 0x24 }
  - { offsetInCU: 0x5EB0E, offset: 0x5EB0E, size: 0x8, addend: 0x0, symName: __ZNKSt3__19allocatorIPNS_16__hash_node_baseIPNS_11__hash_nodeINS_17__hash_value_typeI9DirectionNS_12basic_stringIcNS_11char_traitsIcEENS0_IcEEEEEEPvEEEEE8max_sizeB7v160006Ev, symObjAddr: 0x2986C, symBinAddr: 0x10002CB7C, symSize: 0x14 }
  - { offsetInCU: 0x5EB34, offset: 0x5EB34, size: 0x8, addend: 0x0, symName: __ZNSt3__117__compressed_pairImNS_9allocatorIPNS_16__hash_node_baseIPNS_11__hash_nodeINS_17__hash_value_typeI9DirectionNS_12basic_stringIcNS_11char_traitsIcEENS1_IcEEEEEEPvEEEEEEE5firstB7v160006Ev, symObjAddr: 0x29880, symBinAddr: 0x10002CB90, symSize: 0x24 }
  - { offsetInCU: 0x5EB5A, offset: 0x5EB5A, size: 0x8, addend: 0x0, symName: __ZNSt3__122__compressed_pair_elemINS_16__hash_node_baseIPNS_11__hash_nodeINS_17__hash_value_typeI9DirectionNS_12basic_stringIcNS_11char_traitsIcEENS_9allocatorIcEEEEEEPvEEEELi0ELb0EE5__getB7v160006Ev, symObjAddr: 0x298C0, symBinAddr: 0x10002CBD0, symSize: 0x14 }
  - { offsetInCU: 0x5EB80, offset: 0x5EB80, size: 0x8, addend: 0x0, symName: __ZNKSt3__117__compressed_pairIPNS_11__hash_nodeINS_17__hash_value_typeI9DirectionNS_12basic_stringIcNS_11char_traitsIcEENS_9allocatorIcEEEEEEPvEENS_22__hash_node_destructorINS7_ISC_EEEEE5firstB7v160006Ev, symObjAddr: 0x298D4, symBinAddr: 0x10002CBE4, symSize: 0x24 }
  - { offsetInCU: 0x5EBA6, offset: 0x5EBA6, size: 0x8, addend: 0x0, symName: __ZNKSt3__122__compressed_pair_elemIPNS_11__hash_nodeINS_17__hash_value_typeI9DirectionNS_12basic_stringIcNS_11char_traitsIcEENS_9allocatorIcEEEEEEPvEELi0ELb0EE5__getB7v160006Ev, symObjAddr: 0x298F8, symBinAddr: 0x10002CC08, symSize: 0x14 }
  - { offsetInCU: 0x5EBCC, offset: 0x5EBCC, size: 0x8, addend: 0x0, symName: __ZNSt3__117__compressed_pairIPNS_11__hash_nodeINS_17__hash_value_typeI9DirectionNS_12basic_stringIcNS_11char_traitsIcEENS_9allocatorIcEEEEEEPvEENS_22__hash_node_destructorINS7_ISC_EEEEE5firstB7v160006Ev, symObjAddr: 0x2990C, symBinAddr: 0x10002CC1C, symSize: 0x24 }
  - { offsetInCU: 0x5EBF2, offset: 0x5EBF2, size: 0x8, addend: 0x0, symName: __ZNSt3__122__compressed_pair_elemIPNS_11__hash_nodeINS_17__hash_value_typeI9DirectionNS_12basic_stringIcNS_11char_traitsIcEENS_9allocatorIcEEEEEEPvEELi0ELb0EE5__getB7v160006Ev, symObjAddr: 0x29930, symBinAddr: 0x10002CC40, symSize: 0x14 }
  - { offsetInCU: 0x5EC18, offset: 0x5EC18, size: 0x8, addend: 0x0, symName: __ZNSt3__110unique_ptrINS_11__hash_nodeINS_17__hash_value_typeI9DirectionNS_12basic_stringIcNS_11char_traitsIcEENS_9allocatorIcEEEEEEPvEENS_22__hash_node_destructorINS7_ISC_EEEEED2B7v160006Ev, symObjAddr: 0x29944, symBinAddr: 0x10002CC54, symSize: 0x30 }
  - { offsetInCU: 0x5EC42, offset: 0x5EC42, size: 0x8, addend: 0x0, symName: __ZNSt3__110unique_ptrINS_11__hash_nodeINS_17__hash_value_typeI9DirectionNS_12basic_stringIcNS_11char_traitsIcEENS_9allocatorIcEEEEEEPvEENS_22__hash_node_destructorINS7_ISC_EEEEE5resetB7v160006EPSC_, symObjAddr: 0x29974, symBinAddr: 0x10002CC84, symSize: 0x78 }
  - { offsetInCU: 0x5EC86, offset: 0x5EC86, size: 0x8, addend: 0x0, symName: __ZNSt3__122__hash_node_destructorINS_9allocatorINS_11__hash_nodeINS_17__hash_value_typeI9DirectionNS_12basic_stringIcNS_11char_traitsIcEENS1_IcEEEEEEPvEEEEEclB7v160006EPSC_, symObjAddr: 0x299EC, symBinAddr: 0x10002CCFC, symSize: 0x98 }
  - { offsetInCU: 0x5ECBB, offset: 0x5ECBB, size: 0x8, addend: 0x0, symName: __ZNSt3__116allocator_traitsINS_9allocatorINS_11__hash_nodeINS_17__hash_value_typeI9DirectionNS_12basic_stringIcNS_11char_traitsIcEENS1_IcEEEEEEPvEEEEE7destroyB7v160006INS_4pairIKS4_S9_EEvvEEvRSD_PT_, symObjAddr: 0x29A84, symBinAddr: 0x10002CD94, symSize: 0x28 }
  - { offsetInCU: 0x5ECF6, offset: 0x5ECF6, size: 0x8, addend: 0x0, symName: __ZNSt3__116allocator_traitsINS_9allocatorINS_11__hash_nodeINS_17__hash_value_typeI9DirectionNS_12basic_stringIcNS_11char_traitsIcEENS1_IcEEEEEEPvEEEEE10deallocateB7v160006ERSD_PSC_m, symObjAddr: 0x29AAC, symBinAddr: 0x10002CDBC, symSize: 0x34 }
  - { offsetInCU: 0x5ED38, offset: 0x5ED38, size: 0x8, addend: 0x0, symName: __ZNSt3__19allocatorINS_11__hash_nodeINS_17__hash_value_typeI9DirectionNS_12basic_stringIcNS_11char_traitsIcEENS0_IcEEEEEEPvEEE10deallocateB7v160006EPSB_m, symObjAddr: 0x29AE0, symBinAddr: 0x10002CDF0, symSize: 0x44 }
  - { offsetInCU: 0x5ED7A, offset: 0x5ED7A, size: 0x8, addend: 0x0, symName: __ZNSt3__115__hash_iteratorIPNS_11__hash_nodeINS_17__hash_value_typeI9DirectionNS_12basic_stringIcNS_11char_traitsIcEENS_9allocatorIcEEEEEEPvEEEC2B7v160006EPNS_16__hash_node_baseISD_EEPKv, symObjAddr: 0x29B24, symBinAddr: 0x10002CE34, symSize: 0x24 }
  - { offsetInCU: 0x5EDC2, offset: 0x5EDC2, size: 0x8, addend: 0x0, symName: __ZNSt3__14pairINS_15__hash_iteratorIPNS_11__hash_nodeINS_17__hash_value_typeI9DirectionNS_12basic_stringIcNS_11char_traitsIcEENS_9allocatorIcEEEEEEPvEEEEbEC2B7v160006ISF_RbLSC_0EEEOT_OT0_, symObjAddr: 0x29B48, symBinAddr: 0x10002CE58, symSize: 0x38 }
  - { offsetInCU: 0x5EE20, offset: 0x5EE20, size: 0x8, addend: 0x0, symName: __ZNSt3__112__hash_tableINS_17__hash_value_typeI9DirectionNS_12basic_stringIcNS_11char_traitsIcEENS_9allocatorIcEEEEEENS_22__unordered_map_hasherIS2_S9_NS_4hashIS2_EENS_8equal_toIS2_EELb1EEENS_21__unordered_map_equalIS2_S9_SE_SC_Lb1EEENS6_IS9_EEED2Ev, symObjAddr: 0x29B80, symBinAddr: 0x10002CE90, symSize: 0x58 }
  - { offsetInCU: 0x5EE4C, offset: 0x5EE4C, size: 0x8, addend: 0x0, symName: __ZNSt3__112__hash_tableINS_17__hash_value_typeI9DirectionNS_12basic_stringIcNS_11char_traitsIcEENS_9allocatorIcEEEEEENS_22__unordered_map_hasherIS2_S9_NS_4hashIS2_EENS_8equal_toIS2_EELb1EEENS_21__unordered_map_equalIS2_S9_SE_SC_Lb1EEENS6_IS9_EEE17__deallocate_nodeEPNS_16__hash_node_baseIPNS_11__hash_nodeIS9_PvEEEE, symObjAddr: 0x29BD8, symBinAddr: 0x10002CEE8, symSize: 0xA4 }
  - { offsetInCU: 0x5EEB6, offset: 0x5EEB6, size: 0x8, addend: 0x0, symName: __ZNSt3__110unique_ptrIA_PNS_16__hash_node_baseIPNS_11__hash_nodeINS_17__hash_value_typeI9DirectionNS_12basic_stringIcNS_11char_traitsIcEENS_9allocatorIcEEEEEEPvEEEENS_25__bucket_list_deallocatorINS8_ISG_EEEEED1B7v160006Ev, symObjAddr: 0x29C8C, symBinAddr: 0x10002CF9C, symSize: 0x2C }
  - { offsetInCU: 0x5EEE0, offset: 0x5EEE0, size: 0x8, addend: 0x0, symName: __ZNSt3__110unique_ptrIA_PNS_16__hash_node_baseIPNS_11__hash_nodeINS_17__hash_value_typeI9DirectionNS_12basic_stringIcNS_11char_traitsIcEENS_9allocatorIcEEEEEEPvEEEENS_25__bucket_list_deallocatorINS8_ISG_EEEEED2B7v160006Ev, symObjAddr: 0x29CB8, symBinAddr: 0x10002CFC8, symSize: 0x30 }
  - { offsetInCU: 0x5EF0A, offset: 0x5EF0A, size: 0x8, addend: 0x0, symName: __ZNSt3__110unique_ptrIA_PNS_16__hash_node_baseIPNS_11__hash_nodeINS_17__hash_value_typeI9DirectionNS_12basic_stringIcNS_11char_traitsIcEENS_9allocatorIcEEEEEEPvEEEENS_25__bucket_list_deallocatorINS8_ISG_EEEEE5resetB7v160006EDn, symObjAddr: 0x29CE8, symBinAddr: 0x10002CFF8, symSize: 0x6C }
  - { offsetInCU: 0x5EF4B, offset: 0x5EF4B, size: 0x8, addend: 0x0, symName: __ZNSt3__113unordered_mapI9DirectionNS_12basic_stringIcNS_11char_traitsIcEENS_9allocatorIcEEEENS_4hashIS1_EENS_8equal_toIS1_EENS5_INS_4pairIKS1_S7_EEEEED2B7v160006Ev, symObjAddr: 0x29D54, symBinAddr: 0x10002D064, symSize: 0x2C }
  - { offsetInCU: 0x5EF75, offset: 0x5EF75, size: 0x8, addend: 0x0, symName: __ZNKSt3__112__hash_tableINS_17__hash_value_typeI9DirectionNS_12basic_stringIcNS_11char_traitsIcEENS_9allocatorIcEEEEEENS_22__unordered_map_hasherIS2_S9_NS_4hashIS2_EENS_8equal_toIS2_EELb1EEENS_21__unordered_map_equalIS2_S9_SE_SC_Lb1EEENS6_IS9_EEE4findIS2_EENS_21__hash_const_iteratorIPNS_11__hash_nodeIS9_PvEEEERKT_, symObjAddr: 0x29D80, symBinAddr: 0x10002D090, symSize: 0x1BC }
  - { offsetInCU: 0x5EFFF, offset: 0x5EFFF, size: 0x8, addend: 0x0, symName: __ZNSt3__125__hash_map_const_iteratorINS_21__hash_const_iteratorIPNS_11__hash_nodeINS_17__hash_value_typeI9DirectionNS_12basic_stringIcNS_11char_traitsIcEENS_9allocatorIcEEEEEEPvEEEEEC1B7v160006ESF_, symObjAddr: 0x29F3C, symBinAddr: 0x10002D24C, symSize: 0x34 }
  - { offsetInCU: 0x5F038, offset: 0x5F038, size: 0x8, addend: 0x0, symName: __ZNKSt3__112__hash_tableINS_17__hash_value_typeI9DirectionNS_12basic_stringIcNS_11char_traitsIcEENS_9allocatorIcEEEEEENS_22__unordered_map_hasherIS2_S9_NS_4hashIS2_EENS_8equal_toIS2_EELb1EEENS_21__unordered_map_equalIS2_S9_SE_SC_Lb1EEENS6_IS9_EEE13hash_functionB7v160006Ev, symObjAddr: 0x29F70, symBinAddr: 0x10002D280, symSize: 0x28 }
  - { offsetInCU: 0x5F05E, offset: 0x5F05E, size: 0x8, addend: 0x0, symName: __ZNKSt3__112__hash_tableINS_17__hash_value_typeI9DirectionNS_12basic_stringIcNS_11char_traitsIcEENS_9allocatorIcEEEEEENS_22__unordered_map_hasherIS2_S9_NS_4hashIS2_EENS_8equal_toIS2_EELb1EEENS_21__unordered_map_equalIS2_S9_SE_SC_Lb1EEENS6_IS9_EEE6key_eqB7v160006Ev, symObjAddr: 0x29F98, symBinAddr: 0x10002D2A8, symSize: 0x28 }
  - { offsetInCU: 0x5F084, offset: 0x5F084, size: 0x8, addend: 0x0, symName: __ZNSt3__121__hash_const_iteratorIPNS_11__hash_nodeINS_17__hash_value_typeI9DirectionNS_12basic_stringIcNS_11char_traitsIcEENS_9allocatorIcEEEEEEPvEEEC1B7v160006EPNS_16__hash_node_baseISD_EEPKv, symObjAddr: 0x29FC0, symBinAddr: 0x10002D2D0, symSize: 0x3C }
  - { offsetInCU: 0x5F0CC, offset: 0x5F0CC, size: 0x8, addend: 0x0, symName: __ZNKSt3__112__hash_tableINS_17__hash_value_typeI9DirectionNS_12basic_stringIcNS_11char_traitsIcEENS_9allocatorIcEEEEEENS_22__unordered_map_hasherIS2_S9_NS_4hashIS2_EENS_8equal_toIS2_EELb1EEENS_21__unordered_map_equalIS2_S9_SE_SC_Lb1EEENS6_IS9_EEE3endEv, symObjAddr: 0x29FFC, symBinAddr: 0x10002D30C, symSize: 0x30 }
  - { offsetInCU: 0x5F0F4, offset: 0x5F0F4, size: 0x8, addend: 0x0, symName: __ZNKSt3__117__compressed_pairImNS_22__unordered_map_hasherI9DirectionNS_17__hash_value_typeIS2_NS_12basic_stringIcNS_11char_traitsIcEENS_9allocatorIcEEEEEENS_4hashIS2_EENS_8equal_toIS2_EELb1EEEE6secondB7v160006Ev, symObjAddr: 0x2A02C, symBinAddr: 0x10002D33C, symSize: 0x24 }
  - { offsetInCU: 0x5F11A, offset: 0x5F11A, size: 0x8, addend: 0x0, symName: __ZNKSt3__122__compressed_pair_elemINS_22__unordered_map_hasherI9DirectionNS_17__hash_value_typeIS2_NS_12basic_stringIcNS_11char_traitsIcEENS_9allocatorIcEEEEEENS_4hashIS2_EENS_8equal_toIS2_EELb1EEELi1ELb1EE5__getB7v160006Ev, symObjAddr: 0x2A050, symBinAddr: 0x10002D360, symSize: 0x14 }
  - { offsetInCU: 0x5F140, offset: 0x5F140, size: 0x8, addend: 0x0, symName: __ZNKSt3__117__compressed_pairIfNS_21__unordered_map_equalI9DirectionNS_17__hash_value_typeIS2_NS_12basic_stringIcNS_11char_traitsIcEENS_9allocatorIcEEEEEENS_8equal_toIS2_EENS_4hashIS2_EELb1EEEE6secondB7v160006Ev, symObjAddr: 0x2A064, symBinAddr: 0x10002D374, symSize: 0x24 }
